(iCodeforcesProblem
CodeforcesProblem
p0
(dp1
S'desription'
p2
VA. As Fast As Possible\u000atime limit per test1 second\u000amemory limit per test256 megabytes\u000ainputstandard input\u000aoutputstandard output\u000aOn vacations n pupils decided to go on excursion and gather all together. They need to overcome the path with the length l meters. Each of the pupils will go with the speed equal to v1. To get to the excursion quickly, it was decided to rent a bus, which has seats for k people (it means that it can't fit more than k people at the same time) and the speed equal to v2. In order to avoid seasick, each of the pupils want to get into the bus no more than once.\u000aDetermine the minimum time required for all n pupils to reach the place of excursion. Consider that the embarkation and disembarkation of passengers, as well as the reversal of the bus, take place immediately and this time can be neglected.\u000aInput\u000aThe first line of the input contains five positive integers n, l, v1, v2 and k (1\u2009\u2264\u2009n\u2009\u2264\u200910\u2009000, 1\u2009\u2264\u2009l\u2009\u2264\u2009109, 1\u2009\u2264\u2009v1\u2009<\u2009v2\u2009\u2264\u2009109, 1\u2009\u2264\u2009k\u2009\u2264\u2009n) \u2014 the number of pupils, the distance from meeting to the place of excursion, the speed of each pupil, the speed of bus and the number of seats in the bus.\u000aOutput\u000aPrint the real number \u2014 the minimum time in which all pupils can reach the place of excursion. Your answer will be considered correct if its absolute or relative error won't exceed 10\u2009-\u20096.\u000aExamples\u000ainput\u000a5 10 1 2 5\u000aoutput\u000a5.0000000000\u000ainput\u000a3 6 1 2 1\u000aoutput\u000a4.7142857143\u000aNote\u000aIn the first sample we should immediately put all five pupils to the bus. The speed of the bus equals 2 and the distance is equal to 10, so the pupils will reach the place of excursion in time 10\u2009/\u20092\u2009=\u20095.
p3
sS'problemStatement'
p4
VA. As Fast As Possible\u000atime limit per test1 second\u000amemory limit per test256 megabytes\u000ainputstandard input\u000aoutputstandard output\u000aOn vacations n pupils decided to go on excursion and gather all together. They need to overcome the path with the length l meters. Each of the pupils will go with the speed equal to v1. To get to the excursion quickly, it was decided to rent a bus, which has seats for k people (it means that it can't fit more than k people at the same time) and the speed equal to v2. In order to avoid seasick, each of the pupils want to get into the bus no more than once.\u000aDetermine the minimum time required for all n pupils to reach the place of excursion. Consider that the embarkation and disembarkation of passengers, as well as the reversal of the bus, take place immediately and this time can be neglected.\u000aInput\u000aThe first line of the input contains five positive integers n, l, v1, v2 and k (1\u2009\u2264\u2009n\u2009\u2264\u200910\u2009000, 1\u2009\u2264\u2009l\u2009\u2264\u2009109, 1\u2009\u2264\u2009v1\u2009<\u2009v2\u2009\u2264\u2009109, 1\u2009\u2264\u2009k\u2009\u2264\u2009n) \u2014 the number of pupils, the distance from meeting to the place of excursion, the speed of each pupil, the speed of bus and the number of seats in the bus.\u000aOutput\u000aPrint the real number \u2014 the minimum time in which all pupils can reach the place of excursion. Your answer will be considered correct if its absolute or relative error won't exceed 10\u2009-\u20096.\u000aExamples\u000ainput\u000a5 10 1 2 5\u000aoutput\u000a5.0000000000\u000ainput\u000a3 6 1 2 1\u000aoutput\u000a4.7142857143\u000aNote\u000aIn the first sample we should immediately put all five pupils to the bus. The speed of the bus equals 2 and the distance is equal to 10, so the pupils will reach the place of excursion in time 10\u2009/\u20092\u2009=\u20095.
p5
sS'name'
p6
VA. As Fast As Possible
p7
sS'tags'
p8
Vbinary search math 
p9
sS'url'
p10
Vhttp://codeforces.com/problemset/problem/700/A
p11
sS'memorylimit'
p12
V256 megabytes
p13
sS'timelimit'
p14
V1 second
p15
sS'problemId'
p16
V700/A
p17
sS'id'
p18
c__builtin__
id
p19
sb.