(iCodeforcesProblem
CodeforcesProblem
p0
(dp1
S'desription'
p2
VA. Alyona and Numbers\u000atime limit per test1 second\u000amemory limit per test256 megabytes\u000ainputstandard input\u000aoutputstandard output\u000aAfter finishing eating her bun, Alyona came up with two integers n and m. She decided to write down two columns of integers \u2014 the first column containing integers from 1 to n and the second containing integers from 1 to m. Now the girl wants to count how many pairs of integers she can choose, one from the first column and the other from the second column, such that their sum is divisible by 5.\u000aFormally, Alyona wants to count the number of pairs of integers (x,\u2009y) such that 1\u2009\u2264\u2009x\u2009\u2264\u2009n, 1\u2009\u2264\u2009y\u2009\u2264\u2009m and equals 0.\u000aAs usual, Alyona has some troubles and asks you to help.\u000aInput\u000aThe only line of the input contains two integers n and m (1\u2009\u2264\u2009n,\u2009m\u2009\u2264\u20091\u2009000\u2009000).\u000aOutput\u000aPrint the only integer \u2014 the number of pairs of integers (x,\u2009y) such that 1\u2009\u2264\u2009x\u2009\u2264\u2009n, 1\u2009\u2264\u2009y\u2009\u2264\u2009m and (x\u2009+\u2009y) is divisible by 5.\u000aExamples\u000ainput\u000a6 12\u000aoutput\u000a14\u000ainput\u000a11 14\u000aoutput\u000a31\u000ainput\u000a1 5\u000aoutput\u000a1\u000ainput\u000a3 8\u000aoutput\u000a5\u000ainput\u000a5 7\u000aoutput\u000a7\u000ainput\u000a21 21\u000aoutput\u000a88\u000aNote\u000aFollowing pairs are suitable in the first sample case:\u000afor x\u2009=\u20091 fits y equal to 4 or 9;\u000afor x\u2009=\u20092 fits y equal to 3 or 8;\u000afor x\u2009=\u20093 fits y equal to 2, 7 or 12;\u000afor x\u2009=\u20094 fits y equal to 1, 6 or 11;\u000afor x\u2009=\u20095 fits y equal to 5 or 10;\u000afor x\u2009=\u20096 fits y equal to 4 or 9.\u000aOnly the pair (1,\u20094) is suitable in the third sample case.
p3
sS'problemStatement'
p4
VA. Alyona and Numbers\u000atime limit per test1 second\u000amemory limit per test256 megabytes\u000ainputstandard input\u000aoutputstandard output\u000aAfter finishing eating her bun, Alyona came up with two integers n and m. She decided to write down two columns of integers \u2014 the first column containing integers from 1 to n and the second containing integers from 1 to m. Now the girl wants to count how many pairs of integers she can choose, one from the first column and the other from the second column, such that their sum is divisible by 5.\u000aFormally, Alyona wants to count the number of pairs of integers (x,\u2009y) such that 1\u2009\u2264\u2009x\u2009\u2264\u2009n, 1\u2009\u2264\u2009y\u2009\u2264\u2009m and equals 0.\u000aAs usual, Alyona has some troubles and asks you to help.\u000aInput\u000aThe only line of the input contains two integers n and m (1\u2009\u2264\u2009n,\u2009m\u2009\u2264\u20091\u2009000\u2009000).\u000aOutput\u000aPrint the only integer \u2014 the number of pairs of integers (x,\u2009y) such that 1\u2009\u2264\u2009x\u2009\u2264\u2009n, 1\u2009\u2264\u2009y\u2009\u2264\u2009m and (x\u2009+\u2009y) is divisible by 5.\u000aExamples\u000ainput\u000a6 12\u000aoutput\u000a14\u000ainput\u000a11 14\u000aoutput\u000a31\u000ainput\u000a1 5\u000aoutput\u000a1\u000ainput\u000a3 8\u000aoutput\u000a5\u000ainput\u000a5 7\u000aoutput\u000a7\u000ainput\u000a21 21\u000aoutput\u000a88\u000aNote\u000aFollowing pairs are suitable in the first sample case:\u000afor x\u2009=\u20091 fits y equal to 4 or 9;\u000afor x\u2009=\u20092 fits y equal to 3 or 8;\u000afor x\u2009=\u20093 fits y equal to 2, 7 or 12;\u000afor x\u2009=\u20094 fits y equal to 1, 6 or 11;\u000afor x\u2009=\u20095 fits y equal to 5 or 10;\u000afor x\u2009=\u20096 fits y equal to 4 or 9.\u000aOnly the pair (1,\u20094) is suitable in the third sample case.
p5
sS'name'
p6
VA. Alyona and Numbers
p7
sS'tags'
p8
Vconstructive algorithms number theory 
p9
sS'url'
p10
Vhttp://codeforces.com/problemset/problem/682/A
p11
sS'memorylimit'
p12
V256 megabytes
p13
sS'timelimit'
p14
V1 second
p15
sS'problemId'
p16
V682/A
p17
sS'id'
p18
c__builtin__
id
p19
sb.