(iCodeforcesProblem
CodeforcesProblem
p0
(dp1
S'desription'
p2
VA. Alyona and copybooks\u000atime limit per test1 second\u000amemory limit per test256 megabytes\u000ainputstandard input\u000aoutputstandard output\u000aLittle girl Alyona is in a shop to buy some copybooks for school. She study four subjects so she wants to have equal number of copybooks for each of the subjects. There are three types of copybook's packs in the shop: it is possible to buy one copybook for a rubles, a pack of two copybooks for b rubles, and a pack of three copybooks for c rubles. Alyona already has n copybooks.\u000aWhat is the minimum amount of rubles she should pay to buy such number of copybooks k that n\u2009+\u2009k is divisible by 4? There are infinitely many packs of any type in the shop. Alyona can buy packs of different type in the same purchase.\u000aInput\u000aThe only line contains 4 integers n, a, b, c (1\u2009\u2264\u2009n,\u2009a,\u2009b,\u2009c\u2009\u2264\u2009109).\u000aOutput\u000aPrint the minimum amount of rubles she should pay to buy such number of copybooks k that n\u2009+\u2009k is divisible by 4.\u000aExamples\u000ainput\u000a1 1 3 4\u000aoutput\u000a3\u000ainput\u000a6 2 1 1\u000aoutput\u000a1\u000ainput\u000a4 4 4 4\u000aoutput\u000a0\u000ainput\u000a999999999 1000000000 1000000000 1000000000\u000aoutput\u000a1000000000\u000aNote\u000aIn the first example Alyona can buy 3 packs of 1 copybook for 3a\u2009=\u20093 rubles in total. After that she will have 4 copybooks which she can split between the subjects equally.\u000aIn the second example Alyuna can buy a pack of 2 copybooks for b\u2009=\u20091 ruble. She will have 8 copybooks in total.\u000aIn the third example Alyona can split the copybooks she already has between the 4 subject equally, so she doesn't need to buy anything.\u000aIn the fourth example Alyona should buy one pack of one copybook.
p3
sS'problemStatement'
p4
VA. Alyona and copybooks\u000atime limit per test1 second\u000amemory limit per test256 megabytes\u000ainputstandard input\u000aoutputstandard output\u000aLittle girl Alyona is in a shop to buy some copybooks for school. She study four subjects so she wants to have equal number of copybooks for each of the subjects. There are three types of copybook's packs in the shop: it is possible to buy one copybook for a rubles, a pack of two copybooks for b rubles, and a pack of three copybooks for c rubles. Alyona already has n copybooks.\u000aWhat is the minimum amount of rubles she should pay to buy such number of copybooks k that n\u2009+\u2009k is divisible by 4? There are infinitely many packs of any type in the shop. Alyona can buy packs of different type in the same purchase.\u000aInput\u000aThe only line contains 4 integers n, a, b, c (1\u2009\u2264\u2009n,\u2009a,\u2009b,\u2009c\u2009\u2264\u2009109).\u000aOutput\u000aPrint the minimum amount of rubles she should pay to buy such number of copybooks k that n\u2009+\u2009k is divisible by 4.\u000aExamples\u000ainput\u000a1 1 3 4\u000aoutput\u000a3\u000ainput\u000a6 2 1 1\u000aoutput\u000a1\u000ainput\u000a4 4 4 4\u000aoutput\u000a0\u000ainput\u000a999999999 1000000000 1000000000 1000000000\u000aoutput\u000a1000000000\u000aNote\u000aIn the first example Alyona can buy 3 packs of 1 copybook for 3a\u2009=\u20093 rubles in total. After that she will have 4 copybooks which she can split between the subjects equally.\u000aIn the second example Alyuna can buy a pack of 2 copybooks for b\u2009=\u20091 ruble. She will have 8 copybooks in total.\u000aIn the third example Alyona can split the copybooks she already has between the 4 subject equally, so she doesn't need to buy anything.\u000aIn the fourth example Alyona should buy one pack of one copybook.
p5
sS'name'
p6
VA. Alyona and copybooks
p7
sS'tags'
p8
Vbrute force implementation 
p9
sS'url'
p10
Vhttp://codeforces.com/problemset/problem/740/A
p11
sS'memorylimit'
p12
V256 megabytes
p13
sS'timelimit'
p14
V1 second
p15
sS'problemId'
p16
V740/A
p17
sS'id'
p18
c__builtin__
id
p19
sb.