(iCodeforcesProblem
CodeforcesProblem
p0
(dp1
S'desription'
p2
VA. Checking the Calendar\u000atime limit per test1 second\u000amemory limit per test256 megabytes\u000ainputstandard input\u000aoutputstandard output\u000aYou are given names of two days of the week.\u000aPlease, determine whether it is possible that during some non-leap year the first day of some month was equal to the first day of the week you are given, while the first day of the next month was equal to the second day of the week you are given. Both months should belong to one year.\u000aIn this problem, we consider the Gregorian calendar to be used. The number of months in this calendar is equal to 12. The number of days in months during any non-leap year is: 31, 28, 31, 30, 31, 30, 31, 31, 30, 31, 30, 31.\u000aNames of the days of the week are given with lowercase English letters: "monday", "tuesday", "wednesday", "thursday", "friday", "saturday", "sunday".\u000aInput\u000aThe input consists of two lines, each of them containing the name of exactly one day of the week. It's guaranteed that each string in the input is from the set "monday", "tuesday", "wednesday", "thursday", "friday", "saturday", "sunday".\u000aOutput\u000aPrint "YES" (without quotes) if such situation is possible during some non-leap year. Otherwise, print "NO" (without quotes).\u000aExamples\u000ainput\u000amonday\u000atuesday\u000aoutput\u000aNO\u000ainput\u000asunday\u000asunday\u000aoutput\u000aYES\u000ainput\u000asaturday\u000atuesday\u000aoutput\u000aYES\u000aNote\u000aIn the second sample, one can consider February 1 and March 1 of year 2015. Both these days were Sundays.\u000aIn the third sample, one can consider July 1 and August 1 of year 2017. First of these two days is Saturday, while the second one is Tuesday.
p3
sS'problemStatement'
p4
VA. Checking the Calendar\u000atime limit per test1 second\u000amemory limit per test256 megabytes\u000ainputstandard input\u000aoutputstandard output\u000aYou are given names of two days of the week.\u000aPlease, determine whether it is possible that during some non-leap year the first day of some month was equal to the first day of the week you are given, while the first day of the next month was equal to the second day of the week you are given. Both months should belong to one year.\u000aIn this problem, we consider the Gregorian calendar to be used. The number of months in this calendar is equal to 12. The number of days in months during any non-leap year is: 31, 28, 31, 30, 31, 30, 31, 31, 30, 31, 30, 31.\u000aNames of the days of the week are given with lowercase English letters: "monday", "tuesday", "wednesday", "thursday", "friday", "saturday", "sunday".\u000aInput\u000aThe input consists of two lines, each of them containing the name of exactly one day of the week. It's guaranteed that each string in the input is from the set "monday", "tuesday", "wednesday", "thursday", "friday", "saturday", "sunday".\u000aOutput\u000aPrint "YES" (without quotes) if such situation is possible during some non-leap year. Otherwise, print "NO" (without quotes).\u000aExamples\u000ainput\u000amonday\u000atuesday\u000aoutput\u000aNO\u000ainput\u000asunday\u000asunday\u000aoutput\u000aYES\u000ainput\u000asaturday\u000atuesday\u000aoutput\u000aYES\u000aNote\u000aIn the second sample, one can consider February 1 and March 1 of year 2015. Both these days were Sundays.\u000aIn the third sample, one can consider July 1 and August 1 of year 2017. First of these two days is Saturday, while the second one is Tuesday.
p5
sS'name'
p6
VA. Checking the Calendar
p7
sS'tags'
p8
Vimplementation 
p9
sS'url'
p10
Vhttp://codeforces.com/problemset/problem/724/A
p11
sS'memorylimit'
p12
V256 megabytes
p13
sS'timelimit'
p14
V1 second
p15
sS'output'
p16
(lp17
VOutput
p18
aVPrint "YES" (without quotes) if such situation is possible during some non-leap year. Otherwise, print "NO" (without quotes).
p19
asS'statement'
p20
(lp21
VA. Checking the Calendar
p22
aVtime limit per test1 second
p23
aVmemory limit per test256 megabytes
p24
aVinputstandard input
p25
aVoutputstandard output
p26
aVYou are given names of two days of the week.
p27
aVPlease, determine whether it is possible that during some non-leap year the first day of some month was equal to the first day of the week you are given, while the first day of the next month was equal to the second day of the week you are given. Both months should belong to one year.
p28
aVIn this problem, we consider the Gregorian calendar to be used. The number of months in this calendar is equal to 12. The number of days in months during any non-leap year is: 31, 28, 31, 30, 31, 30, 31, 31, 30, 31, 30, 31.
p29
aVNames of the days of the week are given with lowercase English letters: "monday", "tuesday", "wednesday", "thursday", "friday", "saturday", "sunday".
p30
asS'problemId'
p31
V724/A
p32
sS'input'
p33
(lp34
VInput
p35
aVThe input consists of two lines, each of them containing the name of exactly one day of the week. It's guaranteed that each string in the input is from the set "monday", "tuesday", "wednesday", "thursday", "friday", "saturday", "sunday".
p36
asS'id'
p37
c__builtin__
id
p38
sS'constraints'
p39
g34
sb.