(iCodeforcesProblem
CodeforcesProblem
p0
(dp1
S'desription'
p2
VA. Fashion in Berland\u000atime limit per test1 second\u000amemory limit per test256 megabytes\u000ainputstandard input\u000aoutputstandard output\u000aAccording to rules of the Berland fashion, a jacket should be fastened by all the buttons except only one, but not necessarily it should be the last one. Also if the jacket has only one button, it should be fastened, so the jacket will not swinging open.\u000aYou are given a jacket with n buttons. Determine if it is fastened in a right way.\u000aInput\u000aThe first line contains integer n (1\u2009\u2264\u2009n\u2009\u2264\u20091000) \u2014 the number of buttons on the jacket.\u000aThe second line contains n integers ai (0\u2009\u2264\u2009ai\u2009\u2264\u20091). The number ai\u2009=\u20090 if the i-th button is not fastened. Otherwise ai\u2009=\u20091.\u000aOutput\u000aIn the only line print the word "YES" if the jacket is fastened in a right way. Otherwise print the word "NO".\u000aExamples\u000ainput\u000a3\u000a1 0 1\u000aoutput\u000aYES\u000ainput\u000a3\u000a1 0 0\u000aoutput\u000aNO
p3
sS'problemStatement'
p4
VA. Fashion in Berland\u000atime limit per test1 second\u000amemory limit per test256 megabytes\u000ainputstandard input\u000aoutputstandard output\u000aAccording to rules of the Berland fashion, a jacket should be fastened by all the buttons except only one, but not necessarily it should be the last one. Also if the jacket has only one button, it should be fastened, so the jacket will not swinging open.\u000aYou are given a jacket with n buttons. Determine if it is fastened in a right way.\u000aInput\u000aThe first line contains integer n (1\u2009\u2264\u2009n\u2009\u2264\u20091000) \u2014 the number of buttons on the jacket.\u000aThe second line contains n integers ai (0\u2009\u2264\u2009ai\u2009\u2264\u20091). The number ai\u2009=\u20090 if the i-th button is not fastened. Otherwise ai\u2009=\u20091.\u000aOutput\u000aIn the only line print the word "YES" if the jacket is fastened in a right way. Otherwise print the word "NO".\u000aExamples\u000ainput\u000a3\u000a1 0 1\u000aoutput\u000aYES\u000ainput\u000a3\u000a1 0 0\u000aoutput\u000aNO
p5
sS'name'
p6
VA. Fashion in Berland
p7
sS'tags'
p8
Vimplementation 
p9
sS'url'
p10
Vhttp://codeforces.com/problemset/problem/691/A
p11
sS'memorylimit'
p12
V256 megabytes
p13
sS'timelimit'
p14
V1 second
p15
sS'problemId'
p16
V691/A
p17
sS'id'
p18
c__builtin__
id
p19
sb.