(iCodeforcesProblem
CodeforcesProblem
p0
(dp1
S'desription'
p2
VA. Free Ice Cream\u000atime limit per test2 seconds\u000amemory limit per test256 megabytes\u000ainputstandard input\u000aoutputstandard output\u000aAfter their adventure with the magic mirror Kay and Gerda have returned home and sometimes give free ice cream to kids in the summer.\u000aAt the start of the day they have x ice cream packs. Since the ice cream is free, people start standing in the queue before Kay and Gerda's house even in the night. Each person in the queue wants either to take several ice cream packs for himself and his friends or to give several ice cream packs to Kay and Gerda (carriers that bring ice cream have to stand in the same queue).\u000aIf a carrier with d ice cream packs comes to the house, then Kay and Gerda take all his packs. If a child who wants to take d ice cream packs comes to the house, then Kay and Gerda will give him d packs if they have enough ice cream, otherwise the child will get no ice cream at all and will leave in distress.\u000aKay wants to find the amount of ice cream they will have after all people will leave from the queue, and Gerda wants to find the number of distressed kids.\u000aInput\u000aThe first line contains two space-separated integers n and x (1\u2009\u2264\u2009n\u2009\u2264\u20091000, 0\u2009\u2264\u2009x\u2009\u2264\u2009109).\u000aEach of the next n lines contains a character '+' or '-', and an integer di, separated by a space (1\u2009\u2264\u2009di\u2009\u2264\u2009109). Record "+ di" in i-th line means that a carrier with di ice cream packs occupies i-th place from the start of the queue, and record "- di" means that a child who wants to take di packs stands in i-th place.\u000aOutput\u000aPrint two space-separated integers \u2014 number of ice cream packs left after all operations, and number of kids that left the house in distress.\u000aExamples\u000ainput\u000a5 7\u000a+ 5\u000a- 10\u000a- 20\u000a+ 40\u000a- 20\u000aoutput\u000a22 1\u000ainput\u000a5 17\u000a- 16\u000a- 2\u000a- 98\u000a+ 100\u000a- 98\u000aoutput\u000a3 2\u000aNote\u000aConsider the first sample.\u000aInitially Kay and Gerda have 7 packs of ice cream.\u000aCarrier brings 5 more, so now they have 12 packs.\u000aA kid asks for 10 packs and receives them. There are only 2 packs remaining.\u000aAnother kid asks for 20 packs. Kay and Gerda do not have them, so the kid goes away distressed.\u000aCarrier bring 40 packs, now Kay and Gerda have 42 packs.\u000aKid asks for 20 packs and receives them. There are 22 packs remaining.
p3
sS'problemStatement'
p4
VA. Free Ice Cream\u000atime limit per test2 seconds\u000amemory limit per test256 megabytes\u000ainputstandard input\u000aoutputstandard output\u000aAfter their adventure with the magic mirror Kay and Gerda have returned home and sometimes give free ice cream to kids in the summer.\u000aAt the start of the day they have x ice cream packs. Since the ice cream is free, people start standing in the queue before Kay and Gerda's house even in the night. Each person in the queue wants either to take several ice cream packs for himself and his friends or to give several ice cream packs to Kay and Gerda (carriers that bring ice cream have to stand in the same queue).\u000aIf a carrier with d ice cream packs comes to the house, then Kay and Gerda take all his packs. If a child who wants to take d ice cream packs comes to the house, then Kay and Gerda will give him d packs if they have enough ice cream, otherwise the child will get no ice cream at all and will leave in distress.\u000aKay wants to find the amount of ice cream they will have after all people will leave from the queue, and Gerda wants to find the number of distressed kids.\u000aInput\u000aThe first line contains two space-separated integers n and x (1\u2009\u2264\u2009n\u2009\u2264\u20091000, 0\u2009\u2264\u2009x\u2009\u2264\u2009109).\u000aEach of the next n lines contains a character '+' or '-', and an integer di, separated by a space (1\u2009\u2264\u2009di\u2009\u2264\u2009109). Record "+ di" in i-th line means that a carrier with di ice cream packs occupies i-th place from the start of the queue, and record "- di" means that a child who wants to take di packs stands in i-th place.\u000aOutput\u000aPrint two space-separated integers \u2014 number of ice cream packs left after all operations, and number of kids that left the house in distress.\u000aExamples\u000ainput\u000a5 7\u000a+ 5\u000a- 10\u000a- 20\u000a+ 40\u000a- 20\u000aoutput\u000a22 1\u000ainput\u000a5 17\u000a- 16\u000a- 2\u000a- 98\u000a+ 100\u000a- 98\u000aoutput\u000a3 2\u000aNote\u000aConsider the first sample.\u000aInitially Kay and Gerda have 7 packs of ice cream.\u000aCarrier brings 5 more, so now they have 12 packs.\u000aA kid asks for 10 packs and receives them. There are only 2 packs remaining.\u000aAnother kid asks for 20 packs. Kay and Gerda do not have them, so the kid goes away distressed.\u000aCarrier bring 40 packs, now Kay and Gerda have 42 packs.\u000aKid asks for 20 packs and receives them. There are 22 packs remaining.
p5
sS'name'
p6
VA. Free Ice Cream
p7
sS'tags'
p8
Vconstructive algorithms implementation 
p9
sS'url'
p10
Vhttp://codeforces.com/problemset/problem/686/A
p11
sS'memorylimit'
p12
V256 megabytes
p13
sS'timelimit'
p14
V2 seconds
p15
sS'problemId'
p16
V686/A
p17
sS'id'
p18
c__builtin__
id
p19
sb.