(iCodeforcesProblem
CodeforcesProblem
p0
(dp1
S'desription'
p2
VA. Hulk\u000atime limit per test1 second\u000amemory limit per test256 megabytes\u000ainputstandard input\u000aoutputstandard output\u000aDr. Bruce Banner hates his enemies (like others don't). As we all know, he can barely talk when he turns into the incredible Hulk. That's why he asked you to help him to express his feelings.\u000aHulk likes the Inception so much, and like that his feelings are complicated. They have n layers. The first layer is hate, second one is love, third one is hate and so on...\u000aFor example if n\u2009=\u20091, then his feeling is "I hate it" or if n\u2009=\u20092 it's "I hate that I love it", and if n\u2009=\u20093 it's "I hate that I love that I hate it" and so on.\u000aPlease help Dr. Banner.\u000aInput\u000aThe only line of the input contains a single integer n (1\u2009\u2264\u2009n\u2009\u2264\u2009100) \u2014 the number of layers of love and hate.\u000aOutput\u000aPrint Dr.Banner's feeling in one line.\u000aExamples\u000ainput\u000a1\u000aoutput\u000aI hate it\u000ainput\u000a2\u000aoutput\u000aI hate that I love it\u000ainput\u000a3\u000aoutput\u000aI hate that I love that I hate it
p3
sS'problemStatement'
p4
VA. Hulk\u000atime limit per test1 second\u000amemory limit per test256 megabytes\u000ainputstandard input\u000aoutputstandard output\u000aDr. Bruce Banner hates his enemies (like others don't). As we all know, he can barely talk when he turns into the incredible Hulk. That's why he asked you to help him to express his feelings.\u000aHulk likes the Inception so much, and like that his feelings are complicated. They have n layers. The first layer is hate, second one is love, third one is hate and so on...\u000aFor example if n\u2009=\u20091, then his feeling is "I hate it" or if n\u2009=\u20092 it's "I hate that I love it", and if n\u2009=\u20093 it's "I hate that I love that I hate it" and so on.\u000aPlease help Dr. Banner.\u000aInput\u000aThe only line of the input contains a single integer n (1\u2009\u2264\u2009n\u2009\u2264\u2009100) \u2014 the number of layers of love and hate.\u000aOutput\u000aPrint Dr.Banner's feeling in one line.\u000aExamples\u000ainput\u000a1\u000aoutput\u000aI hate it\u000ainput\u000a2\u000aoutput\u000aI hate that I love it\u000ainput\u000a3\u000aoutput\u000aI hate that I love that I hate it
p5
sS'name'
p6
VA. Hulk
p7
sS'tags'
p8
Vimplementation 
p9
sS'url'
p10
Vhttp://codeforces.com/problemset/problem/705/A
p11
sS'memorylimit'
p12
V256 megabytes
p13
sS'timelimit'
p14
V1 second
p15
sS'problemId'
p16
V705/A
p17
sS'id'
p18
c__builtin__
id
p19
sb.