(iCodeforcesProblem
CodeforcesProblem
p0
(dp1
S'desription'
p2
VA. King Moves\u000atime limit per test1 second\u000amemory limit per test256 megabytes\u000ainputstandard input\u000aoutputstandard output\u000aThe only king stands on the standard chess board. You are given his position in format "cd", where c is the column from 'a' to 'h' and d is the row from '1' to '8'. Find the number of moves permitted for the king.\u000aCheck the king's moves here https://en.wikipedia.org/wiki/King_(chess).\u000aKing moves from the position e4\u000aInput\u000aThe only line contains the king's position in the format "cd", where 'c' is the column from 'a' to 'h' and 'd' is the row from '1' to '8'.\u000aOutput\u000aPrint the only integer x \u2014 the number of moves permitted for the king.\u000aExample\u000ainput\u000ae4\u000aoutput\u000a8
p3
sS'problemStatement'
p4
VA. King Moves\u000atime limit per test1 second\u000amemory limit per test256 megabytes\u000ainputstandard input\u000aoutputstandard output\u000aThe only king stands on the standard chess board. You are given his position in format "cd", where c is the column from 'a' to 'h' and d is the row from '1' to '8'. Find the number of moves permitted for the king.\u000aCheck the king's moves here https://en.wikipedia.org/wiki/King_(chess).\u000aKing moves from the position e4\u000aInput\u000aThe only line contains the king's position in the format "cd", where 'c' is the column from 'a' to 'h' and 'd' is the row from '1' to '8'.\u000aOutput\u000aPrint the only integer x \u2014 the number of moves permitted for the king.\u000aExample\u000ainput\u000ae4\u000aoutput\u000a8
p5
sS'name'
p6
VA. King Moves
p7
sS'tags'
p8
Vimplementation 
p9
sS'url'
p10
Vhttp://codeforces.com/problemset/problem/710/A
p11
sS'memorylimit'
p12
V256 megabytes
p13
sS'timelimit'
p14
V1 second
p15
sS'output'
p16
(lp17
VOutput
p18
aVPrint the only integer x \u2014 the number of moves permitted for the king.
p19
asS'statement'
p20
(lp21
VA. King Moves
p22
aVtime limit per test1 second
p23
aVmemory limit per test256 megabytes
p24
aVinputstandard input
p25
aVoutputstandard output
p26
aVThe only king stands on the standard chess board. You are given his position in format "cd", where c is the column from 'a' to 'h' and d is the row from '1' to '8'. Find the number of moves permitted for the king.
p27
aVCheck the king's moves here https://en.wikipedia.org/wiki/King_(chess).
p28
aVKing moves from the position e4
p29
asS'problemId'
p30
V710/A
p31
sS'input'
p32
(lp33
VInput
p34
aVThe only line contains the king's position in the format "cd", where 'c' is the column from 'a' to 'h' and 'd' is the row from '1' to '8'.
p35
asS'id'
p36
c__builtin__
id
p37
sS'constraints'
p38
g33
sb.