(iCodeforcesProblem
CodeforcesProblem
p0
(dp1
S'desription'
p2
VA. Letters Cyclic Shift\u000atime limit per test1 second\u000amemory limit per test256 megabytes\u000ainputstandard input\u000aoutputstandard output\u000aYou are given a non-empty string s consisting of lowercase English letters. You have to pick exactly one non-empty substring of s and shift all its letters 'z' 'y' 'x' 'b' 'a' 'z'. In other words, each character is replaced with the previous character of English alphabet and 'a' is replaced with 'z'.\u000aWhat is the lexicographically minimum string that can be obtained from s by performing this shift exactly once?\u000aInput\u000aThe only line of the input contains the string s (1\u2009\u2264\u2009|s|\u2009\u2264\u2009100\u2009000) consisting of lowercase English letters.\u000aOutput\u000aPrint the lexicographically minimum string that can be obtained from s by shifting letters of exactly one non-empty substring.\u000aExamples\u000ainput\u000acodeforces\u000aoutput\u000abncdenqbdr\u000ainput\u000aabacaba\u000aoutput\u000aaaacaba\u000aNote\u000aString s is lexicographically smaller than some other string t of the same length if there exists some 1\u2009\u2264\u2009i\u2009\u2264\u2009|s|, such that s1\u2009=\u2009t1,\u2009s2\u2009=\u2009t2,\u2009...,\u2009si\u2009-\u20091\u2009=\u2009ti\u2009-\u20091, and si\u2009<\u2009ti.
p3
sS'problemStatement'
p4
VA. Letters Cyclic Shift\u000atime limit per test1 second\u000amemory limit per test256 megabytes\u000ainputstandard input\u000aoutputstandard output\u000aYou are given a non-empty string s consisting of lowercase English letters. You have to pick exactly one non-empty substring of s and shift all its letters 'z' 'y' 'x' 'b' 'a' 'z'. In other words, each character is replaced with the previous character of English alphabet and 'a' is replaced with 'z'.\u000aWhat is the lexicographically minimum string that can be obtained from s by performing this shift exactly once?\u000aInput\u000aThe only line of the input contains the string s (1\u2009\u2264\u2009|s|\u2009\u2264\u2009100\u2009000) consisting of lowercase English letters.\u000aOutput\u000aPrint the lexicographically minimum string that can be obtained from s by shifting letters of exactly one non-empty substring.\u000aExamples\u000ainput\u000acodeforces\u000aoutput\u000abncdenqbdr\u000ainput\u000aabacaba\u000aoutput\u000aaaacaba\u000aNote\u000aString s is lexicographically smaller than some other string t of the same length if there exists some 1\u2009\u2264\u2009i\u2009\u2264\u2009|s|, such that s1\u2009=\u2009t1,\u2009s2\u2009=\u2009t2,\u2009...,\u2009si\u2009-\u20091\u2009=\u2009ti\u2009-\u20091, and si\u2009<\u2009ti.
p5
sS'name'
p6
VA. Letters Cyclic Shift
p7
sS'tags'
p8
Vconstructive algorithms implementation 
p9
sS'url'
p10
Vhttp://codeforces.com/problemset/problem/708/A
p11
sS'memorylimit'
p12
V256 megabytes
p13
sS'timelimit'
p14
V1 second
p15
sS'problemId'
p16
V708/A
p17
sS'id'
p18
c__builtin__
id
p19
sb.