(iCodeforcesProblem
CodeforcesProblem
p0
(dp1
S'desription'
p2
VA. Little Artem and Presents\u000atime limit per test2 seconds\u000amemory limit per test256 megabytes\u000ainputstandard input\u000aoutputstandard output\u000aLittle Artem got n stones on his birthday and now wants to give some of them to Masha. He knows that Masha cares more about the fact of receiving the present, rather than the value of that present, so he wants to give her stones as many times as possible. However, Masha remembers the last present she received, so Artem can't give her the same number of stones twice in a row. For example, he can give her 3 stones, then 1 stone, then again 3 stones, but he can't give her 3 stones and then again 3 stones right after that.\u000aHow many times can Artem give presents to Masha?\u000aInput\u000aThe only line of the input contains a single integer n (1\u2009\u2264\u2009n\u2009\u2264\u2009109) \u2014 number of stones Artem received on his birthday.\u000aOutput\u000aPrint the maximum possible number of times Artem can give presents to Masha.\u000aExamples\u000ainput\u000a1\u000aoutput\u000a1\u000ainput\u000a2\u000aoutput\u000a1\u000ainput\u000a3\u000aoutput\u000a2\u000ainput\u000a4\u000aoutput\u000a3\u000aNote\u000aIn the first sample, Artem can only give 1 stone to Masha.\u000aIn the second sample, Atrem can give Masha 1 or 2 stones, though he can't give her 1 stone two times.\u000aIn the third sample, Atrem can first give Masha 2 stones, a then 1 more stone.\u000aIn the fourth sample, Atrem can first give Masha 1 stone, then 2 stones, and finally 1 stone again.
p3
sS'problemStatement'
p4
VA. Little Artem and Presents\u000atime limit per test2 seconds\u000amemory limit per test256 megabytes\u000ainputstandard input\u000aoutputstandard output\u000aLittle Artem got n stones on his birthday and now wants to give some of them to Masha. He knows that Masha cares more about the fact of receiving the present, rather than the value of that present, so he wants to give her stones as many times as possible. However, Masha remembers the last present she received, so Artem can't give her the same number of stones twice in a row. For example, he can give her 3 stones, then 1 stone, then again 3 stones, but he can't give her 3 stones and then again 3 stones right after that.\u000aHow many times can Artem give presents to Masha?\u000aInput\u000aThe only line of the input contains a single integer n (1\u2009\u2264\u2009n\u2009\u2264\u2009109) \u2014 number of stones Artem received on his birthday.\u000aOutput\u000aPrint the maximum possible number of times Artem can give presents to Masha.\u000aExamples\u000ainput\u000a1\u000aoutput\u000a1\u000ainput\u000a2\u000aoutput\u000a1\u000ainput\u000a3\u000aoutput\u000a2\u000ainput\u000a4\u000aoutput\u000a3\u000aNote\u000aIn the first sample, Artem can only give 1 stone to Masha.\u000aIn the second sample, Atrem can give Masha 1 or 2 stones, though he can't give her 1 stone two times.\u000aIn the third sample, Atrem can first give Masha 2 stones, a then 1 more stone.\u000aIn the fourth sample, Atrem can first give Masha 1 stone, then 2 stones, and finally 1 stone again.
p5
sS'name'
p6
VA. Little Artem and Presents
p7
sS'tags'
p8
Vmath 
p9
sS'url'
p10
Vhttp://codeforces.com/problemset/problem/669/A
p11
sS'memorylimit'
p12
V256 megabytes
p13
sS'timelimit'
p14
V2 seconds
p15
sS'problemId'
p16
V669/A
p17
sS'id'
p18
c__builtin__
id
p19
sb.