(iCodeforcesProblem
CodeforcesProblem
p0
(dp1
S'desription'
p2
VA. Maximum Increase\u000atime limit per test1 second\u000amemory limit per test256 megabytes\u000ainputstandard input\u000aoutputstandard output\u000aYou are given array consisting of n integers. Your task is to find the maximum length of an increasing subarray of the given array.\u000aA subarray is the sequence of consecutive elements of the array. Subarray is called increasing if each element of this subarray strictly greater than previous.\u000aInput\u000aThe first line contains single positive integer n (1\u2009\u2264\u2009n\u2009\u2264\u2009105) \u2014 the number of integers.\u000aThe second line contains n positive integers a1,\u2009a2,\u2009...,\u2009an (1\u2009\u2264\u2009ai\u2009\u2264\u2009109).\u000aOutput\u000aPrint the maximum length of an increasing subarray of the given array.\u000aExamples\u000ainput\u000a5\u000a1 7 2 11 15\u000aoutput\u000a3\u000ainput\u000a6\u000a100 100 100 100 100 100\u000aoutput\u000a1\u000ainput\u000a3\u000a1 2 3\u000aoutput\u000a3
p3
sS'problemStatement'
p4
VA. Maximum Increase\u000atime limit per test1 second\u000amemory limit per test256 megabytes\u000ainputstandard input\u000aoutputstandard output\u000aYou are given array consisting of n integers. Your task is to find the maximum length of an increasing subarray of the given array.\u000aA subarray is the sequence of consecutive elements of the array. Subarray is called increasing if each element of this subarray strictly greater than previous.\u000aInput\u000aThe first line contains single positive integer n (1\u2009\u2264\u2009n\u2009\u2264\u2009105) \u2014 the number of integers.\u000aThe second line contains n positive integers a1,\u2009a2,\u2009...,\u2009an (1\u2009\u2264\u2009ai\u2009\u2264\u2009109).\u000aOutput\u000aPrint the maximum length of an increasing subarray of the given array.\u000aExamples\u000ainput\u000a5\u000a1 7 2 11 15\u000aoutput\u000a3\u000ainput\u000a6\u000a100 100 100 100 100 100\u000aoutput\u000a1\u000ainput\u000a3\u000a1 2 3\u000aoutput\u000a3
p5
sS'name'
p6
VA. Maximum Increase
p7
sS'tags'
p8
Vdp greedy implementation 
p9
sS'url'
p10
Vhttp://codeforces.com/problemset/problem/702/A
p11
sS'memorylimit'
p12
V256 megabytes
p13
sS'timelimit'
p14
V1 second
p15
sS'problemId'
p16
V702/A
p17
sS'id'
p18
c__builtin__
id
p19
sb.