(iCodeforcesProblem
CodeforcesProblem
p0
(dp1
S'desription'
p2
VA. Memory and Crow\u000atime limit per test2 seconds\u000amemory limit per test256 megabytes\u000ainputstandard input\u000aoutputstandard output\u000aThere are n integers b1,\u2009b2,\u2009...,\u2009bn written in a row. For all i from 1 to n, values ai are defined by the crows performing the following procedure:\u000aThe crow sets ai initially 0.\u000aThe crow then adds bi to ai, subtracts bi\u2009+\u20091, adds the bi\u2009+\u20092 number, and so on until the n'th number. Thus, ai\u2009=\u2009bi\u2009-\u2009bi\u2009+\u20091\u2009+\u2009bi\u2009+\u20092\u2009-\u2009bi\u2009+\u20093....\u000aMemory gives you the values a1,\u2009a2,\u2009...,\u2009an, and he now wants you to find the initial numbers b1,\u2009b2,\u2009...,\u2009bn written in the row? Can you do it?\u000aInput\u000aThe first line of the input contains a single integer n (2\u2009\u2264\u2009n\u2009\u2264\u2009100\u2009000) \u2014 the number of integers written in the row.\u000aThe next line contains n, the i'th of which is ai (\u2009-\u2009109\u2009\u2264\u2009ai\u2009\u2264\u2009109) \u2014 the value of the i'th number.\u000aOutput\u000aPrint n integers corresponding to the sequence b1,\u2009b2,\u2009...,\u2009bn. It's guaranteed that the answer is unique and fits in 32-bit integer type.\u000aExamples\u000ainput\u000a5\u000a6 -4 8 -2 3\u000aoutput\u000a2 4 6 1 3 \u000ainput\u000a5\u000a3 -2 -1 5 6\u000aoutput\u000a1 -3 4 11 6 \u000aNote\u000aIn the first sample test, the crows report the numbers 6,\u2009-\u20094, 8,\u2009-\u20092, and 3 when he starts at indices 1, 2, 3, 4 and 5 respectively. It is easy to check that the sequence 2 4 6 1 3 satisfies the reports. For example, 6\u2009=\u20092\u2009-\u20094\u2009+\u20096\u2009-\u20091\u2009+\u20093, and \u2009-\u20094\u2009=\u20094\u2009-\u20096\u2009+\u20091\u2009-\u20093.\u000aIn the second sample test, the sequence 1, \u2009-\u20093, 4, 11, 6 satisfies the reports. For example, 5\u2009=\u200911\u2009-\u20096 and 6\u2009=\u20096.
p3
sS'problemStatement'
p4
VA. Memory and Crow\u000atime limit per test2 seconds\u000amemory limit per test256 megabytes\u000ainputstandard input\u000aoutputstandard output\u000aThere are n integers b1,\u2009b2,\u2009...,\u2009bn written in a row. For all i from 1 to n, values ai are defined by the crows performing the following procedure:\u000aThe crow sets ai initially 0.\u000aThe crow then adds bi to ai, subtracts bi\u2009+\u20091, adds the bi\u2009+\u20092 number, and so on until the n'th number. Thus, ai\u2009=\u2009bi\u2009-\u2009bi\u2009+\u20091\u2009+\u2009bi\u2009+\u20092\u2009-\u2009bi\u2009+\u20093....\u000aMemory gives you the values a1,\u2009a2,\u2009...,\u2009an, and he now wants you to find the initial numbers b1,\u2009b2,\u2009...,\u2009bn written in the row? Can you do it?\u000aInput\u000aThe first line of the input contains a single integer n (2\u2009\u2264\u2009n\u2009\u2264\u2009100\u2009000) \u2014 the number of integers written in the row.\u000aThe next line contains n, the i'th of which is ai (\u2009-\u2009109\u2009\u2264\u2009ai\u2009\u2264\u2009109) \u2014 the value of the i'th number.\u000aOutput\u000aPrint n integers corresponding to the sequence b1,\u2009b2,\u2009...,\u2009bn. It's guaranteed that the answer is unique and fits in 32-bit integer type.\u000aExamples\u000ainput\u000a5\u000a6 -4 8 -2 3\u000aoutput\u000a2 4 6 1 3 \u000ainput\u000a5\u000a3 -2 -1 5 6\u000aoutput\u000a1 -3 4 11 6 \u000aNote\u000aIn the first sample test, the crows report the numbers 6,\u2009-\u20094, 8,\u2009-\u20092, and 3 when he starts at indices 1, 2, 3, 4 and 5 respectively. It is easy to check that the sequence 2 4 6 1 3 satisfies the reports. For example, 6\u2009=\u20092\u2009-\u20094\u2009+\u20096\u2009-\u20091\u2009+\u20093, and \u2009-\u20094\u2009=\u20094\u2009-\u20096\u2009+\u20091\u2009-\u20093.\u000aIn the second sample test, the sequence 1, \u2009-\u20093, 4, 11, 6 satisfies the reports. For example, 5\u2009=\u200911\u2009-\u20096 and 6\u2009=\u20096.
p5
sS'name'
p6
VA. Memory and Crow
p7
sS'tags'
p8
Vimplementation 
p9
sS'url'
p10
Vhttp://codeforces.com/problemset/problem/712/A
p11
sS'memorylimit'
p12
V256 megabytes
p13
sS'timelimit'
p14
V2 seconds
p15
sS'problemId'
p16
V712/A
p17
sS'id'
p18
c__builtin__
id
p19
sb.