(iCodeforcesProblem
CodeforcesProblem
p0
(dp1
S'desription'
p2
VA. Opponents\u000atime limit per test1 second\u000amemory limit per test256 megabytes\u000ainputstandard input\u000aoutputstandard output\u000aArya has n opponents in the school. Each day he will fight with all opponents who are present this day. His opponents have some fighting plan that guarantees they will win, but implementing this plan requires presence of them all. That means if one day at least one of Arya's opponents is absent at the school, then Arya will beat all present opponents. Otherwise, if all opponents are present, then they will beat Arya.\u000aFor each opponent Arya knows his schedule \u2014 whether or not he is going to present on each particular day. Tell him the maximum number of consecutive days that he will beat all present opponents.\u000aNote, that if some day there are no opponents present, Arya still considers he beats all the present opponents.\u000aInput\u000aThe first line of the input contains two integers n and d (1\u2009\u2264\u2009n,\u2009d\u2009\u2264\u2009100) \u2014 the number of opponents and the number of days, respectively.\u000aThe i-th of the following d lines contains a string of length n consisting of characters '0' and '1'. The j-th character of this string is '0' if the j-th opponent is going to be absent on the i-th day.\u000aOutput\u000aPrint the only integer \u2014 the maximum number of consecutive days that Arya will beat all present opponents.\u000aExamples\u000ainput\u000a2 2\u000a10\u000a00\u000aoutput\u000a2\u000ainput\u000a4 1\u000a0100\u000aoutput\u000a1\u000ainput\u000a4 5\u000a1101\u000a1111\u000a0110\u000a1011\u000a1111\u000aoutput\u000a2\u000aNote\u000aIn the first and the second samples, Arya will beat all present opponents each of the d days.\u000aIn the third sample, Arya will beat his opponents on days 1, 3 and 4 and his opponents will beat him on days 2 and 5. Thus, the maximum number of consecutive winning days is 2, which happens on days 3 and 4.
p3
sS'problemStatement'
p4
VA. Opponents\u000atime limit per test1 second\u000amemory limit per test256 megabytes\u000ainputstandard input\u000aoutputstandard output\u000aArya has n opponents in the school. Each day he will fight with all opponents who are present this day. His opponents have some fighting plan that guarantees they will win, but implementing this plan requires presence of them all. That means if one day at least one of Arya's opponents is absent at the school, then Arya will beat all present opponents. Otherwise, if all opponents are present, then they will beat Arya.\u000aFor each opponent Arya knows his schedule \u2014 whether or not he is going to present on each particular day. Tell him the maximum number of consecutive days that he will beat all present opponents.\u000aNote, that if some day there are no opponents present, Arya still considers he beats all the present opponents.\u000aInput\u000aThe first line of the input contains two integers n and d (1\u2009\u2264\u2009n,\u2009d\u2009\u2264\u2009100) \u2014 the number of opponents and the number of days, respectively.\u000aThe i-th of the following d lines contains a string of length n consisting of characters '0' and '1'. The j-th character of this string is '0' if the j-th opponent is going to be absent on the i-th day.\u000aOutput\u000aPrint the only integer \u2014 the maximum number of consecutive days that Arya will beat all present opponents.\u000aExamples\u000ainput\u000a2 2\u000a10\u000a00\u000aoutput\u000a2\u000ainput\u000a4 1\u000a0100\u000aoutput\u000a1\u000ainput\u000a4 5\u000a1101\u000a1111\u000a0110\u000a1011\u000a1111\u000aoutput\u000a2\u000aNote\u000aIn the first and the second samples, Arya will beat all present opponents each of the d days.\u000aIn the third sample, Arya will beat his opponents on days 1, 3 and 4 and his opponents will beat him on days 2 and 5. Thus, the maximum number of consecutive winning days is 2, which happens on days 3 and 4.
p5
sS'name'
p6
VA. Opponents
p7
sS'tags'
p8
Vimplementation 
p9
sS'url'
p10
Vhttp://codeforces.com/problemset/problem/688/A
p11
sS'memorylimit'
p12
V256 megabytes
p13
sS'timelimit'
p14
V1 second
p15
sS'problemId'
p16
V688/A
p17
sS'id'
p18
c__builtin__
id
p19
sb.