(iCodeforcesProblem
CodeforcesProblem
p0
(dp1
S'desription'
p2
VA. Summer Camp\u000atime limit per test1 second\u000amemory limit per test256 megabytes\u000ainputstandard input\u000aoutputstandard output\u000aEvery year, hundreds of people come to summer camps, they learn new algorithms and solve hard problems.\u000aThis is your first year at summer camp, and you are asked to solve the following problem. All integers starting with 1 are written in one line. The prefix of these line is "123456789101112131415...". Your task is to print the n-th digit of this string (digits are numbered starting with 1.\u000aInput\u000aThe only line of the input contains a single integer n (1\u2009\u2264\u2009n\u2009\u2264\u20091000) \u2014 the position of the digit you need to print.\u000aOutput\u000aPrint the n-th digit of the line.\u000aExamples\u000ainput\u000a3\u000aoutput\u000a3\u000ainput\u000a11\u000aoutput\u000a0\u000aNote\u000aIn the first sample the digit at position 3 is '3', as both integers 1 and 2 consist on one digit.\u000aIn the second sample, the digit at position 11 is '0', it belongs to the integer 10.
p3
sS'problemStatement'
p4
VA. Summer Camp\u000atime limit per test1 second\u000amemory limit per test256 megabytes\u000ainputstandard input\u000aoutputstandard output\u000aEvery year, hundreds of people come to summer camps, they learn new algorithms and solve hard problems.\u000aThis is your first year at summer camp, and you are asked to solve the following problem. All integers starting with 1 are written in one line. The prefix of these line is "123456789101112131415...". Your task is to print the n-th digit of this string (digits are numbered starting with 1.\u000aInput\u000aThe only line of the input contains a single integer n (1\u2009\u2264\u2009n\u2009\u2264\u20091000) \u2014 the position of the digit you need to print.\u000aOutput\u000aPrint the n-th digit of the line.\u000aExamples\u000ainput\u000a3\u000aoutput\u000a3\u000ainput\u000a11\u000aoutput\u000a0\u000aNote\u000aIn the first sample the digit at position 3 is '3', as both integers 1 and 2 consist on one digit.\u000aIn the second sample, the digit at position 11 is '0', it belongs to the integer 10.
p5
sS'name'
p6
VA. Summer Camp
p7
sS'tags'
p8
Vimplementation 
p9
sS'url'
p10
Vhttp://codeforces.com/problemset/problem/672/A
p11
sS'memorylimit'
p12
V256 megabytes
p13
sS'timelimit'
p14
V1 second
p15
sS'problemId'
p16
V672/A
p17
sS'id'
p18
c__builtin__
id
p19
sb.