(iCodeforcesProblem
CodeforcesProblem
p0
(dp1
S'desription'
p2
VA. Toda 2\u000atime limit per test2 seconds\u000amemory limit per test512 megabytes\u000ainputstandard input\u000aoutputstandard output\u000aA group of n friends enjoys playing popular video game Toda 2. There is a rating system describing skill level of each player, initially the rating of the i-th friend is ri.\u000aThe friends decided to take part in the championship as a team. But they should have equal ratings to be allowed to compose a single team consisting of all n friends. So the friends are faced with the problem: how to make all their ratings equal.\u000aOne way to change ratings is to willingly lose in some matches. Friends can form a party consisting of two to five (but not more than n) friends and play a match in the game. When the party loses, the rating of each of its members decreases by 1. A rating can't become negative, so ri\u2009=\u20090 doesn't change after losing.\u000aThe friends can take part in multiple matches, each time making a party from any subset of friends (but remember about constraints on party size: from 2 to 5 members).\u000aThe friends want to make their ratings equal but as high as possible.\u000aHelp the friends develop a strategy of losing the matches so that all their ratings become equal and the resulting rating is maximum possible.\u000aInput\u000aThe first line contains a single integer n (2\u2009\u2264\u2009n\u2009\u2264\u2009100) \u2014 the number of friends.\u000aThe second line contains n non-negative integers r1,\u2009r2,\u2009...,\u2009rn (0\u2009\u2264\u2009ri\u2009\u2264\u2009100), where ri is the initial rating of the i-th friend.\u000aOutput\u000aIn the first line, print a single integer R \u2014 the final rating of each of the friends.\u000aIn the second line, print integer t \u2014 the number of matches the friends have to play. Each of the following t lines should contain n characters '0' or '1', where the j-th character of the i-th line is equal to:\u000a'0', if friend j should not play in match i,\u000a'1', if friend j should play in match i.\u000aEach line should contain between two and five characters '1', inclusive.\u000aThe value t should not exceed 104, it is guaranteed that such solution exists.\u000aRemember that you shouldn't minimize the value t, but you should maximize R. If there are multiple solutions, print any of them.\u000aExamples\u000ainput\u000a5\u000a4 5 1 7 4\u000aoutput\u000a1\u000a8\u000a01010\u000a00011\u000a01010\u000a10010\u000a00011\u000a11000\u000a00011\u000a11000\u000ainput\u000a2\u000a1 2\u000aoutput\u000a0\u000a2\u000a11\u000a11\u000ainput\u000a3\u000a1 1 1\u000aoutput\u000a1\u000a0
p3
sS'problemStatement'
p4
VA. Toda 2\u000atime limit per test2 seconds\u000amemory limit per test512 megabytes\u000ainputstandard input\u000aoutputstandard output\u000aA group of n friends enjoys playing popular video game Toda 2. There is a rating system describing skill level of each player, initially the rating of the i-th friend is ri.\u000aThe friends decided to take part in the championship as a team. But they should have equal ratings to be allowed to compose a single team consisting of all n friends. So the friends are faced with the problem: how to make all their ratings equal.\u000aOne way to change ratings is to willingly lose in some matches. Friends can form a party consisting of two to five (but not more than n) friends and play a match in the game. When the party loses, the rating of each of its members decreases by 1. A rating can't become negative, so ri\u2009=\u20090 doesn't change after losing.\u000aThe friends can take part in multiple matches, each time making a party from any subset of friends (but remember about constraints on party size: from 2 to 5 members).\u000aThe friends want to make their ratings equal but as high as possible.\u000aHelp the friends develop a strategy of losing the matches so that all their ratings become equal and the resulting rating is maximum possible.\u000aInput\u000aThe first line contains a single integer n (2\u2009\u2264\u2009n\u2009\u2264\u2009100) \u2014 the number of friends.\u000aThe second line contains n non-negative integers r1,\u2009r2,\u2009...,\u2009rn (0\u2009\u2264\u2009ri\u2009\u2264\u2009100), where ri is the initial rating of the i-th friend.\u000aOutput\u000aIn the first line, print a single integer R \u2014 the final rating of each of the friends.\u000aIn the second line, print integer t \u2014 the number of matches the friends have to play. Each of the following t lines should contain n characters '0' or '1', where the j-th character of the i-th line is equal to:\u000a'0', if friend j should not play in match i,\u000a'1', if friend j should play in match i.\u000aEach line should contain between two and five characters '1', inclusive.\u000aThe value t should not exceed 104, it is guaranteed that such solution exists.\u000aRemember that you shouldn't minimize the value t, but you should maximize R. If there are multiple solutions, print any of them.\u000aExamples\u000ainput\u000a5\u000a4 5 1 7 4\u000aoutput\u000a1\u000a8\u000a01010\u000a00011\u000a01010\u000a10010\u000a00011\u000a11000\u000a00011\u000a11000\u000ainput\u000a2\u000a1 2\u000aoutput\u000a0\u000a2\u000a11\u000a11\u000ainput\u000a3\u000a1 1 1\u000aoutput\u000a1\u000a0
p5
sS'name'
p6
VA. Toda 2
p7
sS'tags'
p8
Vgreedy 
p9
sS'url'
p10
Vhttp://codeforces.com/problemset/problem/730/A
p11
sS'memorylimit'
p12
V512 megabytes
p13
sS'timelimit'
p14
V2 seconds
p15
sS'output'
p16
(lp17
VOutput
p18
aVIn the first line, print a single integer R \u2014 the final rating of each of the friends.
p19
aVIn the second line, print integer t \u2014 the number of matches the friends have to play. Each of the following t lines should contain n characters '0' or '1', where the j-th character of the i-th line is equal to:
p20
aV'0', if friend j should not play in match i,
p21
aV'1', if friend j should play in match i.
p22
aVEach line should contain between two and five characters '1', inclusive.
p23
aVThe value t should not exceed 104, it is guaranteed that such solution exists.
p24
aVRemember that you shouldn't minimize the value t, but you should maximize R. If there are multiple solutions, print any of them.
p25
asS'statement'
p26
(lp27
VA. Toda 2
p28
aVtime limit per test2 seconds
p29
aVmemory limit per test512 megabytes
p30
aVinputstandard input
p31
aVoutputstandard output
p32
aVA group of n friends enjoys playing popular video game Toda 2. There is a rating system describing skill level of each player, initially the rating of the i-th friend is ri.
p33
aVThe friends decided to take part in the championship as a team. But they should have equal ratings to be allowed to compose a single team consisting of all n friends. So the friends are faced with the problem: how to make all their ratings equal.
p34
aVOne way to change ratings is to willingly lose in some matches. Friends can form a party consisting of two to five (but not more than n) friends and play a match in the game. When the party loses, the rating of each of its members decreases by 1. A rating can't become negative, so ri\u2009=\u20090 doesn't change after losing.
p35
aVThe friends can take part in multiple matches, each time making a party from any subset of friends (but remember about constraints on party size: from 2 to 5 members).
p36
aVThe friends want to make their ratings equal but as high as possible.
p37
aVHelp the friends develop a strategy of losing the matches so that all their ratings become equal and the resulting rating is maximum possible.
p38
asS'problemId'
p39
V730/A
p40
sS'input'
p41
(lp42
VInput
p43
aVThe first line contains a single integer n (2\u2009\u2264\u2009n\u2009\u2264\u2009100) \u2014 the number of friends.
p44
aVThe second line contains n non-negative integers r1,\u2009r2,\u2009...,\u2009rn (0\u2009\u2264\u2009ri\u2009\u2264\u2009100), where ri is the initial rating of the i-th friend.
p45
asS'id'
p46
c__builtin__
id
p47
sS'constraints'
p48
g42
sb.