(iCodeforcesProblem
CodeforcesProblem
p0
(dp1
S'desription'
p2
VA. Vanya and Fence\u000atime limit per test1 second\u000amemory limit per test256 megabytes\u000ainputstandard input\u000aoutputstandard output\u000aVanya and his friends are walking along the fence of height h and they do not want the guard to notice them. In order to achieve this the height of each of the friends should not exceed h. If the height of some person is greater than h he can bend down and then he surely won't be noticed by the guard. The height of the i-th person is equal to ai.\u000aConsider the width of the person walking as usual to be equal to 1, while the width of the bent person is equal to 2. Friends want to talk to each other while walking, so they would like to walk in a single row. What is the minimum width of the road, such that friends can walk in a row and remain unattended by the guard?\u000aInput\u000aThe first line of the input contains two integers n and h (1\u2009\u2264\u2009n\u2009\u2264\u20091000, 1\u2009\u2264\u2009h\u2009\u2264\u20091000) \u2014 the number of friends and the height of the fence, respectively.\u000aThe second line contains n integers ai (1\u2009\u2264\u2009ai\u2009\u2264\u20092h), the i-th of them is equal to the height of the i-th person.\u000aOutput\u000aPrint a single integer \u2014 the minimum possible valid width of the road.\u000aExamples\u000ainput\u000a3 7\u000a4 5 14\u000aoutput\u000a4\u000ainput\u000a6 1\u000a1 1 1 1 1 1\u000aoutput\u000a6\u000ainput\u000a6 5\u000a7 6 8 9 10 5\u000aoutput\u000a11\u000aNote\u000aIn the first sample, only person number 3 must bend down, so the required width is equal to 1\u2009+\u20091\u2009+\u20092\u2009=\u20094.\u000aIn the second sample, all friends are short enough and no one has to bend, so the width 1\u2009+\u20091\u2009+\u20091\u2009+\u20091\u2009+\u20091\u2009+\u20091\u2009=\u20096 is enough.\u000aIn the third sample, all the persons have to bend, except the last one. The required minimum width of the road is equal to 2\u2009+\u20092\u2009+\u20092\u2009+\u20092\u2009+\u20092\u2009+\u20091\u2009=\u200911.
p3
sS'problemStatement'
p4
VA. Vanya and Fence\u000atime limit per test1 second\u000amemory limit per test256 megabytes\u000ainputstandard input\u000aoutputstandard output\u000aVanya and his friends are walking along the fence of height h and they do not want the guard to notice them. In order to achieve this the height of each of the friends should not exceed h. If the height of some person is greater than h he can bend down and then he surely won't be noticed by the guard. The height of the i-th person is equal to ai.\u000aConsider the width of the person walking as usual to be equal to 1, while the width of the bent person is equal to 2. Friends want to talk to each other while walking, so they would like to walk in a single row. What is the minimum width of the road, such that friends can walk in a row and remain unattended by the guard?\u000aInput\u000aThe first line of the input contains two integers n and h (1\u2009\u2264\u2009n\u2009\u2264\u20091000, 1\u2009\u2264\u2009h\u2009\u2264\u20091000) \u2014 the number of friends and the height of the fence, respectively.\u000aThe second line contains n integers ai (1\u2009\u2264\u2009ai\u2009\u2264\u20092h), the i-th of them is equal to the height of the i-th person.\u000aOutput\u000aPrint a single integer \u2014 the minimum possible valid width of the road.\u000aExamples\u000ainput\u000a3 7\u000a4 5 14\u000aoutput\u000a4\u000ainput\u000a6 1\u000a1 1 1 1 1 1\u000aoutput\u000a6\u000ainput\u000a6 5\u000a7 6 8 9 10 5\u000aoutput\u000a11\u000aNote\u000aIn the first sample, only person number 3 must bend down, so the required width is equal to 1\u2009+\u20091\u2009+\u20092\u2009=\u20094.\u000aIn the second sample, all friends are short enough and no one has to bend, so the width 1\u2009+\u20091\u2009+\u20091\u2009+\u20091\u2009+\u20091\u2009+\u20091\u2009=\u20096 is enough.\u000aIn the third sample, all the persons have to bend, except the last one. The required minimum width of the road is equal to 2\u2009+\u20092\u2009+\u20092\u2009+\u20092\u2009+\u20092\u2009+\u20091\u2009=\u200911.
p5
sS'name'
p6
VA. Vanya and Fence
p7
sS'tags'
p8
Vimplementation 
p9
sS'url'
p10
Vhttp://codeforces.com/problemset/problem/677/A
p11
sS'memorylimit'
p12
V256 megabytes
p13
sS'timelimit'
p14
V1 second
p15
sS'problemId'
p16
V677/A
p17
sS'id'
p18
c__builtin__
id
p19
sb.