(iCodeforcesProblem
CodeforcesProblem
p0
(dp1
S'desription'
p2
VA. Vacations\u000atime limit per test1 second\u000amemory limit per test256 megabytes\u000ainputstandard input\u000aoutputstandard output\u000aVasya has n days of vacations! So he decided to improve his IT skills and do sport. Vasya knows the following information about each of this n days: whether that gym opened and whether a contest was carried out in the Internet on that day. For the i-th day there are four options:\u000aon this day the gym is closed and the contest is not carried out;\u000aon this day the gym is closed and the contest is carried out;\u000aon this day the gym is open and the contest is not carried out;\u000aon this day the gym is open and the contest is carried out.\u000aOn each of days Vasya can either have a rest or write the contest (if it is carried out on this day), or do sport (if the gym is open on this day).\u000aFind the minimum number of days on which Vasya will have a rest (it means, he will not do sport and write the contest at the same time). The only limitation that Vasya has \u2014 he does not want to do the same activity on two consecutive days: it means, he will not do sport on two consecutive days, and write the contest on two consecutive days.\u000aInput\u000aThe first line contains a positive integer n (1\u2009\u2264\u2009n\u2009\u2264\u2009100) \u2014 the number of days of Vasya's vacations.\u000aThe second line contains the sequence of integers a1,\u2009a2,\u2009...,\u2009an (0\u2009\u2264\u2009ai\u2009\u2264\u20093) separated by space, where:\u000aai equals 0, if on the i-th day of vacations the gym is closed and the contest is not carried out;\u000aai equals 1, if on the i-th day of vacations the gym is closed, but the contest is carried out;\u000aai equals 2, if on the i-th day of vacations the gym is open and the contest is not carried out;\u000aai equals 3, if on the i-th day of vacations the gym is open and the contest is carried out.\u000aOutput\u000aPrint the minimum possible number of days on which Vasya will have a rest. Remember that Vasya refuses:\u000ato do sport on any two consecutive days,\u000ato write the contest on any two consecutive days.\u000aExamples\u000ainput\u000a4\u000a1 3 2 0\u000aoutput\u000a2\u000ainput\u000a7\u000a1 3 3 2 1 2 3\u000aoutput\u000a0\u000ainput\u000a2\u000a2 2\u000aoutput\u000a1\u000aNote\u000aIn the first test Vasya can write the contest on the day number 1 and do sport on the day number 3. Thus, he will have a rest for only 2 days.\u000aIn the second test Vasya should write contests on days number 1, 3, 5 and 7, in other days do sport. Thus, he will not have a rest for a single day.\u000aIn the third test Vasya can do sport either on a day number 1 or number 2. He can not do sport in two days, because it will be contrary to the his limitation. Thus, he will have a rest for only one day.
p3
sS'problemStatement'
p4
VA. Vacations\u000atime limit per test1 second\u000amemory limit per test256 megabytes\u000ainputstandard input\u000aoutputstandard output\u000aVasya has n days of vacations! So he decided to improve his IT skills and do sport. Vasya knows the following information about each of this n days: whether that gym opened and whether a contest was carried out in the Internet on that day. For the i-th day there are four options:\u000aon this day the gym is closed and the contest is not carried out;\u000aon this day the gym is closed and the contest is carried out;\u000aon this day the gym is open and the contest is not carried out;\u000aon this day the gym is open and the contest is carried out.\u000aOn each of days Vasya can either have a rest or write the contest (if it is carried out on this day), or do sport (if the gym is open on this day).\u000aFind the minimum number of days on which Vasya will have a rest (it means, he will not do sport and write the contest at the same time). The only limitation that Vasya has \u2014 he does not want to do the same activity on two consecutive days: it means, he will not do sport on two consecutive days, and write the contest on two consecutive days.\u000aInput\u000aThe first line contains a positive integer n (1\u2009\u2264\u2009n\u2009\u2264\u2009100) \u2014 the number of days of Vasya's vacations.\u000aThe second line contains the sequence of integers a1,\u2009a2,\u2009...,\u2009an (0\u2009\u2264\u2009ai\u2009\u2264\u20093) separated by space, where:\u000aai equals 0, if on the i-th day of vacations the gym is closed and the contest is not carried out;\u000aai equals 1, if on the i-th day of vacations the gym is closed, but the contest is carried out;\u000aai equals 2, if on the i-th day of vacations the gym is open and the contest is not carried out;\u000aai equals 3, if on the i-th day of vacations the gym is open and the contest is carried out.\u000aOutput\u000aPrint the minimum possible number of days on which Vasya will have a rest. Remember that Vasya refuses:\u000ato do sport on any two consecutive days,\u000ato write the contest on any two consecutive days.\u000aExamples\u000ainput\u000a4\u000a1 3 2 0\u000aoutput\u000a2\u000ainput\u000a7\u000a1 3 3 2 1 2 3\u000aoutput\u000a0\u000ainput\u000a2\u000a2 2\u000aoutput\u000a1\u000aNote\u000aIn the first test Vasya can write the contest on the day number 1 and do sport on the day number 3. Thus, he will have a rest for only 2 days.\u000aIn the second test Vasya should write contests on days number 1, 3, 5 and 7, in other days do sport. Thus, he will not have a rest for a single day.\u000aIn the third test Vasya can do sport either on a day number 1 or number 2. He can not do sport in two days, because it will be contrary to the his limitation. Thus, he will have a rest for only one day.
p5
sS'name'
p6
VA. Vacations
p7
sS'tags'
p8
Vdp 
p9
sS'url'
p10
Vhttp://codeforces.com/problemset/problem/698/A
p11
sS'memorylimit'
p12
V256 megabytes
p13
sS'timelimit'
p14
V1 second
p15
sS'problemId'
p16
V698/A
p17
sS'id'
p18
c__builtin__
id
p19
sb.