(iCodeforcesProblem
CodeforcesProblem
p0
(dp1
S'desription'
p2
VA2. Collective Mindsets (medium)\u000atime limit per test1 second\u000amemory limit per test256 megabytes\u000ainputstandard input\u000aoutputstandard output\u000aWay to go! Heidi now knows how many brains there must be for her to get one. But throwing herself in the midst of a clutch of hungry zombies is quite a risky endeavor. Hence Heidi wonders: what is the smallest number of brains that must be in the chest for her to get out at all (possibly empty-handed, but alive)?\u000aThe brain dinner night will evolve just as in the previous subtask: the same crowd is present, the N\u2009-\u20091 zombies have the exact same mindset as before and Heidi is to make the first proposal, which must be accepted by at least half of the attendees for her to survive.\u000aInput\u000aThe only line of input contains one integer: N, the number of attendees (1\u2009\u2264\u2009N\u2009\u2264\u2009109).\u000aOutput\u000aOutput one integer: the smallest number of brains in the chest which allows Heidi to merely survive.\u000aExamples\u000ainput\u000a1\u000aoutput\u000a0\u000ainput\u000a3\u000aoutput\u000a1\u000ainput\u000a99\u000aoutput\u000a49
p3
sS'problemStatement'
p4
VA2. Collective Mindsets (medium)\u000atime limit per test1 second\u000amemory limit per test256 megabytes\u000ainputstandard input\u000aoutputstandard output\u000aWay to go! Heidi now knows how many brains there must be for her to get one. But throwing herself in the midst of a clutch of hungry zombies is quite a risky endeavor. Hence Heidi wonders: what is the smallest number of brains that must be in the chest for her to get out at all (possibly empty-handed, but alive)?\u000aThe brain dinner night will evolve just as in the previous subtask: the same crowd is present, the N\u2009-\u20091 zombies have the exact same mindset as before and Heidi is to make the first proposal, which must be accepted by at least half of the attendees for her to survive.\u000aInput\u000aThe only line of input contains one integer: N, the number of attendees (1\u2009\u2264\u2009N\u2009\u2264\u2009109).\u000aOutput\u000aOutput one integer: the smallest number of brains in the chest which allows Heidi to merely survive.\u000aExamples\u000ainput\u000a1\u000aoutput\u000a0\u000ainput\u000a3\u000aoutput\u000a1\u000ainput\u000a99\u000aoutput\u000a49
p5
sS'name'
p6
VA2. Collective Mindsets (medium)
p7
sS'tags'
p8
S''
p9
sS'url'
p10
Vhttp://codeforces.com/problemset/problem/690/A2
p11
sS'memorylimit'
p12
V256 megabytes
p13
sS'timelimit'
p14
V1 second
p15
sS'problemId'
p16
V690/A2
p17
sS'id'
p18
c__builtin__
id
p19
sb.