(iCodeforcesProblem
CodeforcesProblem
p0
(dp1
S'desription'
p2
VA3. Collective Mindsets (hard)\u000atime limit per test4 seconds\u000amemory limit per test256 megabytes\u000ainputstandard input\u000aoutputstandard output\u000aHeidi got one brain, thumbs up! But the evening isn't over yet and one more challenge awaits our dauntless agent: after dinner, at precisely midnight, the N attendees love to play a very risky game...\u000aEvery zombie gets a number ni (1\u2009\u2264\u2009ni\u2009\u2264\u2009N) written on his forehead. Although no zombie can see his own number, he can see the numbers written on the foreheads of all N\u2009-\u20091 fellows. Note that not all numbers have to be unique (they can even all be the same). From this point on, no more communication between zombies is allowed. Observation is the only key to success. When the cuckoo clock strikes midnight, all attendees have to simultaneously guess the number on their own forehead. If at least one of them guesses his number correctly, all zombies survive and go home happily. On the other hand, if not a single attendee manages to guess his number correctly, all of them are doomed to die!\u000aZombies aren't very bright creatures though, and Heidi has to act fast if she does not want to jeopardize her life. She has one single option: by performing some quick surgery on the brain she managed to get from the chest, she has the ability to remotely reprogram the decision-making strategy of all attendees for their upcoming midnight game! Can you suggest a sound strategy to Heidi which, given the rules of the game, ensures that at least one attendee will guess his own number correctly, for any possible sequence of numbers on the foreheads?\u000aGiven a zombie's rank R and the N\u2009-\u20091 numbers ni on the other attendees' foreheads, your program will have to return the number that the zombie of rank R shall guess. Those answers define your strategy, and we will check if it is flawless or not.\u000aInput\u000aThe first line of input contains a single integer T (1\u2009\u2264\u2009T\u2009\u2264\u200950000): the number of scenarios for which you have to make a guess.\u000aThe T scenarios follow, described on two lines each:\u000aThe first line holds two integers, N (2\u2009\u2264\u2009N\u2009\u2264\u20096), the number of attendees, and R (1\u2009\u2264\u2009R\u2009\u2264\u2009N), the rank of the zombie who has to make the guess.\u000aThe second line lists N\u2009-\u20091 integers: the numbers on the foreheads of all other attendees, listed in increasing order of the attendees' rank. (Every zombie knows the rank of every other zombie.)\u000aOutput\u000aFor every scenario, output a single integer: the number that the zombie of rank R shall guess, based on the numbers ni on his N\u2009-\u20091 fellows' foreheads.\u000aExamples\u000ainput\u000a4\u000a2 1\u000a1\u000a2 2\u000a1\u000a2 1\u000a2\u000a2 2\u000a2\u000aoutput\u000a1\u000a2\u000a2\u000a1\u000ainput\u000a2\u000a5 2\u000a2 2 2 2\u000a6 4\u000a3 2 6 1 2\u000aoutput\u000a5\u000a2\u000aNote\u000aFor instance, if there were N\u2009=\u20092 two attendees, a successful strategy could be:\u000aThe zombie of rank 1 always guesses the number he sees on the forehead of the zombie of rank 2.\u000aThe zombie of rank 2 always guesses the opposite of the number he sees on the forehead of the zombie of rank 1.
p3
sS'problemStatement'
p4
VA3. Collective Mindsets (hard)\u000atime limit per test4 seconds\u000amemory limit per test256 megabytes\u000ainputstandard input\u000aoutputstandard output\u000aHeidi got one brain, thumbs up! But the evening isn't over yet and one more challenge awaits our dauntless agent: after dinner, at precisely midnight, the N attendees love to play a very risky game...\u000aEvery zombie gets a number ni (1\u2009\u2264\u2009ni\u2009\u2264\u2009N) written on his forehead. Although no zombie can see his own number, he can see the numbers written on the foreheads of all N\u2009-\u20091 fellows. Note that not all numbers have to be unique (they can even all be the same). From this point on, no more communication between zombies is allowed. Observation is the only key to success. When the cuckoo clock strikes midnight, all attendees have to simultaneously guess the number on their own forehead. If at least one of them guesses his number correctly, all zombies survive and go home happily. On the other hand, if not a single attendee manages to guess his number correctly, all of them are doomed to die!\u000aZombies aren't very bright creatures though, and Heidi has to act fast if she does not want to jeopardize her life. She has one single option: by performing some quick surgery on the brain she managed to get from the chest, she has the ability to remotely reprogram the decision-making strategy of all attendees for their upcoming midnight game! Can you suggest a sound strategy to Heidi which, given the rules of the game, ensures that at least one attendee will guess his own number correctly, for any possible sequence of numbers on the foreheads?\u000aGiven a zombie's rank R and the N\u2009-\u20091 numbers ni on the other attendees' foreheads, your program will have to return the number that the zombie of rank R shall guess. Those answers define your strategy, and we will check if it is flawless or not.\u000aInput\u000aThe first line of input contains a single integer T (1\u2009\u2264\u2009T\u2009\u2264\u200950000): the number of scenarios for which you have to make a guess.\u000aThe T scenarios follow, described on two lines each:\u000aThe first line holds two integers, N (2\u2009\u2264\u2009N\u2009\u2264\u20096), the number of attendees, and R (1\u2009\u2264\u2009R\u2009\u2264\u2009N), the rank of the zombie who has to make the guess.\u000aThe second line lists N\u2009-\u20091 integers: the numbers on the foreheads of all other attendees, listed in increasing order of the attendees' rank. (Every zombie knows the rank of every other zombie.)\u000aOutput\u000aFor every scenario, output a single integer: the number that the zombie of rank R shall guess, based on the numbers ni on his N\u2009-\u20091 fellows' foreheads.\u000aExamples\u000ainput\u000a4\u000a2 1\u000a1\u000a2 2\u000a1\u000a2 1\u000a2\u000a2 2\u000a2\u000aoutput\u000a1\u000a2\u000a2\u000a1\u000ainput\u000a2\u000a5 2\u000a2 2 2 2\u000a6 4\u000a3 2 6 1 2\u000aoutput\u000a5\u000a2\u000aNote\u000aFor instance, if there were N\u2009=\u20092 two attendees, a successful strategy could be:\u000aThe zombie of rank 1 always guesses the number he sees on the forehead of the zombie of rank 2.\u000aThe zombie of rank 2 always guesses the opposite of the number he sees on the forehead of the zombie of rank 1.
p5
sS'name'
p6
VA3. Collective Mindsets (hard)
p7
sS'tags'
p8
S''
p9
sS'url'
p10
Vhttp://codeforces.com/problemset/problem/690/A3
p11
sS'memorylimit'
p12
V256 megabytes
p13
sS'timelimit'
p14
V4 seconds
p15
sS'problemId'
p16
V690/A3
p17
sS'id'
p18
c__builtin__
id
p19
sb.