(iCodeforcesProblem
CodeforcesProblem
p0
(dp1
S'desription'
p2
VB. Arpa's weak amphitheater and Mehrdad's valuable Hoses\u000atime limit per test1 second\u000amemory limit per test256 megabytes\u000ainputstandard input\u000aoutputstandard output\u000aJust to remind, girls in Arpa's land are really nice.\u000aMehrdad wants to invite some Hoses to the palace for a dancing party. Each Hos has some weight wi and some beauty bi. Also each Hos may have some friends. Hoses are divided in some friendship groups. Two Hoses x and y are in the same friendship group if and only if there is a sequence of Hoses a1,\u2009a2,\u2009...,\u2009ak such that ai and ai\u2009+\u20091 are friends for each 1\u2009\u2264\u2009i\u2009<\u2009k, and a1\u2009=\u2009x and ak\u2009=\u2009y.\u000aArpa allowed to use the amphitheater of palace to Mehrdad for this party. Arpa's amphitheater can hold at most w weight on it.\u000aMehrdad is so greedy that he wants to invite some Hoses such that sum of their weights is not greater than w and sum of their beauties is as large as possible. Along with that, from each friendship group he can either invite all Hoses, or no more than one. Otherwise, some Hoses will be hurt. Find for Mehrdad the maximum possible total beauty of Hoses he can invite so that no one gets hurt and the total weight doesn't exceed w.\u000aInput\u000aThe first line contains integers n, m and w (1\u2009\u2009\u2264\u2009\u2009n\u2009\u2009\u2264\u2009\u20091000, , 1\u2009\u2264\u2009w\u2009\u2264\u20091000) \u2014 the number of Hoses, the number of pair of friends and the maximum total weight of those who are invited.\u000aThe second line contains n integers w1,\u2009w2,\u2009...,\u2009wn (1\u2009\u2264\u2009wi\u2009\u2264\u20091000) \u2014 the weights of the Hoses.\u000aThe third line contains n integers b1,\u2009b2,\u2009...,\u2009bn (1\u2009\u2264\u2009bi\u2009\u2264\u2009106) \u2014 the beauties of the Hoses.\u000aThe next m lines contain pairs of friends, the i-th of them contains two integers xi and yi (1\u2009\u2264\u2009xi,\u2009yi\u2009\u2264\u2009n, xi\u2009\u2260\u2009yi), meaning that Hoses xi and yi are friends. Note that friendship is bidirectional. All pairs (xi,\u2009yi) are distinct.\u000aOutput\u000aPrint the maximum possible total beauty of Hoses Mehrdad can invite so that no one gets hurt and the total weight doesn't exceed w.\u000aExamples\u000ainput\u000a3 1 5\u000a3 2 5\u000a2 4 2\u000a1 2\u000aoutput\u000a6\u000ainput\u000a4 2 11\u000a2 4 6 6\u000a6 4 2 1\u000a1 2\u000a2 3\u000aoutput\u000a7\u000aNote\u000aIn the first sample there are two friendship groups: Hoses {1,\u20092} and Hos {3}. The best way is to choose all of Hoses in the first group, sum of their weights is equal to 5 and sum of their beauty is 6.\u000aIn the second sample there are two friendship groups: Hoses {1,\u20092,\u20093} and Hos {4}. Mehrdad can't invite all the Hoses from the first group because their total weight is 12\u2009>\u200911, thus the best way is to choose the first Hos from the first group and the only one from the second group. The total weight will be 8, and the total beauty will be 7.
p3
sS'problemStatement'
p4
VB. Arpa's weak amphitheater and Mehrdad's valuable Hoses\u000atime limit per test1 second\u000amemory limit per test256 megabytes\u000ainputstandard input\u000aoutputstandard output\u000aJust to remind, girls in Arpa's land are really nice.\u000aMehrdad wants to invite some Hoses to the palace for a dancing party. Each Hos has some weight wi and some beauty bi. Also each Hos may have some friends. Hoses are divided in some friendship groups. Two Hoses x and y are in the same friendship group if and only if there is a sequence of Hoses a1,\u2009a2,\u2009...,\u2009ak such that ai and ai\u2009+\u20091 are friends for each 1\u2009\u2264\u2009i\u2009<\u2009k, and a1\u2009=\u2009x and ak\u2009=\u2009y.\u000aArpa allowed to use the amphitheater of palace to Mehrdad for this party. Arpa's amphitheater can hold at most w weight on it.\u000aMehrdad is so greedy that he wants to invite some Hoses such that sum of their weights is not greater than w and sum of their beauties is as large as possible. Along with that, from each friendship group he can either invite all Hoses, or no more than one. Otherwise, some Hoses will be hurt. Find for Mehrdad the maximum possible total beauty of Hoses he can invite so that no one gets hurt and the total weight doesn't exceed w.\u000aInput\u000aThe first line contains integers n, m and w (1\u2009\u2009\u2264\u2009\u2009n\u2009\u2009\u2264\u2009\u20091000, , 1\u2009\u2264\u2009w\u2009\u2264\u20091000) \u2014 the number of Hoses, the number of pair of friends and the maximum total weight of those who are invited.\u000aThe second line contains n integers w1,\u2009w2,\u2009...,\u2009wn (1\u2009\u2264\u2009wi\u2009\u2264\u20091000) \u2014 the weights of the Hoses.\u000aThe third line contains n integers b1,\u2009b2,\u2009...,\u2009bn (1\u2009\u2264\u2009bi\u2009\u2264\u2009106) \u2014 the beauties of the Hoses.\u000aThe next m lines contain pairs of friends, the i-th of them contains two integers xi and yi (1\u2009\u2264\u2009xi,\u2009yi\u2009\u2264\u2009n, xi\u2009\u2260\u2009yi), meaning that Hoses xi and yi are friends. Note that friendship is bidirectional. All pairs (xi,\u2009yi) are distinct.\u000aOutput\u000aPrint the maximum possible total beauty of Hoses Mehrdad can invite so that no one gets hurt and the total weight doesn't exceed w.\u000aExamples\u000ainput\u000a3 1 5\u000a3 2 5\u000a2 4 2\u000a1 2\u000aoutput\u000a6\u000ainput\u000a4 2 11\u000a2 4 6 6\u000a6 4 2 1\u000a1 2\u000a2 3\u000aoutput\u000a7\u000aNote\u000aIn the first sample there are two friendship groups: Hoses {1,\u20092} and Hos {3}. The best way is to choose all of Hoses in the first group, sum of their weights is equal to 5 and sum of their beauty is 6.\u000aIn the second sample there are two friendship groups: Hoses {1,\u20092,\u20093} and Hos {4}. Mehrdad can't invite all the Hoses from the first group because their total weight is 12\u2009>\u200911, thus the best way is to choose the first Hos from the first group and the only one from the second group. The total weight will be 8, and the total beauty will be 7.
p5
sS'name'
p6
VB. Arpa's weak amphitheater and Mehrdad's valuable Hoses
p7
sS'tags'
p8
Vdfs and similar dp dsu 
p9
sS'url'
p10
Vhttp://codeforces.com/problemset/problem/741/B
p11
sS'memorylimit'
p12
V256 megabytes
p13
sS'timelimit'
p14
V1 second
p15
sS'problemId'
p16
V741/B
p17
sS'id'
p18
c__builtin__
id
p19
sb.