(iCodeforcesProblem
CodeforcesProblem
p0
(dp1
S'desription'
p2
VB. Bill Total Value\u000atime limit per test1 second\u000amemory limit per test256 megabytes\u000ainputstandard input\u000aoutputstandard output\u000aVasily exited from a store and now he wants to recheck the total price of all purchases in his bill. The bill is a string in which the names of the purchases and their prices are printed in a row without any spaces. Check has the format "name1price1name2price2...namenpricen", where namei (name of the i-th purchase) is a non-empty string of length not more than 10, consisting of lowercase English letters, and pricei (the price of the i-th purchase) is a non-empty string, consisting of digits and dots (decimal points). It is possible that purchases with equal names have different prices.\u000aThe price of each purchase is written in the following format. If the price is an integer number of dollars then cents are not written.\u000aOtherwise, after the number of dollars a dot (decimal point) is written followed by cents in a two-digit format (if number of cents is between 1 and 9 inclusively, there is a leading zero).\u000aAlso, every three digits (from less significant to the most) in dollars are separated by dot (decimal point). No extra leading zeroes are allowed. The price always starts with a digit and ends with a digit.\u000aFor example:\u000a"234", "1.544", "149.431.10", "0.99" and "123.05" are valid prices,\u000a".333", "3.33.11", "12.00", ".33", "0.1234" and "1.2" are not valid.\u000aWrite a program that will find the total price of all purchases in the given bill.\u000aInput\u000aThe only line of the input contains a non-empty string s with length not greater than 1000 \u2014 the content of the bill.\u000aIt is guaranteed that the bill meets the format described above. It is guaranteed that each price in the bill is not less than one cent and not greater than 106 dollars.\u000aOutput\u000aPrint the total price exactly in the same format as prices given in the input.\u000aExamples\u000ainput\u000achipsy48.32televizor12.390\u000aoutput\u000a12.438.32\u000ainput\u000aa1b2c3.38\u000aoutput\u000a6.38\u000ainput\u000aaa0.01t0.03\u000aoutput\u000a0.04
p3
sS'problemStatement'
p4
VB. Bill Total Value\u000atime limit per test1 second\u000amemory limit per test256 megabytes\u000ainputstandard input\u000aoutputstandard output\u000aVasily exited from a store and now he wants to recheck the total price of all purchases in his bill. The bill is a string in which the names of the purchases and their prices are printed in a row without any spaces. Check has the format "name1price1name2price2...namenpricen", where namei (name of the i-th purchase) is a non-empty string of length not more than 10, consisting of lowercase English letters, and pricei (the price of the i-th purchase) is a non-empty string, consisting of digits and dots (decimal points). It is possible that purchases with equal names have different prices.\u000aThe price of each purchase is written in the following format. If the price is an integer number of dollars then cents are not written.\u000aOtherwise, after the number of dollars a dot (decimal point) is written followed by cents in a two-digit format (if number of cents is between 1 and 9 inclusively, there is a leading zero).\u000aAlso, every three digits (from less significant to the most) in dollars are separated by dot (decimal point). No extra leading zeroes are allowed. The price always starts with a digit and ends with a digit.\u000aFor example:\u000a"234", "1.544", "149.431.10", "0.99" and "123.05" are valid prices,\u000a".333", "3.33.11", "12.00", ".33", "0.1234" and "1.2" are not valid.\u000aWrite a program that will find the total price of all purchases in the given bill.\u000aInput\u000aThe only line of the input contains a non-empty string s with length not greater than 1000 \u2014 the content of the bill.\u000aIt is guaranteed that the bill meets the format described above. It is guaranteed that each price in the bill is not less than one cent and not greater than 106 dollars.\u000aOutput\u000aPrint the total price exactly in the same format as prices given in the input.\u000aExamples\u000ainput\u000achipsy48.32televizor12.390\u000aoutput\u000a12.438.32\u000ainput\u000aa1b2c3.38\u000aoutput\u000a6.38\u000ainput\u000aaa0.01t0.03\u000aoutput\u000a0.04
p5
sS'name'
p6
VB. Bill Total Value
p7
sS'tags'
p8
Vexpression parsing implementation 
p9
sS'url'
p10
Vhttp://codeforces.com/problemset/problem/727/B
p11
sS'memorylimit'
p12
V256 megabytes
p13
sS'timelimit'
p14
V1 second
p15
sS'output'
p16
(lp17
VOutput
p18
aVPrint the total price exactly in the same format as prices given in the input.
p19
asS'statement'
p20
(lp21
VB. Bill Total Value
p22
aVtime limit per test1 second
p23
aVmemory limit per test256 megabytes
p24
aVinputstandard input
p25
aVoutputstandard output
p26
aVVasily exited from a store and now he wants to recheck the total price of all purchases in his bill. The bill is a string in which the names of the purchases and their prices are printed in a row without any spaces. Check has the format "name1price1name2price2...namenpricen", where namei (name of the i-th purchase) is a non-empty string of length not more than 10, consisting of lowercase English letters, and pricei (the price of the i-th purchase) is a non-empty string, consisting of digits and dots (decimal points). It is possible that purchases with equal names have different prices.
p27
aVThe price of each purchase is written in the following format. If the price is an integer number of dollars then cents are not written.
p28
aVOtherwise, after the number of dollars a dot (decimal point) is written followed by cents in a two-digit format (if number of cents is between 1 and 9 inclusively, there is a leading zero).
p29
aVAlso, every three digits (from less significant to the most) in dollars are separated by dot (decimal point). No extra leading zeroes are allowed. The price always starts with a digit and ends with a digit.
p30
aVFor example:
p31
aV"234", "1.544", "149.431.10", "0.99" and "123.05" are valid prices,
p32
aV".333", "3.33.11", "12.00", ".33", "0.1234" and "1.2" are not valid.
p33
aVWrite a program that will find the total price of all purchases in the given bill.
p34
asS'problemId'
p35
V727/B
p36
sS'input'
p37
(lp38
VInput
p39
aVThe only line of the input contains a non-empty string s with length not greater than 1000 \u2014 the content of the bill.
p40
aVIt is guaranteed that the bill meets the format described above. It is guaranteed that each price in the bill is not less than one cent and not greater than 106 dollars.
p41
asS'id'
p42
c__builtin__
id
p43
sS'constraints'
p44
g38
sb.