(iCodeforcesProblem
CodeforcesProblem
p0
(dp1
S'desription'
p2
VB. Cactusophobia\u000atime limit per test2 seconds\u000amemory limit per test256 megabytes\u000ainputstandard input\u000aoutputstandard output\u000aTree is a connected undirected graph that has no cycles. Edge cactus is a connected undirected graph without loops and parallel edges, such that each edge belongs to at most one cycle.\u000aVasya has an edge cactus, each edge of this graph has some color.\u000aVasya would like to remove the minimal number of edges in such way that his cactus turned to a tree. Vasya wants to make it in such a way that there were edges of as many different colors in the resulting tree, as possible. Help him to find how many different colors can the resulting tree have.\u000aInput\u000aThe first line contains two integers: n, m (2\u2009\u2264\u2009n\u2009\u2264\u200910\u2009000) \u2014 the number of vertices and the number of edges in Vasya's graph, respectively.\u000aThe following m lines contain three integers each: u, v, c (1\u2009\u2264\u2009u,\u2009v\u2009\u2264\u2009n, u\u2009\u2260\u2009v, 1\u2009\u2264\u2009c\u2009\u2264\u2009m) \u2014 the numbers of vertices connected by the corresponding edge, and its color. It is guaranteed that the described graph is indeed an edge cactus.\u000aOutput\u000aOutput one integer: the maximal number of different colors that the resulting tree can have.\u000aExamples\u000ainput\u000a4 4\u000a1 2 4\u000a2 3 1\u000a3 4 2\u000a4 2 3\u000aoutput\u000a3\u000ainput\u000a7 9\u000a1 2 1\u000a2 3 4\u000a3 1 5\u000a1 4 5\u000a4 5 2\u000a5 1 6\u000a1 6 4\u000a6 7 6\u000a7 1 3\u000aoutput\u000a6
p3
sS'problemStatement'
p4
VB. Cactusophobia\u000atime limit per test2 seconds\u000amemory limit per test256 megabytes\u000ainputstandard input\u000aoutputstandard output\u000aTree is a connected undirected graph that has no cycles. Edge cactus is a connected undirected graph without loops and parallel edges, such that each edge belongs to at most one cycle.\u000aVasya has an edge cactus, each edge of this graph has some color.\u000aVasya would like to remove the minimal number of edges in such way that his cactus turned to a tree. Vasya wants to make it in such a way that there were edges of as many different colors in the resulting tree, as possible. Help him to find how many different colors can the resulting tree have.\u000aInput\u000aThe first line contains two integers: n, m (2\u2009\u2264\u2009n\u2009\u2264\u200910\u2009000) \u2014 the number of vertices and the number of edges in Vasya's graph, respectively.\u000aThe following m lines contain three integers each: u, v, c (1\u2009\u2264\u2009u,\u2009v\u2009\u2264\u2009n, u\u2009\u2260\u2009v, 1\u2009\u2264\u2009c\u2009\u2264\u2009m) \u2014 the numbers of vertices connected by the corresponding edge, and its color. It is guaranteed that the described graph is indeed an edge cactus.\u000aOutput\u000aOutput one integer: the maximal number of different colors that the resulting tree can have.\u000aExamples\u000ainput\u000a4 4\u000a1 2 4\u000a2 3 1\u000a3 4 2\u000a4 2 3\u000aoutput\u000a3\u000ainput\u000a7 9\u000a1 2 1\u000a2 3 4\u000a3 1 5\u000a1 4 5\u000a4 5 2\u000a5 1 6\u000a1 6 4\u000a6 7 6\u000a7 1 3\u000aoutput\u000a6
p5
sS'name'
p6
VB. Cactusophobia
p7
sS'tags'
p8
Vdfs and similar flows 
p9
sS'url'
p10
Vhttp://codeforces.com/problemset/problem/720/B
p11
sS'memorylimit'
p12
V256 megabytes
p13
sS'timelimit'
p14
V2 seconds
p15
sS'problemId'
p16
V720/B
p17
sS'id'
p18
c__builtin__
id
p19
sb.