(iCodeforcesProblem
CodeforcesProblem
p0
(dp1
S'desription'
p2
VB. Checkpoints\u000atime limit per test1 second\u000amemory limit per test256 megabytes\u000ainputstandard input\u000aoutputstandard output\u000aVasya takes part in the orienteering competition. There are n checkpoints located along the line at coordinates x1,\u2009x2,\u2009...,\u2009xn. Vasya starts at the point with coordinate a. His goal is to visit at least n\u2009-\u20091 checkpoint in order to finish the competition. Participant are allowed to visit checkpoints in arbitrary order.\u000aVasya wants to pick such checkpoints and the order of visiting them that the total distance travelled is minimized. He asks you to calculate this minimum possible value.\u000aInput\u000aThe first line of the input contains two integers n and a (1\u2009\u2264\u2009n\u2009\u2264\u2009100\u2009000, \u2009-\u20091\u2009000\u2009000\u2009\u2264\u2009a\u2009\u2264\u20091\u2009000\u2009000) \u2014 the number of checkpoints and Vasya's starting position respectively.\u000aThe second line contains n integers x1,\u2009x2,\u2009...,\u2009xn (\u2009-\u20091\u2009000\u2009000\u2009\u2264\u2009xi\u2009\u2264\u20091\u2009000\u2009000) \u2014 coordinates of the checkpoints.\u000aOutput\u000aPrint one integer \u2014 the minimum distance Vasya has to travel in order to visit at least n\u2009-\u20091 checkpoint.\u000aExamples\u000ainput\u000a3 10\u000a1 7 12\u000aoutput\u000a7\u000ainput\u000a2 0\u000a11 -10\u000aoutput\u000a10\u000ainput\u000a5 0\u000a0 0 1000 0 0\u000aoutput\u000a0\u000aNote\u000aIn the first sample Vasya has to visit at least two checkpoints. The optimal way to achieve this is the walk to the third checkpoints (distance is 12\u2009-\u200910\u2009=\u20092) and then proceed to the second one (distance is 12\u2009-\u20097\u2009=\u20095). The total distance is equal to 2\u2009+\u20095\u2009=\u20097.\u000aIn the second sample it's enough to visit only one checkpoint so Vasya should just walk to the point \u2009-\u200910.
p3
sS'problemStatement'
p4
VB. Checkpoints\u000atime limit per test1 second\u000amemory limit per test256 megabytes\u000ainputstandard input\u000aoutputstandard output\u000aVasya takes part in the orienteering competition. There are n checkpoints located along the line at coordinates x1,\u2009x2,\u2009...,\u2009xn. Vasya starts at the point with coordinate a. His goal is to visit at least n\u2009-\u20091 checkpoint in order to finish the competition. Participant are allowed to visit checkpoints in arbitrary order.\u000aVasya wants to pick such checkpoints and the order of visiting them that the total distance travelled is minimized. He asks you to calculate this minimum possible value.\u000aInput\u000aThe first line of the input contains two integers n and a (1\u2009\u2264\u2009n\u2009\u2264\u2009100\u2009000, \u2009-\u20091\u2009000\u2009000\u2009\u2264\u2009a\u2009\u2264\u20091\u2009000\u2009000) \u2014 the number of checkpoints and Vasya's starting position respectively.\u000aThe second line contains n integers x1,\u2009x2,\u2009...,\u2009xn (\u2009-\u20091\u2009000\u2009000\u2009\u2264\u2009xi\u2009\u2264\u20091\u2009000\u2009000) \u2014 coordinates of the checkpoints.\u000aOutput\u000aPrint one integer \u2014 the minimum distance Vasya has to travel in order to visit at least n\u2009-\u20091 checkpoint.\u000aExamples\u000ainput\u000a3 10\u000a1 7 12\u000aoutput\u000a7\u000ainput\u000a2 0\u000a11 -10\u000aoutput\u000a10\u000ainput\u000a5 0\u000a0 0 1000 0 0\u000aoutput\u000a0\u000aNote\u000aIn the first sample Vasya has to visit at least two checkpoints. The optimal way to achieve this is the walk to the third checkpoints (distance is 12\u2009-\u200910\u2009=\u20092) and then proceed to the second one (distance is 12\u2009-\u20097\u2009=\u20095). The total distance is equal to 2\u2009+\u20095\u2009=\u20097.\u000aIn the second sample it's enough to visit only one checkpoint so Vasya should just walk to the point \u2009-\u200910.
p5
sS'name'
p6
VB. Checkpoints
p7
sS'tags'
p8
Vimplementation sortings 
p9
sS'url'
p10
Vhttp://codeforces.com/problemset/problem/709/B
p11
sS'memorylimit'
p12
V256 megabytes
p13
sS'timelimit'
p14
V1 second
p15
sS'problemId'
p16
V709/B
p17
sS'id'
p18
c__builtin__
id
p19
sb.