(iCodeforcesProblem
CodeforcesProblem
p0
(dp1
S'desription'
p2
VB. Connecting Universities\u000atime limit per test3 seconds\u000amemory limit per test256 megabytes\u000ainputstandard input\u000aoutputstandard output\u000aTreeland is a country in which there are n towns connected by n\u2009-\u20091 two-way road such that it's possible to get from any town to any other town.\u000aIn Treeland there are 2k universities which are located in different towns.\u000aRecently, the president signed the decree to connect universities by high-speed network.The Ministry of Education understood the decree in its own way and decided that it was enough to connect each university with another one by using a cable. Formally, the decree will be done!\u000aTo have the maximum sum in the budget, the Ministry decided to divide universities into pairs so that the total length of the required cable will be maximum. In other words, the total distance between universities in k pairs should be as large as possible.\u000aHelp the Ministry to find the maximum total distance. Of course, each university should be present in only one pair. Consider that all roads have the same length which is equal to 1.\u000aInput\u000aThe first line of the input contains two integers n and k (2\u2009\u2264\u2009n\u2009\u2264\u2009200\u2009000, 1\u2009\u2264\u2009k\u2009\u2264\u2009n\u2009/\u20092) \u2014 the number of towns in Treeland and the number of university pairs. Consider that towns are numbered from 1 to n.\u000aThe second line contains 2k distinct integers u1,\u2009u2,\u2009...,\u2009u2k (1\u2009\u2264\u2009ui\u2009\u2264\u2009n) \u2014 indices of towns in which universities are located.\u000aThe next n\u2009-\u20091 line contains the description of roads. Each line contains the pair of integers xj and yj (1\u2009\u2264\u2009xj,\u2009yj\u2009\u2264\u2009n), which means that the j-th road connects towns xj and yj. All of them are two-way roads. You can move from any town to any other using only these roads.\u000aOutput\u000aPrint the maximum possible sum of distances in the division of universities into k pairs.\u000aExamples\u000ainput\u000a7 2\u000a1 5 6 2\u000a1 3\u000a3 2\u000a4 5\u000a3 7\u000a4 3\u000a4 6\u000aoutput\u000a6\u000ainput\u000a9 3\u000a3 2 1 6 5 9\u000a8 9\u000a3 2\u000a2 7\u000a3 4\u000a7 6\u000a4 5\u000a2 1\u000a2 8\u000aoutput\u000a9\u000aNote\u000aThe figure below shows one of possible division into pairs in the first test. If you connect universities number 1 and 6 (marked in red) and universities number 2 and 5 (marked in blue) by using the cable, the total distance will equal 6 which will be the maximum sum in this example.
p3
sS'problemStatement'
p4
VB. Connecting Universities\u000atime limit per test3 seconds\u000amemory limit per test256 megabytes\u000ainputstandard input\u000aoutputstandard output\u000aTreeland is a country in which there are n towns connected by n\u2009-\u20091 two-way road such that it's possible to get from any town to any other town.\u000aIn Treeland there are 2k universities which are located in different towns.\u000aRecently, the president signed the decree to connect universities by high-speed network.The Ministry of Education understood the decree in its own way and decided that it was enough to connect each university with another one by using a cable. Formally, the decree will be done!\u000aTo have the maximum sum in the budget, the Ministry decided to divide universities into pairs so that the total length of the required cable will be maximum. In other words, the total distance between universities in k pairs should be as large as possible.\u000aHelp the Ministry to find the maximum total distance. Of course, each university should be present in only one pair. Consider that all roads have the same length which is equal to 1.\u000aInput\u000aThe first line of the input contains two integers n and k (2\u2009\u2264\u2009n\u2009\u2264\u2009200\u2009000, 1\u2009\u2264\u2009k\u2009\u2264\u2009n\u2009/\u20092) \u2014 the number of towns in Treeland and the number of university pairs. Consider that towns are numbered from 1 to n.\u000aThe second line contains 2k distinct integers u1,\u2009u2,\u2009...,\u2009u2k (1\u2009\u2264\u2009ui\u2009\u2264\u2009n) \u2014 indices of towns in which universities are located.\u000aThe next n\u2009-\u20091 line contains the description of roads. Each line contains the pair of integers xj and yj (1\u2009\u2264\u2009xj,\u2009yj\u2009\u2264\u2009n), which means that the j-th road connects towns xj and yj. All of them are two-way roads. You can move from any town to any other using only these roads.\u000aOutput\u000aPrint the maximum possible sum of distances in the division of universities into k pairs.\u000aExamples\u000ainput\u000a7 2\u000a1 5 6 2\u000a1 3\u000a3 2\u000a4 5\u000a3 7\u000a4 3\u000a4 6\u000aoutput\u000a6\u000ainput\u000a9 3\u000a3 2 1 6 5 9\u000a8 9\u000a3 2\u000a2 7\u000a3 4\u000a7 6\u000a4 5\u000a2 1\u000a2 8\u000aoutput\u000a9\u000aNote\u000aThe figure below shows one of possible division into pairs in the first test. If you connect universities number 1 and 6 (marked in red) and universities number 2 and 5 (marked in blue) by using the cable, the total distance will equal 6 which will be the maximum sum in this example.
p5
sS'name'
p6
VB. Connecting Universities
p7
sS'tags'
p8
Vdfs and similar dp graphs trees 
p9
sS'url'
p10
Vhttp://codeforces.com/problemset/problem/700/B
p11
sS'memorylimit'
p12
V256 megabytes
p13
sS'timelimit'
p14
V3 seconds
p15
sS'problemId'
p16
V700/B
p17
sS'id'
p18
c__builtin__
id
p19
sb.