(iCodeforcesProblem
CodeforcesProblem
p0
(dp1
S'desription'
p2
VB. Different is Good\u000atime limit per test2 seconds\u000amemory limit per test256 megabytes\u000ainputstandard input\u000aoutputstandard output\u000aA wise man told Kerem "Different is good" once, so Kerem wants all things in his life to be different.\u000aKerem recently got a string s consisting of lowercase English letters. Since Kerem likes it when things are different, he wants all substrings of his string s to be distinct. Substring is a string formed by some number of consecutive characters of the string. For example, string "aba" has substrings "" (empty substring), "a", "b", "a", "ab", "ba", "aba".\u000aIf string s has at least two equal substrings then Kerem will change characters at some positions to some other lowercase English letters. Changing characters is a very tiring job, so Kerem want to perform as few changes as possible.\u000aYour task is to find the minimum number of changes needed to make all the substrings of the given string distinct, or determine that it is impossible.\u000aInput\u000aThe first line of the input contains an integer n (1\u2009\u2264\u2009n\u2009\u2264\u2009100\u2009000) \u2014 the length of the string s.\u000aThe second line contains the string s of length n consisting of only lowercase English letters.\u000aOutput\u000aIf it's impossible to change the string s such that all its substring are distinct print -1. Otherwise print the minimum required number of changes.\u000aExamples\u000ainput\u000a2\u000aaa\u000aoutput\u000a1\u000ainput\u000a4\u000akoko\u000aoutput\u000a2\u000ainput\u000a5\u000amurat\u000aoutput\u000a0\u000aNote\u000aIn the first sample one of the possible solutions is to change the first character to 'b'.\u000aIn the second sample, one may change the first character to 'a' and second character to 'b', so the string becomes "abko".
p3
sS'problemStatement'
p4
VB. Different is Good\u000atime limit per test2 seconds\u000amemory limit per test256 megabytes\u000ainputstandard input\u000aoutputstandard output\u000aA wise man told Kerem "Different is good" once, so Kerem wants all things in his life to be different.\u000aKerem recently got a string s consisting of lowercase English letters. Since Kerem likes it when things are different, he wants all substrings of his string s to be distinct. Substring is a string formed by some number of consecutive characters of the string. For example, string "aba" has substrings "" (empty substring), "a", "b", "a", "ab", "ba", "aba".\u000aIf string s has at least two equal substrings then Kerem will change characters at some positions to some other lowercase English letters. Changing characters is a very tiring job, so Kerem want to perform as few changes as possible.\u000aYour task is to find the minimum number of changes needed to make all the substrings of the given string distinct, or determine that it is impossible.\u000aInput\u000aThe first line of the input contains an integer n (1\u2009\u2264\u2009n\u2009\u2264\u2009100\u2009000) \u2014 the length of the string s.\u000aThe second line contains the string s of length n consisting of only lowercase English letters.\u000aOutput\u000aIf it's impossible to change the string s such that all its substring are distinct print -1. Otherwise print the minimum required number of changes.\u000aExamples\u000ainput\u000a2\u000aaa\u000aoutput\u000a1\u000ainput\u000a4\u000akoko\u000aoutput\u000a2\u000ainput\u000a5\u000amurat\u000aoutput\u000a0\u000aNote\u000aIn the first sample one of the possible solutions is to change the first character to 'b'.\u000aIn the second sample, one may change the first character to 'a' and second character to 'b', so the string becomes "abko".
p5
sS'name'
p6
VB. Different is Good
p7
sS'tags'
p8
Vconstructive algorithms implementation strings 
p9
sS'url'
p10
Vhttp://codeforces.com/problemset/problem/672/B
p11
sS'memorylimit'
p12
V256 megabytes
p13
sS'timelimit'
p14
V2 seconds
p15
sS'problemId'
p16
V672/B
p17
sS'id'
p18
c__builtin__
id
p19
sb.