(iCodeforcesProblem
CodeforcesProblem
p0
(dp1
S'desription'
p2
VB. Lovely Palindromes\u000atime limit per test1 second\u000amemory limit per test256 megabytes\u000ainputstandard input\u000aoutputstandard output\u000aPari has a friend who loves palindrome numbers. A palindrome number is a number that reads the same forward or backward. For example 12321, 100001 and 1 are palindrome numbers, while 112 and 1021 are not.\u000aPari is trying to love them too, but only very special and gifted people can understand the beauty behind palindrome numbers. Pari loves integers with even length (i.e. the numbers with even number of digits), so she tries to see a lot of big palindrome numbers with even length (like a 2-digit 11 or 6-digit 122221), so maybe she could see something in them.\u000aNow Pari asks you to write a program that gets a huge integer n from the input and tells what is the n-th even-length positive palindrome number?\u000aInput\u000aThe only line of the input contains a single integer n (1\u2009\u2264\u2009n\u2009\u2264\u200910100\u2009000).\u000aOutput\u000aPrint the n-th even-length palindrome number.\u000aExamples\u000ainput\u000a1\u000aoutput\u000a11\u000ainput\u000a10\u000aoutput\u000a1001\u000aNote\u000aThe first 10 even-length palindrome numbers are 11,\u200922,\u200933,\u2009... ,\u200988,\u200999 and 1001.
p3
sS'problemStatement'
p4
VB. Lovely Palindromes\u000atime limit per test1 second\u000amemory limit per test256 megabytes\u000ainputstandard input\u000aoutputstandard output\u000aPari has a friend who loves palindrome numbers. A palindrome number is a number that reads the same forward or backward. For example 12321, 100001 and 1 are palindrome numbers, while 112 and 1021 are not.\u000aPari is trying to love them too, but only very special and gifted people can understand the beauty behind palindrome numbers. Pari loves integers with even length (i.e. the numbers with even number of digits), so she tries to see a lot of big palindrome numbers with even length (like a 2-digit 11 or 6-digit 122221), so maybe she could see something in them.\u000aNow Pari asks you to write a program that gets a huge integer n from the input and tells what is the n-th even-length positive palindrome number?\u000aInput\u000aThe only line of the input contains a single integer n (1\u2009\u2264\u2009n\u2009\u2264\u200910100\u2009000).\u000aOutput\u000aPrint the n-th even-length palindrome number.\u000aExamples\u000ainput\u000a1\u000aoutput\u000a11\u000ainput\u000a10\u000aoutput\u000a1001\u000aNote\u000aThe first 10 even-length palindrome numbers are 11,\u200922,\u200933,\u2009... ,\u200988,\u200999 and 1001.
p5
sS'name'
p6
VB. Lovely Palindromes
p7
sS'tags'
p8
Vconstructive algorithms math 
p9
sS'url'
p10
Vhttp://codeforces.com/problemset/problem/688/B
p11
sS'memorylimit'
p12
V256 megabytes
p13
sS'timelimit'
p14
V1 second
p15
sS'problemId'
p16
V688/B
p17
sS'id'
p18
c__builtin__
id
p19
sb.