(iCodeforcesProblem
CodeforcesProblem
p0
(dp1
S'desription'
p2
VB. Recover the String\u000atime limit per test1 second\u000amemory limit per test256 megabytes\u000ainputstandard input\u000aoutputstandard output\u000aFor each string s consisting of characters '0' and '1' one can define four integers a00, a01, a10 and a11, where axy is the number of subsequences of length 2 of the string s equal to the sequence {x,\u2009y}.\u000aIn these problem you are given four integers a00, a01, a10, a11 and have to find any non-empty string s that matches them, or determine that there is no such string. One can prove that if at least one answer exists, there exists an answer of length no more than 1\u2009000\u2009000.\u000aInput\u000aThe only line of the input contains four non-negative integers a00, a01, a10 and a11. Each of them doesn't exceed 109.\u000aOutput\u000aIf there exists a non-empty string that matches four integers from the input, print it in the only line of the output. Otherwise, print "Impossible". The length of your answer must not exceed 1\u2009000\u2009000.\u000aExamples\u000ainput\u000a1 2 3 4\u000aoutput\u000aImpossible\u000ainput\u000a1 2 2 1\u000aoutput\u000a0110
p3
sS'problemStatement'
p4
VB. Recover the String\u000atime limit per test1 second\u000amemory limit per test256 megabytes\u000ainputstandard input\u000aoutputstandard output\u000aFor each string s consisting of characters '0' and '1' one can define four integers a00, a01, a10 and a11, where axy is the number of subsequences of length 2 of the string s equal to the sequence {x,\u2009y}.\u000aIn these problem you are given four integers a00, a01, a10, a11 and have to find any non-empty string s that matches them, or determine that there is no such string. One can prove that if at least one answer exists, there exists an answer of length no more than 1\u2009000\u2009000.\u000aInput\u000aThe only line of the input contains four non-negative integers a00, a01, a10 and a11. Each of them doesn't exceed 109.\u000aOutput\u000aIf there exists a non-empty string that matches four integers from the input, print it in the only line of the output. Otherwise, print "Impossible". The length of your answer must not exceed 1\u2009000\u2009000.\u000aExamples\u000ainput\u000a1 2 3 4\u000aoutput\u000aImpossible\u000ainput\u000a1 2 2 1\u000aoutput\u000a0110
p5
sS'name'
p6
VB. Recover the String
p7
sS'tags'
p8
Vconstructive algorithms implementation math 
p9
sS'url'
p10
Vhttp://codeforces.com/problemset/problem/708/B
p11
sS'memorylimit'
p12
V256 megabytes
p13
sS'timelimit'
p14
V1 second
p15
sS'problemId'
p16
V708/B
p17
sS'id'
p18
c__builtin__
id
p19
sb.