(iCodeforcesProblem
CodeforcesProblem
p0
(dp1
S'desription'
p2
VB. s-palindrome\u000atime limit per test1 second\u000amemory limit per test256 megabytes\u000ainputstandard input\u000aoutputstandard output\u000aLet's call a string "s-palindrome" if it is symmetric about the middle of the string. For example, the string "oHo" is "s-palindrome", but the string "aa" is not. The string "aa" is not "s-palindrome", because the second half of it is not a mirror reflection of the first half.\u000aEnglish alphabet\u000aYou are given a string s. Check if the string is "s-palindrome".\u000aInput\u000aThe only line contains the string s (1\u2009\u2264\u2009|s|\u2009\u2264\u20091000) which consists of only English letters.\u000aOutput\u000aPrint "TAK" if the string s is "s-palindrome" and "NIE" otherwise.\u000aExamples\u000ainput\u000aoXoxoXo\u000aoutput\u000aTAK\u000ainput\u000abod\u000aoutput\u000aTAK\u000ainput\u000aER\u000aoutput\u000aNIE
p3
sS'problemStatement'
p4
VB. s-palindrome\u000atime limit per test1 second\u000amemory limit per test256 megabytes\u000ainputstandard input\u000aoutputstandard output\u000aLet's call a string "s-palindrome" if it is symmetric about the middle of the string. For example, the string "oHo" is "s-palindrome", but the string "aa" is not. The string "aa" is not "s-palindrome", because the second half of it is not a mirror reflection of the first half.\u000aEnglish alphabet\u000aYou are given a string s. Check if the string is "s-palindrome".\u000aInput\u000aThe only line contains the string s (1\u2009\u2264\u2009|s|\u2009\u2264\u20091000) which consists of only English letters.\u000aOutput\u000aPrint "TAK" if the string s is "s-palindrome" and "NIE" otherwise.\u000aExamples\u000ainput\u000aoXoxoXo\u000aoutput\u000aTAK\u000ainput\u000abod\u000aoutput\u000aTAK\u000ainput\u000aER\u000aoutput\u000aNIE
p5
sS'name'
p6
VB. s-palindrome
p7
sS'tags'
p8
Vimplementation 
p9
sS'url'
p10
Vhttp://codeforces.com/problemset/problem/691/B
p11
sS'memorylimit'
p12
V256 megabytes
p13
sS'timelimit'
p14
V1 second
p15
sS'problemId'
p16
V691/B
p17
sS'id'
p18
c__builtin__
id
p19
sb.