(iCodeforcesProblem
CodeforcesProblem
p0
(dp1
S'desription'
p2
VB. The Teacher of Physical Education\u000atime limit per test1 second\u000amemory limit per test256 megabytes\u000ainputstandard input\u000aoutputstandard output\u000an pupils came to Physical Education lesson. We know the name and the height of each pupil.\u000aYour task is to help the teacher of Physical Education to line up all pupils in non-decreasing order of their heights.\u000aInput\u000aThe first line contains the positive integer n (1\u2009\u2264\u2009n\u2009\u2264\u20095000) \u2014 the number of pupils.\u000aThe next n lines contain the pupils' description. In the i-th line there is pupil's name namei (a non-empty string which consists of uppercase and lowercase Latin letters, the length does not exceed five) and pupil's height xi (130\u2009\u2264\u2009xi\u2009\u2264\u2009215). Some pupils can have the same name. Uppercase and lowercase letters of the alphabet should be considered different.\u000aOutput\u000aPrint n lines \u2014 pupils' names in the non-decreasing order of their heights. Each line must contain exactly one name.\u000aIf there are several answers, print any of them. Uppercase and lowercase letters of the alphabet should be considered different.\u000aExamples\u000ainput\u000a4\u000aIvan 150\u000aIgor 215\u000aDasha 158\u000aKatya 150\u000aoutput\u000aIvan\u000aKatya\u000aDasha\u000aIgor\u000ainput\u000a2\u000aSASHA 180\u000aSASHA 170\u000aoutput\u000aSASHA\u000aSASHA
p3
sS'problemStatement'
p4
VB. The Teacher of Physical Education\u000atime limit per test1 second\u000amemory limit per test256 megabytes\u000ainputstandard input\u000aoutputstandard output\u000an pupils came to Physical Education lesson. We know the name and the height of each pupil.\u000aYour task is to help the teacher of Physical Education to line up all pupils in non-decreasing order of their heights.\u000aInput\u000aThe first line contains the positive integer n (1\u2009\u2264\u2009n\u2009\u2264\u20095000) \u2014 the number of pupils.\u000aThe next n lines contain the pupils' description. In the i-th line there is pupil's name namei (a non-empty string which consists of uppercase and lowercase Latin letters, the length does not exceed five) and pupil's height xi (130\u2009\u2264\u2009xi\u2009\u2264\u2009215). Some pupils can have the same name. Uppercase and lowercase letters of the alphabet should be considered different.\u000aOutput\u000aPrint n lines \u2014 pupils' names in the non-decreasing order of their heights. Each line must contain exactly one name.\u000aIf there are several answers, print any of them. Uppercase and lowercase letters of the alphabet should be considered different.\u000aExamples\u000ainput\u000a4\u000aIvan 150\u000aIgor 215\u000aDasha 158\u000aKatya 150\u000aoutput\u000aIvan\u000aKatya\u000aDasha\u000aIgor\u000ainput\u000a2\u000aSASHA 180\u000aSASHA 170\u000aoutput\u000aSASHA\u000aSASHA
p5
sS'name'
p6
VB. The Teacher of Physical Education
p7
sS'tags'
p8
S''
p9
sS'url'
p10
Vhttp://codeforces.com/problemset/problem/683/B
p11
sS'memorylimit'
p12
V256 megabytes
p13
sS'timelimit'
p14
V1 second
p15
sS'problemId'
p16
V683/B
p17
sS'id'
p18
c__builtin__
id
p19
sb.