(iCodeforcesProblem
CodeforcesProblem
p0
(dp1
S'desription'
p2
VB. The Same Calendar\u000atime limit per test1 second\u000amemory limit per test256 megabytes\u000ainputstandard input\u000aoutputstandard output\u000aThe girl Taylor has a beautiful calendar for the year y. In the calendar all days are given with their days of week: Monday, Tuesday, Wednesday, Thursday, Friday, Saturday and Sunday.\u000aThe calendar is so beautiful that she wants to know what is the next year after y when the calendar will be exactly the same. Help Taylor to find that year.\u000aNote that leap years has 366 days. The year is leap if it is divisible by 400 or it is divisible by 4, but not by 100 (https://en.wikipedia.org/wiki/Leap_year).\u000aInput\u000aThe only line contains integer y (1000\u2009\u2264\u2009y\u2009<\u2009100'000) \u2014 the year of the calendar.\u000aOutput\u000aPrint the only integer y' \u2014 the next year after y when the calendar will be the same. Note that you should find the first year after y with the same calendar.\u000aExamples\u000ainput\u000a2016\u000aoutput\u000a2044\u000ainput\u000a2000\u000aoutput\u000a2028\u000ainput\u000a50501\u000aoutput\u000a50507\u000aNote\u000aToday is Monday, the 13th of June, 2016.
p3
sS'problemStatement'
p4
VB. The Same Calendar\u000atime limit per test1 second\u000amemory limit per test256 megabytes\u000ainputstandard input\u000aoutputstandard output\u000aThe girl Taylor has a beautiful calendar for the year y. In the calendar all days are given with their days of week: Monday, Tuesday, Wednesday, Thursday, Friday, Saturday and Sunday.\u000aThe calendar is so beautiful that she wants to know what is the next year after y when the calendar will be exactly the same. Help Taylor to find that year.\u000aNote that leap years has 366 days. The year is leap if it is divisible by 400 or it is divisible by 4, but not by 100 (https://en.wikipedia.org/wiki/Leap_year).\u000aInput\u000aThe only line contains integer y (1000\u2009\u2264\u2009y\u2009<\u2009100'000) \u2014 the year of the calendar.\u000aOutput\u000aPrint the only integer y' \u2014 the next year after y when the calendar will be the same. Note that you should find the first year after y with the same calendar.\u000aExamples\u000ainput\u000a2016\u000aoutput\u000a2044\u000ainput\u000a2000\u000aoutput\u000a2028\u000ainput\u000a50501\u000aoutput\u000a50507\u000aNote\u000aToday is Monday, the 13th of June, 2016.
p5
sS'name'
p6
VB. The Same Calendar
p7
sS'tags'
p8
Vimplementation 
p9
sS'url'
p10
Vhttp://codeforces.com/problemset/problem/678/B
p11
sS'memorylimit'
p12
V256 megabytes
p13
sS'timelimit'
p14
V1 second
p15
sS'problemId'
p16
V678/B
p17
sS'id'
p18
c__builtin__
id
p19
sb.