(iCodeforcesProblem
CodeforcesProblem
p0
(dp1
S'desription'
p2
VC. Break Up\u000atime limit per test3 seconds\u000amemory limit per test256 megabytes\u000ainputstandard input\u000aoutputstandard output\u000aAgain, there are hard times in Berland! Many towns have such tensions that even civil war is possible.\u000aThere are n towns in Reberland, some pairs of which connected by two-way roads. It is not guaranteed that it is possible to reach one town from any other town using these roads.\u000aTowns s and t announce the final break of any relationship and intend to rule out the possibility of moving between them by the roads. Now possibly it is needed to close several roads so that moving from s to t using roads becomes impossible. Each town agrees to spend money on closing no more than one road, therefore, the total number of closed roads will be no more than two.\u000aHelp them find set of no more than two roads such that there will be no way between s and t after closing these roads. For each road the budget required for its closure was estimated. Among all sets find such that the total budget for the closure of a set of roads is minimum.\u000aInput\u000aThe first line of the input contains two integers n and m (2\u2009\u2264\u2009n\u2009\u2264\u20091000, 0\u2009\u2264\u2009m\u2009\u2264\u200930\u2009000) \u2014 the number of towns in Berland and the number of roads.\u000aThe second line contains integers s and t (1\u2009\u2264\u2009s,\u2009t\u2009\u2264\u2009n, s\u2009\u2260\u2009t) \u2014 indices of towns which break up the relationships.\u000aThen follow m lines, each of them contains three integers xi, yi and wi (1\u2009\u2264\u2009xi,\u2009yi\u2009\u2264\u2009n, 1\u2009\u2264\u2009wi\u2009\u2264\u2009109) \u2014 indices of towns connected by the i-th road, and the budget on its closure.\u000aAll roads are bidirectional. It is allowed that the pair of towns is connected by more than one road. Roads that connect the city to itself are allowed.\u000aOutput\u000aIn the first line print the minimum budget required to break up the relations between s and t, if it is allowed to close no more than two roads.\u000aIn the second line print the value c (0\u2009\u2264\u2009c\u2009\u2264\u20092) \u2014 the number of roads to be closed in the found solution.\u000aIn the third line print in any order c diverse integers from 1 to m \u2014 indices of closed roads. Consider that the roads are numbered from 1 to m in the order they appear in the input.\u000aIf it is impossible to make towns s and t disconnected by removing no more than 2 roads, the output should contain a single line -1.\u000aIf there are several possible answers, you may print any of them.\u000aExamples\u000ainput\u000a6 7\u000a1 6\u000a2 1 6\u000a2 3 5\u000a3 4 9\u000a4 6 4\u000a4 6 5\u000a4 5 1\u000a3 1 3\u000aoutput\u000a8\u000a2\u000a2 7\u000ainput\u000a6 7\u000a1 6\u000a2 3 1\u000a1 2 2\u000a1 3 3\u000a4 5 4\u000a3 6 5\u000a4 6 6\u000a1 5 7\u000aoutput\u000a9\u000a2\u000a4 5\u000ainput\u000a5 4\u000a1 5\u000a2 1 3\u000a3 2 1\u000a3 4 4\u000a4 5 2\u000aoutput\u000a1\u000a1\u000a2\u000ainput\u000a2 3\u000a1 2\u000a1 2 734458840\u000a1 2 817380027\u000a1 2 304764803\u000aoutput\u000a-1
p3
sS'problemStatement'
p4
VC. Break Up\u000atime limit per test3 seconds\u000amemory limit per test256 megabytes\u000ainputstandard input\u000aoutputstandard output\u000aAgain, there are hard times in Berland! Many towns have such tensions that even civil war is possible.\u000aThere are n towns in Reberland, some pairs of which connected by two-way roads. It is not guaranteed that it is possible to reach one town from any other town using these roads.\u000aTowns s and t announce the final break of any relationship and intend to rule out the possibility of moving between them by the roads. Now possibly it is needed to close several roads so that moving from s to t using roads becomes impossible. Each town agrees to spend money on closing no more than one road, therefore, the total number of closed roads will be no more than two.\u000aHelp them find set of no more than two roads such that there will be no way between s and t after closing these roads. For each road the budget required for its closure was estimated. Among all sets find such that the total budget for the closure of a set of roads is minimum.\u000aInput\u000aThe first line of the input contains two integers n and m (2\u2009\u2264\u2009n\u2009\u2264\u20091000, 0\u2009\u2264\u2009m\u2009\u2264\u200930\u2009000) \u2014 the number of towns in Berland and the number of roads.\u000aThe second line contains integers s and t (1\u2009\u2264\u2009s,\u2009t\u2009\u2264\u2009n, s\u2009\u2260\u2009t) \u2014 indices of towns which break up the relationships.\u000aThen follow m lines, each of them contains three integers xi, yi and wi (1\u2009\u2264\u2009xi,\u2009yi\u2009\u2264\u2009n, 1\u2009\u2264\u2009wi\u2009\u2264\u2009109) \u2014 indices of towns connected by the i-th road, and the budget on its closure.\u000aAll roads are bidirectional. It is allowed that the pair of towns is connected by more than one road. Roads that connect the city to itself are allowed.\u000aOutput\u000aIn the first line print the minimum budget required to break up the relations between s and t, if it is allowed to close no more than two roads.\u000aIn the second line print the value c (0\u2009\u2264\u2009c\u2009\u2264\u20092) \u2014 the number of roads to be closed in the found solution.\u000aIn the third line print in any order c diverse integers from 1 to m \u2014 indices of closed roads. Consider that the roads are numbered from 1 to m in the order they appear in the input.\u000aIf it is impossible to make towns s and t disconnected by removing no more than 2 roads, the output should contain a single line -1.\u000aIf there are several possible answers, you may print any of them.\u000aExamples\u000ainput\u000a6 7\u000a1 6\u000a2 1 6\u000a2 3 5\u000a3 4 9\u000a4 6 4\u000a4 6 5\u000a4 5 1\u000a3 1 3\u000aoutput\u000a8\u000a2\u000a2 7\u000ainput\u000a6 7\u000a1 6\u000a2 3 1\u000a1 2 2\u000a1 3 3\u000a4 5 4\u000a3 6 5\u000a4 6 6\u000a1 5 7\u000aoutput\u000a9\u000a2\u000a4 5\u000ainput\u000a5 4\u000a1 5\u000a2 1 3\u000a3 2 1\u000a3 4 4\u000a4 5 2\u000aoutput\u000a1\u000a1\u000a2\u000ainput\u000a2 3\u000a1 2\u000a1 2 734458840\u000a1 2 817380027\u000a1 2 304764803\u000aoutput\u000a-1
p5
sS'name'
p6
VC. Break Up
p7
sS'tags'
p8
Vdfs and similar 
p9
sS'url'
p10
Vhttp://codeforces.com/problemset/problem/700/C
p11
sS'memorylimit'
p12
V256 megabytes
p13
sS'timelimit'
p14
V3 seconds
p15
sS'problemId'
p16
V700/C
p17
sS'id'
p18
c__builtin__
id
p19
sb.