(iCodeforcesProblem
CodeforcesProblem
p0
(dp1
S'desription'
p2
VC. Chris and Road\u000atime limit per test2 seconds\u000amemory limit per test256 megabytes\u000ainputstandard input\u000aoutputstandard output\u000aAnd while Mishka is enjoying her trip...\u000aChris is a little brown bear. No one knows, where and when he met Mishka, but for a long time they are together (excluding her current trip). However, best friends are important too. John is Chris' best friend.\u000aOnce walking with his friend, John gave Chris the following problem:\u000aAt the infinite horizontal road of width w, bounded by lines y\u2009=\u20090 and y\u2009=\u2009w, there is a bus moving, presented as a convex polygon of n vertices. The bus moves continuously with a constant speed of v in a straight Ox line in direction of decreasing x coordinates, thus in time only x coordinates of its points are changing. Formally, after time t each of x coordinates of its points will be decreased by vt.\u000aThere is a pedestrian in the point (0,\u20090), who can move only by a vertical pedestrian crossing, presented as a segment connecting points (0,\u20090) and (0,\u2009w) with any speed not exceeding u. Thus the pedestrian can move only in a straight line Oy in any direction with any speed not exceeding u and not leaving the road borders. The pedestrian can instantly change his speed, thus, for example, he can stop instantly.\u000aPlease look at the sample note picture for better understanding.\u000aWe consider the pedestrian is hit by the bus, if at any moment the point he is located in lies strictly inside the bus polygon (this means that if the point lies on the polygon vertex or on its edge, the pedestrian is not hit by the bus).\u000aYou are given the bus position at the moment 0. Please help Chris determine minimum amount of time the pedestrian needs to cross the road and reach the point (0,\u2009w) and not to be hit by the bus.\u000aInput\u000aThe first line of the input contains four integers n, w, v, u (3\u2009\u2264\u2009n\u2009\u2264\u200910\u2009000, 1\u2009\u2264\u2009w\u2009\u2264\u2009109, 1\u2009\u2264\u2009v,\u2009\u2009u\u2009\u2264\u20091000) \u2014 the number of the bus polygon vertices, road width, bus speed and pedestrian speed respectively.\u000aThe next n lines describes polygon vertices in counter-clockwise order. i-th of them contains pair of integers xi and yi (\u2009-\u2009109\u2009\u2264\u2009xi\u2009\u2264\u2009109, 0\u2009\u2264\u2009yi\u2009\u2264\u2009w) \u2014 coordinates of i-th polygon point. It is guaranteed that the polygon is non-degenerate.\u000aOutput\u000aPrint the single real t \u2014 the time the pedestrian needs to croos the road and not to be hit by the bus. The answer is considered correct if its relative or absolute error doesn't exceed 10\u2009-\u20096.\u000aExample\u000ainput\u000a5 5 1 2\u000a1 2\u000a3 1\u000a4 3\u000a3 4\u000a1 4\u000aoutput\u000a5.0000000000\u000aNote\u000aFollowing image describes initial position in the first sample case:
p3
sS'problemStatement'
p4
VC. Chris and Road\u000atime limit per test2 seconds\u000amemory limit per test256 megabytes\u000ainputstandard input\u000aoutputstandard output\u000aAnd while Mishka is enjoying her trip...\u000aChris is a little brown bear. No one knows, where and when he met Mishka, but for a long time they are together (excluding her current trip). However, best friends are important too. John is Chris' best friend.\u000aOnce walking with his friend, John gave Chris the following problem:\u000aAt the infinite horizontal road of width w, bounded by lines y\u2009=\u20090 and y\u2009=\u2009w, there is a bus moving, presented as a convex polygon of n vertices. The bus moves continuously with a constant speed of v in a straight Ox line in direction of decreasing x coordinates, thus in time only x coordinates of its points are changing. Formally, after time t each of x coordinates of its points will be decreased by vt.\u000aThere is a pedestrian in the point (0,\u20090), who can move only by a vertical pedestrian crossing, presented as a segment connecting points (0,\u20090) and (0,\u2009w) with any speed not exceeding u. Thus the pedestrian can move only in a straight line Oy in any direction with any speed not exceeding u and not leaving the road borders. The pedestrian can instantly change his speed, thus, for example, he can stop instantly.\u000aPlease look at the sample note picture for better understanding.\u000aWe consider the pedestrian is hit by the bus, if at any moment the point he is located in lies strictly inside the bus polygon (this means that if the point lies on the polygon vertex or on its edge, the pedestrian is not hit by the bus).\u000aYou are given the bus position at the moment 0. Please help Chris determine minimum amount of time the pedestrian needs to cross the road and reach the point (0,\u2009w) and not to be hit by the bus.\u000aInput\u000aThe first line of the input contains four integers n, w, v, u (3\u2009\u2264\u2009n\u2009\u2264\u200910\u2009000, 1\u2009\u2264\u2009w\u2009\u2264\u2009109, 1\u2009\u2264\u2009v,\u2009\u2009u\u2009\u2264\u20091000) \u2014 the number of the bus polygon vertices, road width, bus speed and pedestrian speed respectively.\u000aThe next n lines describes polygon vertices in counter-clockwise order. i-th of them contains pair of integers xi and yi (\u2009-\u2009109\u2009\u2264\u2009xi\u2009\u2264\u2009109, 0\u2009\u2264\u2009yi\u2009\u2264\u2009w) \u2014 coordinates of i-th polygon point. It is guaranteed that the polygon is non-degenerate.\u000aOutput\u000aPrint the single real t \u2014 the time the pedestrian needs to croos the road and not to be hit by the bus. The answer is considered correct if its relative or absolute error doesn't exceed 10\u2009-\u20096.\u000aExample\u000ainput\u000a5 5 1 2\u000a1 2\u000a3 1\u000a4 3\u000a3 4\u000a1 4\u000aoutput\u000a5.0000000000\u000aNote\u000aFollowing image describes initial position in the first sample case:
p5
sS'name'
p6
VC. Chris and Road
p7
sS'tags'
p8
Vgeometry implementation 
p9
sS'url'
p10
Vhttp://codeforces.com/problemset/problem/703/C
p11
sS'memorylimit'
p12
V256 megabytes
p13
sS'timelimit'
p14
V2 seconds
p15
sS'output'
p16
(lp17
VOutput
p18
aVPrint the single real t \u2014 the time the pedestrian needs to croos the road and not to be hit by the bus. The answer is considered correct if its relative or absolute error doesn't exceed 10\u2009-\u20096.
p19
asS'statement'
p20
(lp21
VC. Chris and Road
p22
aVtime limit per test2 seconds
p23
aVmemory limit per test256 megabytes
p24
aVinputstandard input
p25
aVoutputstandard output
p26
aVAnd while Mishka is enjoying her trip...
p27
aVChris is a little brown bear. No one knows, where and when he met Mishka, but for a long time they are together (excluding her current trip). However, best friends are important too. John is Chris' best friend.
p28
aVOnce walking with his friend, John gave Chris the following problem:
p29
aVAt the infinite horizontal road of width w, bounded by lines y\u2009=\u20090 and y\u2009=\u2009w, there is a bus moving, presented as a convex polygon of n vertices. The bus moves continuously with a constant speed of v in a straight Ox line in direction of decreasing x coordinates, thus in time only x coordinates of its points are changing. Formally, after time t each of x coordinates of its points will be decreased by vt.
p30
aVThere is a pedestrian in the point (0,\u20090), who can move only by a vertical pedestrian crossing, presented as a segment connecting points (0,\u20090) and (0,\u2009w) with any speed not exceeding u. Thus the pedestrian can move only in a straight line Oy in any direction with any speed not exceeding u and not leaving the road borders. The pedestrian can instantly change his speed, thus, for example, he can stop instantly.
p31
aVPlease look at the sample note picture for better understanding.
p32
aVWe consider the pedestrian is hit by the bus, if at any moment the point he is located in lies strictly inside the bus polygon (this means that if the point lies on the polygon vertex or on its edge, the pedestrian is not hit by the bus).
p33
aVYou are given the bus position at the moment 0. Please help Chris determine minimum amount of time the pedestrian needs to cross the road and reach the point (0,\u2009w) and not to be hit by the bus.
p34
asS'problemId'
p35
V703/C
p36
sS'input'
p37
(lp38
VInput
p39
aVThe first line of the input contains four integers n, w, v, u (3\u2009\u2264\u2009n\u2009\u2264\u200910\u2009000, 1\u2009\u2264\u2009w\u2009\u2264\u2009109, 1\u2009\u2264\u2009v,\u2009\u2009u\u2009\u2264\u20091000) \u2014 the number of the bus polygon vertices, road width, bus speed and pedestrian speed respectively.
p40
aVThe next n lines describes polygon vertices in counter-clockwise order. i-th of them contains pair of integers xi and yi (\u2009-\u2009109\u2009\u2264\u2009xi\u2009\u2264\u2009109, 0\u2009\u2264\u2009yi\u2009\u2264\u2009w) \u2014 coordinates of i-th polygon point. It is guaranteed that the polygon is non-degenerate.
p41
asS'id'
p42
c__builtin__
id
p43
sS'constraints'
p44
g38
sb.