(iCodeforcesProblem
CodeforcesProblem
p0
(dp1
S'desription'
p2
VC. Centroids\u000atime limit per test4 seconds\u000amemory limit per test512 megabytes\u000ainputstandard input\u000aoutputstandard output\u000aTree is a connected acyclic graph. Suppose you are given a tree consisting of n vertices. The vertex of this tree is called centroid if the size of each connected component that appears if this vertex is removed from the tree doesn't exceed .\u000aYou are given a tree of size n and can perform no more than one edge replacement. Edge replacement is the operation of removing one edge from the tree (without deleting incident vertices) and inserting one new edge (without adding new vertices) in such a way that the graph remains a tree. For each vertex you have to determine if it's possible to make it centroid by performing no more than one edge replacement.\u000aInput\u000aThe first line of the input contains an integer n (2\u2009\u2264\u2009n\u2009\u2264\u2009400\u2009000) \u2014 the number of vertices in the tree. Each of the next n\u2009-\u20091 lines contains a pair of vertex indices ui and vi (1\u2009\u2264\u2009ui,\u2009vi\u2009\u2264\u2009n) \u2014 endpoints of the corresponding edge.\u000aOutput\u000aPrint n integers. The i-th of them should be equal to 1 if the i-th vertex can be made centroid by replacing no more than one edge, and should be equal to 0 otherwise.\u000aExamples\u000ainput\u000a3\u000a1 2\u000a2 3\u000aoutput\u000a1 1 1 \u000ainput\u000a5\u000a1 2\u000a1 3\u000a1 4\u000a1 5\u000aoutput\u000a1 0 0 0 0 \u000aNote\u000aIn the first sample each vertex can be made a centroid. For example, in order to turn vertex 1 to centroid one have to replace the edge (2,\u20093) with the edge (1,\u20093).
p3
sS'problemStatement'
p4
VC. Centroids\u000atime limit per test4 seconds\u000amemory limit per test512 megabytes\u000ainputstandard input\u000aoutputstandard output\u000aTree is a connected acyclic graph. Suppose you are given a tree consisting of n vertices. The vertex of this tree is called centroid if the size of each connected component that appears if this vertex is removed from the tree doesn't exceed .\u000aYou are given a tree of size n and can perform no more than one edge replacement. Edge replacement is the operation of removing one edge from the tree (without deleting incident vertices) and inserting one new edge (without adding new vertices) in such a way that the graph remains a tree. For each vertex you have to determine if it's possible to make it centroid by performing no more than one edge replacement.\u000aInput\u000aThe first line of the input contains an integer n (2\u2009\u2264\u2009n\u2009\u2264\u2009400\u2009000) \u2014 the number of vertices in the tree. Each of the next n\u2009-\u20091 lines contains a pair of vertex indices ui and vi (1\u2009\u2264\u2009ui,\u2009vi\u2009\u2264\u2009n) \u2014 endpoints of the corresponding edge.\u000aOutput\u000aPrint n integers. The i-th of them should be equal to 1 if the i-th vertex can be made centroid by replacing no more than one edge, and should be equal to 0 otherwise.\u000aExamples\u000ainput\u000a3\u000a1 2\u000a2 3\u000aoutput\u000a1 1 1 \u000ainput\u000a5\u000a1 2\u000a1 3\u000a1 4\u000a1 5\u000aoutput\u000a1 0 0 0 0 \u000aNote\u000aIn the first sample each vertex can be made a centroid. For example, in order to turn vertex 1 to centroid one have to replace the edge (2,\u20093) with the edge (1,\u20093).
p5
sS'name'
p6
VC. Centroids
p7
sS'tags'
p8
Vdata structures dfs and similar dp greedy trees 
p9
sS'url'
p10
Vhttp://codeforces.com/problemset/problem/708/C
p11
sS'memorylimit'
p12
V512 megabytes
p13
sS'timelimit'
p14
V4 seconds
p15
sS'problemId'
p16
V708/C
p17
sS'id'
p18
c__builtin__
id
p19
sb.