(iCodeforcesProblem
CodeforcesProblem
p0
(dp1
S'desription'
p2
VC. Codeword\u000atime limit per test6 seconds\u000amemory limit per test256 megabytes\u000ainputstandard input\u000aoutputstandard output\u000aThe famous sculptor Cicasso is a Reberlandian spy!\u000aThese is breaking news in Berlandian papers today. And now the sculptor is hiding. This time you give the shelter to the maestro. You have a protected bunker and you provide it to your friend. You set the security system in such way that only you can open the bunker. To open it one should solve the problem which is hard for others but is simple for you.\u000aEvery day the bunker generates a codeword s. Every time someone wants to enter the bunker, integer n appears on the screen. As the answer one should enter another integer \u2014 the residue modulo 109\u2009+\u20097 of the number of strings of length n that consist only of lowercase English letters and contain the string s as the subsequence.\u000aThe subsequence of string a is a string b that can be derived from the string a by removing some symbols from it (maybe none or all of them). In particular any string is the subsequence of itself. For example, the string "cfo" is the subsequence of the string "codeforces".\u000aYou haven't implemented the algorithm that calculates the correct answers yet and you should do that ASAP.\u000aInput\u000aThe first line contains integer m (1\u2009\u2264\u2009m\u2009\u2264\u2009105) \u2014 the number of the events in the test case.\u000aThe second line contains nonempty string s \u2014 the string generated by the bunker for the current day.\u000aThe next m lines contain the description of the events. The description starts from integer t \u2014 the type of the event.\u000aIf t\u2009=\u20091 consider a new day has come and now a new string s is used. In that case the same line contains a new value of the string s.\u000aIf t\u2009=\u20092 integer n is given (1\u2009\u2264\u2009n\u2009\u2264\u2009105). This event means that it's needed to find the answer for the current string s and the value n.\u000aThe sum of lengths of all generated strings doesn't exceed 105. All of the given strings consist only of lowercase English letters.\u000aOutput\u000aFor each query of the type 2 print the answer modulo 109\u2009+\u20097 on the separate line.\u000aExample\u000ainput\u000a3\u000aa\u000a2 2\u000a1 bc\u000a2 5\u000aoutput\u000a51\u000a162626\u000aNote\u000aIn the first event words of the form "a?" and "?a" are counted, where ? is an arbitrary symbol. There are 26 words of each of these types, but the word "aa" satisfies both patterns, so the answer is 51.
p3
sS'problemStatement'
p4
VC. Codeword\u000atime limit per test6 seconds\u000amemory limit per test256 megabytes\u000ainputstandard input\u000aoutputstandard output\u000aThe famous sculptor Cicasso is a Reberlandian spy!\u000aThese is breaking news in Berlandian papers today. And now the sculptor is hiding. This time you give the shelter to the maestro. You have a protected bunker and you provide it to your friend. You set the security system in such way that only you can open the bunker. To open it one should solve the problem which is hard for others but is simple for you.\u000aEvery day the bunker generates a codeword s. Every time someone wants to enter the bunker, integer n appears on the screen. As the answer one should enter another integer \u2014 the residue modulo 109\u2009+\u20097 of the number of strings of length n that consist only of lowercase English letters and contain the string s as the subsequence.\u000aThe subsequence of string a is a string b that can be derived from the string a by removing some symbols from it (maybe none or all of them). In particular any string is the subsequence of itself. For example, the string "cfo" is the subsequence of the string "codeforces".\u000aYou haven't implemented the algorithm that calculates the correct answers yet and you should do that ASAP.\u000aInput\u000aThe first line contains integer m (1\u2009\u2264\u2009m\u2009\u2264\u2009105) \u2014 the number of the events in the test case.\u000aThe second line contains nonempty string s \u2014 the string generated by the bunker for the current day.\u000aThe next m lines contain the description of the events. The description starts from integer t \u2014 the type of the event.\u000aIf t\u2009=\u20091 consider a new day has come and now a new string s is used. In that case the same line contains a new value of the string s.\u000aIf t\u2009=\u20092 integer n is given (1\u2009\u2264\u2009n\u2009\u2264\u2009105). This event means that it's needed to find the answer for the current string s and the value n.\u000aThe sum of lengths of all generated strings doesn't exceed 105. All of the given strings consist only of lowercase English letters.\u000aOutput\u000aFor each query of the type 2 print the answer modulo 109\u2009+\u20097 on the separate line.\u000aExample\u000ainput\u000a3\u000aa\u000a2 2\u000a1 bc\u000a2 5\u000aoutput\u000a51\u000a162626\u000aNote\u000aIn the first event words of the form "a?" and "?a" are counted, where ? is an arbitrary symbol. There are 26 words of each of these types, but the word "aa" satisfies both patterns, so the answer is 51.
p5
sS'name'
p6
VC. Codeword
p7
sS'tags'
p8
Vcombinatorics 
p9
sS'url'
p10
Vhttp://codeforces.com/problemset/problem/666/C
p11
sS'memorylimit'
p12
V256 megabytes
p13
sS'timelimit'
p14
V6 seconds
p15
sS'output'
p16
(lp17
VOutput
p18
aVFor each query of the type 2 print the answer modulo 109\u2009+\u20097 on the separate line.
p19
asS'statement'
p20
(lp21
VC. Codeword
p22
aVtime limit per test6 seconds
p23
aVmemory limit per test256 megabytes
p24
aVinputstandard input
p25
aVoutputstandard output
p26
aVThe famous sculptor Cicasso is a Reberlandian spy!
p27
aVThese is breaking news in Berlandian papers today. And now the sculptor is hiding. This time you give the shelter to the maestro. You have a protected bunker and you provide it to your friend. You set the security system in such way that only you can open the bunker. To open it one should solve the problem which is hard for others but is simple for you.
p28
aVEvery day the bunker generates a codeword s. Every time someone wants to enter the bunker, integer n appears on the screen. As the answer one should enter another integer \u2014 the residue modulo 109\u2009+\u20097 of the number of strings of length n that consist only of lowercase English letters and contain the string s as the subsequence.
p29
aVThe subsequence of string a is a string b that can be derived from the string a by removing some symbols from it (maybe none or all of them). In particular any string is the subsequence of itself. For example, the string "cfo" is the subsequence of the string "codeforces".
p30
aVYou haven't implemented the algorithm that calculates the correct answers yet and you should do that ASAP.
p31
asS'problemId'
p32
V666/C
p33
sS'input'
p34
(lp35
VInput
p36
aVThe first line contains integer m (1\u2009\u2264\u2009m\u2009\u2264\u2009105) \u2014 the number of the events in the test case.
p37
aVThe second line contains nonempty string s \u2014 the string generated by the bunker for the current day.
p38
aVThe next m lines contain the description of the events. The description starts from integer t \u2014 the type of the event.
p39
aVIf t\u2009=\u20091 consider a new day has come and now a new string s is used. In that case the same line contains a new value of the string s.
p40
aVIf t\u2009=\u20092 integer n is given (1\u2009\u2264\u2009n\u2009\u2264\u2009105). This event means that it's needed to find the answer for the current string s and the value n.
p41
aVThe sum of lengths of all generated strings doesn't exceed 105. All of the given strings consist only of lowercase English letters.
p42
asS'id'
p43
c__builtin__
id
p44
sS'constraints'
p45
g35
sb.