(iCodeforcesProblem
CodeforcesProblem
p0
(dp1
S'desription'
p2
VC. Memory and De-Evolution\u000atime limit per test2 seconds\u000amemory limit per test256 megabytes\u000ainputstandard input\u000aoutputstandard output\u000aMemory is now interested in the de-evolution of objects, specifically triangles. He starts with an equilateral triangle of side length x, and he wishes to perform operations to obtain an equilateral triangle of side length y.\u000aIn a single second, he can modify the length of a single side of the current triangle such that it remains a non-degenerate triangle (triangle of positive area). At any moment of time, the length of each side should be integer.\u000aWhat is the minimum number of seconds required for Memory to obtain the equilateral triangle of side length y?\u000aInput\u000aThe first and only line contains two integers x and y (3\u2009\u2264\u2009y\u2009<\u2009x\u2009\u2264\u2009100\u2009000) \u2014 the starting and ending equilateral triangle side lengths respectively.\u000aOutput\u000aPrint a single integer \u2014 the minimum number of seconds required for Memory to obtain the equilateral triangle of side length y if he starts with the equilateral triangle of side length x.\u000aExamples\u000ainput\u000a6 3\u000aoutput\u000a4\u000ainput\u000a8 5\u000aoutput\u000a3\u000ainput\u000a22 4\u000aoutput\u000a6\u000aNote\u000aIn the first sample test, Memory starts with an equilateral triangle of side length 6 and wants one of side length 3. Denote a triangle with sides a, b, and c as (a,\u2009b,\u2009c). Then, Memory can do .\u000aIn the second sample test, Memory can do .\u000aIn the third sample test, Memory can do:\u000a.
p3
sS'problemStatement'
p4
VC. Memory and De-Evolution\u000atime limit per test2 seconds\u000amemory limit per test256 megabytes\u000ainputstandard input\u000aoutputstandard output\u000aMemory is now interested in the de-evolution of objects, specifically triangles. He starts with an equilateral triangle of side length x, and he wishes to perform operations to obtain an equilateral triangle of side length y.\u000aIn a single second, he can modify the length of a single side of the current triangle such that it remains a non-degenerate triangle (triangle of positive area). At any moment of time, the length of each side should be integer.\u000aWhat is the minimum number of seconds required for Memory to obtain the equilateral triangle of side length y?\u000aInput\u000aThe first and only line contains two integers x and y (3\u2009\u2264\u2009y\u2009<\u2009x\u2009\u2264\u2009100\u2009000) \u2014 the starting and ending equilateral triangle side lengths respectively.\u000aOutput\u000aPrint a single integer \u2014 the minimum number of seconds required for Memory to obtain the equilateral triangle of side length y if he starts with the equilateral triangle of side length x.\u000aExamples\u000ainput\u000a6 3\u000aoutput\u000a4\u000ainput\u000a8 5\u000aoutput\u000a3\u000ainput\u000a22 4\u000aoutput\u000a6\u000aNote\u000aIn the first sample test, Memory starts with an equilateral triangle of side length 6 and wants one of side length 3. Denote a triangle with sides a, b, and c as (a,\u2009b,\u2009c). Then, Memory can do .\u000aIn the second sample test, Memory can do .\u000aIn the third sample test, Memory can do:\u000a.
p5
sS'name'
p6
VC. Memory and De-Evolution
p7
sS'tags'
p8
Vgreedy math 
p9
sS'url'
p10
Vhttp://codeforces.com/problemset/problem/712/C
p11
sS'memorylimit'
p12
V256 megabytes
p13
sS'timelimit'
p14
V2 seconds
p15
sS'problemId'
p16
V712/C
p17
sS'id'
p18
c__builtin__
id
p19
sb.