(iCodeforcesProblem
CodeforcesProblem
p0
(dp1
S'desription'
p2
VC. Mike and Chocolate Thieves\u000atime limit per test2 seconds\u000amemory limit per test256 megabytes\u000ainputstandard input\u000aoutputstandard output\u000aBad news came to Mike's village, some thieves stole a bunch of chocolates from the local factory! Horrible!\u000aAside from loving sweet things, thieves from this area are known to be very greedy. So after a thief takes his number of chocolates for himself, the next thief will take exactly k times more than the previous one. The value of k (k\u2009>\u20091) is a secret integer known only to them. It is also known that each thief's bag can carry at most n chocolates (if they intend to take more, the deal is cancelled) and that there were exactly four thieves involved.\u000aSadly, only the thieves know the value of n, but rumours say that the numbers of ways they could have taken the chocolates (for a fixed n, but not fixed k) is m. Two ways are considered different if one of the thieves (they should be numbered in the order they take chocolates) took different number of chocolates in them.\u000aMike want to track the thieves down, so he wants to know what their bags are and value of n will help him in that. Please find the smallest possible value of n or tell him that the rumors are false and there is no such n.\u000aInput\u000aThe single line of input contains the integer m (1\u2009\u2264\u2009m\u2009\u2264\u20091015) \u2014 the number of ways the thieves might steal the chocolates, as rumours say.\u000aOutput\u000aPrint the only integer n \u2014 the maximum amount of chocolates that thieves' bags can carry. If there are more than one n satisfying the rumors, print the smallest one.\u000aIf there is no such n for a false-rumoured m, print \u2009-\u20091.\u000aExamples\u000ainput\u000a1\u000aoutput\u000a8\u000ainput\u000a8\u000aoutput\u000a54\u000ainput\u000a10\u000aoutput\u000a-1\u000aNote\u000aIn the first sample case the smallest n that leads to exactly one way of stealing chocolates is n\u2009=\u20098, whereas the amounts of stealed chocolates are (1,\u20092,\u20094,\u20098) (the number of chocolates stolen by each of the thieves).\u000aIn the second sample case the smallest n that leads to exactly 8 ways is n\u2009=\u200954 with the possibilities: (1,\u20092,\u20094,\u20098),\u2009\u2002(1,\u20093,\u20099,\u200927),\u2009\u2002(2,\u20094,\u20098,\u200916),\u2009\u2002(2,\u20096,\u200918,\u200954),\u2009\u2002(3,\u20096,\u200912,\u200924),\u2009\u2002(4,\u20098,\u200916,\u200932),\u2009\u2002(5,\u200910,\u200920,\u200940),\u2009\u2002(6,\u200912,\u200924,\u200948).\u000aThere is no n leading to exactly 10 ways of stealing chocolates in the third sample case.
p3
sS'problemStatement'
p4
VC. Mike and Chocolate Thieves\u000atime limit per test2 seconds\u000amemory limit per test256 megabytes\u000ainputstandard input\u000aoutputstandard output\u000aBad news came to Mike's village, some thieves stole a bunch of chocolates from the local factory! Horrible!\u000aAside from loving sweet things, thieves from this area are known to be very greedy. So after a thief takes his number of chocolates for himself, the next thief will take exactly k times more than the previous one. The value of k (k\u2009>\u20091) is a secret integer known only to them. It is also known that each thief's bag can carry at most n chocolates (if they intend to take more, the deal is cancelled) and that there were exactly four thieves involved.\u000aSadly, only the thieves know the value of n, but rumours say that the numbers of ways they could have taken the chocolates (for a fixed n, but not fixed k) is m. Two ways are considered different if one of the thieves (they should be numbered in the order they take chocolates) took different number of chocolates in them.\u000aMike want to track the thieves down, so he wants to know what their bags are and value of n will help him in that. Please find the smallest possible value of n or tell him that the rumors are false and there is no such n.\u000aInput\u000aThe single line of input contains the integer m (1\u2009\u2264\u2009m\u2009\u2264\u20091015) \u2014 the number of ways the thieves might steal the chocolates, as rumours say.\u000aOutput\u000aPrint the only integer n \u2014 the maximum amount of chocolates that thieves' bags can carry. If there are more than one n satisfying the rumors, print the smallest one.\u000aIf there is no such n for a false-rumoured m, print \u2009-\u20091.\u000aExamples\u000ainput\u000a1\u000aoutput\u000a8\u000ainput\u000a8\u000aoutput\u000a54\u000ainput\u000a10\u000aoutput\u000a-1\u000aNote\u000aIn the first sample case the smallest n that leads to exactly one way of stealing chocolates is n\u2009=\u20098, whereas the amounts of stealed chocolates are (1,\u20092,\u20094,\u20098) (the number of chocolates stolen by each of the thieves).\u000aIn the second sample case the smallest n that leads to exactly 8 ways is n\u2009=\u200954 with the possibilities: (1,\u20092,\u20094,\u20098),\u2009\u2002(1,\u20093,\u20099,\u200927),\u2009\u2002(2,\u20094,\u20098,\u200916),\u2009\u2002(2,\u20096,\u200918,\u200954),\u2009\u2002(3,\u20096,\u200912,\u200924),\u2009\u2002(4,\u20098,\u200916,\u200932),\u2009\u2002(5,\u200910,\u200920,\u200940),\u2009\u2002(6,\u200912,\u200924,\u200948).\u000aThere is no n leading to exactly 10 ways of stealing chocolates in the third sample case.
p5
sS'name'
p6
VC. Mike and Chocolate Thieves
p7
sS'tags'
p8
Vbinary search math 
p9
sS'url'
p10
Vhttp://codeforces.com/problemset/problem/689/C
p11
sS'memorylimit'
p12
V256 megabytes
p13
sS'timelimit'
p14
V2 seconds
p15
sS'problemId'
p16
V689/C
p17
sS'id'
p18
c__builtin__
id
p19
sb.