(iCodeforcesProblem
CodeforcesProblem
p0
(dp1
S'desription'
p2
VC. Potions Homework\u000atime limit per test1 second\u000amemory limit per test256 megabytes\u000ainputstandard input\u000aoutputstandard output\u000aHarry Water, Ronaldo, Her-my-oh-knee and their friends have started a new school year at their MDCS School of Speechcraft and Misery. At the time, they are very happy to have seen each other after a long time. The sun is shining, birds are singing, flowers are blooming, and their Potions class teacher, professor Snipe is sulky as usual. Due to his angst fueled by disappointment in his own life, he has given them a lot of homework in Potions class.\u000aEach of the n students has been assigned a single task. Some students do certain tasks faster than others. Thus, they want to redistribute the tasks so that each student still does exactly one task, and that all tasks are finished. Each student has their own laziness level, and each task has its own difficulty level. Professor Snipe is trying hard to improve their work ethics, so each student\u2019s laziness level is equal to their task\u2019s difficulty level. Both sets of values are given by the sequence a, where ai represents both the laziness level of the i-th student and the difficulty of his task.\u000aThe time a student needs to finish a task is equal to the product of their laziness level and the task\u2019s difficulty. They are wondering, what is the minimum possible total time they must spend to finish all tasks if they distribute them in the optimal way. Each person should receive one task and each task should be given to one person. Print the answer modulo 10\u2009007.\u000aInput\u000aThe first line of input contains integer n (1\u2009\u2264\u2009n\u2009\u2264\u2009100\u2009000) \u2014 the number of tasks. The next n lines contain exactly one integer number ai (1\u2009\u2264\u2009ai\u2009\u2264\u2009100\u2009000) \u2014 both the difficulty of the initial task and the laziness of the i-th students.\u000aOutput\u000aPrint the minimum total time to finish all tasks modulo 10\u2009007.\u000aExample\u000ainput\u000a2\u000a1\u000a3\u000aoutput\u000a6\u000aNote\u000aIn the first sample, if the students switch their tasks, they will be able to finish them in 3\u2009+\u20093\u2009=\u20096 time units.
p3
sS'problemStatement'
p4
VC. Potions Homework\u000atime limit per test1 second\u000amemory limit per test256 megabytes\u000ainputstandard input\u000aoutputstandard output\u000aHarry Water, Ronaldo, Her-my-oh-knee and their friends have started a new school year at their MDCS School of Speechcraft and Misery. At the time, they are very happy to have seen each other after a long time. The sun is shining, birds are singing, flowers are blooming, and their Potions class teacher, professor Snipe is sulky as usual. Due to his angst fueled by disappointment in his own life, he has given them a lot of homework in Potions class.\u000aEach of the n students has been assigned a single task. Some students do certain tasks faster than others. Thus, they want to redistribute the tasks so that each student still does exactly one task, and that all tasks are finished. Each student has their own laziness level, and each task has its own difficulty level. Professor Snipe is trying hard to improve their work ethics, so each student\u2019s laziness level is equal to their task\u2019s difficulty level. Both sets of values are given by the sequence a, where ai represents both the laziness level of the i-th student and the difficulty of his task.\u000aThe time a student needs to finish a task is equal to the product of their laziness level and the task\u2019s difficulty. They are wondering, what is the minimum possible total time they must spend to finish all tasks if they distribute them in the optimal way. Each person should receive one task and each task should be given to one person. Print the answer modulo 10\u2009007.\u000aInput\u000aThe first line of input contains integer n (1\u2009\u2264\u2009n\u2009\u2264\u2009100\u2009000) \u2014 the number of tasks. The next n lines contain exactly one integer number ai (1\u2009\u2264\u2009ai\u2009\u2264\u2009100\u2009000) \u2014 both the difficulty of the initial task and the laziness of the i-th students.\u000aOutput\u000aPrint the minimum total time to finish all tasks modulo 10\u2009007.\u000aExample\u000ainput\u000a2\u000a1\u000a3\u000aoutput\u000a6\u000aNote\u000aIn the first sample, if the students switch their tasks, they will be able to finish them in 3\u2009+\u20093\u2009=\u20096 time units.
p5
sS'name'
p6
VC. Potions Homework
p7
sS'tags'
p8
Vimplementation sortings 
p9
sS'url'
p10
Vhttp://codeforces.com/problemset/problem/717/C
p11
sS'memorylimit'
p12
V256 megabytes
p13
sS'timelimit'
p14
V1 second
p15
sS'output'
p16
(lp17
VOutput
p18
aVPrint the minimum total time to finish all tasks modulo 10\u2009007.
p19
asS'statement'
p20
(lp21
VC. Potions Homework
p22
aVtime limit per test1 second
p23
aVmemory limit per test256 megabytes
p24
aVinputstandard input
p25
aVoutputstandard output
p26
aVHarry Water, Ronaldo, Her-my-oh-knee and their friends have started a new school year at their MDCS School of Speechcraft and Misery. At the time, they are very happy to have seen each other after a long time. The sun is shining, birds are singing, flowers are blooming, and their Potions class teacher, professor Snipe is sulky as usual. Due to his angst fueled by disappointment in his own life, he has given them a lot of homework in Potions class.
p27
aVEach of the n students has been assigned a single task. Some students do certain tasks faster than others. Thus, they want to redistribute the tasks so that each student still does exactly one task, and that all tasks are finished. Each student has their own laziness level, and each task has its own difficulty level. Professor Snipe is trying hard to improve their work ethics, so each student\u2019s laziness level is equal to their task\u2019s difficulty level. Both sets of values are given by the sequence a, where ai represents both the laziness level of the i-th student and the difficulty of his task.
p28
aVThe time a student needs to finish a task is equal to the product of their laziness level and the task\u2019s difficulty. They are wondering, what is the minimum possible total time they must spend to finish all tasks if they distribute them in the optimal way. Each person should receive one task and each task should be given to one person. Print the answer modulo 10\u2009007.
p29
asS'problemId'
p30
V717/C
p31
sS'input'
p32
(lp33
VInput
p34
aVThe first line of input contains integer n (1\u2009\u2264\u2009n\u2009\u2264\u2009100\u2009000) \u2014 the number of tasks. The next n lines contain exactly one integer number ai (1\u2009\u2264\u2009ai\u2009\u2264\u2009100\u2009000) \u2014 both the difficulty of the initial task and the laziness of the i-th students.
p35
asS'id'
p36
c__builtin__
id
p37
sS'constraints'
p38
g33
sb.