(iCodeforcesProblem
CodeforcesProblem
p0
(dp1
S'desription'
p2
VC. Sanatorium\u000atime limit per test1 second\u000amemory limit per test256 megabytes\u000ainputstandard input\u000aoutputstandard output\u000aVasiliy spent his vacation in a sanatorium, came back and found that he completely forgot details of his vacation!\u000aEvery day there was a breakfast, a dinner and a supper in a dining room of the sanatorium (of course, in this order). The only thing that Vasiliy has now is a card from the dining room contaning notes how many times he had a breakfast, a dinner and a supper (thus, the card contains three integers). Vasiliy could sometimes have missed some meal, for example, he could have had a breakfast and a supper, but a dinner, or, probably, at some days he haven't been at the dining room at all.\u000aVasiliy doesn't remember what was the time of the day when he arrived to sanatorium (before breakfast, before dinner, before supper or after supper), and the time when he left it (before breakfast, before dinner, before supper or after supper). So he considers any of these options. After Vasiliy arrived to the sanatorium, he was there all the time until he left. Please note, that it's possible that Vasiliy left the sanatorium on the same day he arrived.\u000aAccording to the notes in the card, help Vasiliy determine the minimum number of meals in the dining room that he could have missed. We shouldn't count as missed meals on the arrival day before Vasiliy's arrival and meals on the departure day after he left.\u000aInput\u000aThe only line contains three integers b, d and s (0\u2009\u2264\u2009b,\u2009d,\u2009s\u2009\u2264\u20091018,\u2009\u2009b\u2009+\u2009d\u2009+\u2009s\u2009\u2265\u20091) \u2014 the number of breakfasts, dinners and suppers which Vasiliy had during his vacation in the sanatorium.\u000aOutput\u000aPrint single integer \u2014 the minimum possible number of meals which Vasiliy could have missed during his vacation.\u000aExamples\u000ainput\u000a3 2 1\u000aoutput\u000a1\u000a\u000ainput\u000a1 0 0\u000aoutput\u000a0\u000a\u000ainput\u000a1 1 1\u000aoutput\u000a0\u000a\u000ainput\u000a1000000000000000000 0 1000000000000000000\u000aoutput\u000a999999999999999999\u000a\u000a\u000aNote\u000aIn the first sample, Vasiliy could have missed one supper, for example, in case he have arrived before breakfast, have been in the sanatorium for two days (including the day of arrival) and then have left after breakfast on the third day.\u000aIn the second sample, Vasiliy could have arrived before breakfast, have had it, and immediately have left the sanatorium, not missing any meal.\u000aIn the third sample, Vasiliy could have been in the sanatorium for one day, not missing any meal.
p3
sS'problemStatement'
p4
VC. Sanatorium\u000atime limit per test1 second\u000amemory limit per test256 megabytes\u000ainputstandard input\u000aoutputstandard output\u000aVasiliy spent his vacation in a sanatorium, came back and found that he completely forgot details of his vacation!\u000aEvery day there was a breakfast, a dinner and a supper in a dining room of the sanatorium (of course, in this order). The only thing that Vasiliy has now is a card from the dining room contaning notes how many times he had a breakfast, a dinner and a supper (thus, the card contains three integers). Vasiliy could sometimes have missed some meal, for example, he could have had a breakfast and a supper, but a dinner, or, probably, at some days he haven't been at the dining room at all.\u000aVasiliy doesn't remember what was the time of the day when he arrived to sanatorium (before breakfast, before dinner, before supper or after supper), and the time when he left it (before breakfast, before dinner, before supper or after supper). So he considers any of these options. After Vasiliy arrived to the sanatorium, he was there all the time until he left. Please note, that it's possible that Vasiliy left the sanatorium on the same day he arrived.\u000aAccording to the notes in the card, help Vasiliy determine the minimum number of meals in the dining room that he could have missed. We shouldn't count as missed meals on the arrival day before Vasiliy's arrival and meals on the departure day after he left.\u000aInput\u000aThe only line contains three integers b, d and s (0\u2009\u2264\u2009b,\u2009d,\u2009s\u2009\u2264\u20091018,\u2009\u2009b\u2009+\u2009d\u2009+\u2009s\u2009\u2265\u20091) \u2014 the number of breakfasts, dinners and suppers which Vasiliy had during his vacation in the sanatorium.\u000aOutput\u000aPrint single integer \u2014 the minimum possible number of meals which Vasiliy could have missed during his vacation.\u000aExamples\u000ainput\u000a3 2 1\u000aoutput\u000a1\u000a\u000ainput\u000a1 0 0\u000aoutput\u000a0\u000a\u000ainput\u000a1 1 1\u000aoutput\u000a0\u000a\u000ainput\u000a1000000000000000000 0 1000000000000000000\u000aoutput\u000a999999999999999999\u000a\u000a\u000aNote\u000aIn the first sample, Vasiliy could have missed one supper, for example, in case he have arrived before breakfast, have been in the sanatorium for two days (including the day of arrival) and then have left after breakfast on the third day.\u000aIn the second sample, Vasiliy could have arrived before breakfast, have had it, and immediately have left the sanatorium, not missing any meal.\u000aIn the third sample, Vasiliy could have been in the sanatorium for one day, not missing any meal.
p5
sS'name'
p6
VC. Sanatorium
p7
sS'tags'
p8
Vconstructive algorithms greedy 
p9
sS'url'
p10
Vhttp://codeforces.com/problemset/problem/732/C
p11
sS'memorylimit'
p12
V256 megabytes
p13
sS'timelimit'
p14
V1 second
p15
sS'output'
p16
(lp17
VOutput
p18
aVPrint single integer \u2014 the minimum possible number of meals which Vasiliy could have missed during his vacation.
p19
asS'statement'
p20
(lp21
VC. Sanatorium
p22
aVtime limit per test1 second
p23
aVmemory limit per test256 megabytes
p24
aVinputstandard input
p25
aVoutputstandard output
p26
aVVasiliy spent his vacation in a sanatorium, came back and found that he completely forgot details of his vacation!
p27
aVEvery day there was a breakfast, a dinner and a supper in a dining room of the sanatorium (of course, in this order). The only thing that Vasiliy has now is a card from the dining room contaning notes how many times he had a breakfast, a dinner and a supper (thus, the card contains three integers). Vasiliy could sometimes have missed some meal, for example, he could have had a breakfast and a supper, but a dinner, or, probably, at some days he haven't been at the dining room at all.
p28
aVVasiliy doesn't remember what was the time of the day when he arrived to sanatorium (before breakfast, before dinner, before supper or after supper), and the time when he left it (before breakfast, before dinner, before supper or after supper). So he considers any of these options. After Vasiliy arrived to the sanatorium, he was there all the time until he left. Please note, that it's possible that Vasiliy left the sanatorium on the same day he arrived.
p29
aVAccording to the notes in the card, help Vasiliy determine the minimum number of meals in the dining room that he could have missed. We shouldn't count as missed meals on the arrival day before Vasiliy's arrival and meals on the departure day after he left.
p30
asS'problemId'
p31
V732/C
p32
sS'input'
p33
(lp34
VInput
p35
aVThe only line contains three integers b, d and s (0\u2009\u2264\u2009b,\u2009d,\u2009s\u2009\u2264\u20091018,\u2009\u2009b\u2009+\u2009d\u2009+\u2009s\u2009\u2265\u20091) \u2014 the number of breakfasts, dinners and suppers which Vasiliy had during his vacation in the sanatorium.
p36
asS'id'
p37
c__builtin__
id
p38
sS'constraints'
p39
g34
sb.