(iCodeforcesProblem
CodeforcesProblem
p0
(dp1
S'desription'
p2
VC. They Are Everywhere\u000atime limit per test2 seconds\u000amemory limit per test256 megabytes\u000ainputstandard input\u000aoutputstandard output\u000aSergei B., the young coach of Pokemons, has found the big house which consists of n flats ordered in a row from left to right. It is possible to enter each flat from the street. It is possible to go out from each flat. Also, each flat is connected with the flat to the left and the flat to the right. Flat number 1 is only connected with the flat number 2 and the flat number n is only connected with the flat number n\u2009-\u20091.\u000aThere is exactly one Pokemon of some type in each of these flats. Sergei B. asked residents of the house to let him enter their flats in order to catch Pokemons. After consulting the residents of the house decided to let Sergei B. enter one flat from the street, visit several flats and then go out from some flat. But they won't let him visit the same flat more than once.\u000aSergei B. was very pleased, and now he wants to visit as few flats as possible in order to collect Pokemons of all types that appear in this house. Your task is to help him and determine this minimum number of flats he has to visit.\u000aInput\u000aThe first line contains the integer n (1\u2009\u2264\u2009n\u2009\u2264\u2009100\u2009000) \u2014 the number of flats in the house.\u000aThe second line contains the row s with the length n, it consists of uppercase and lowercase letters of English alphabet, the i-th letter equals the type of Pokemon, which is in the flat number i.\u000aOutput\u000aPrint the minimum number of flats which Sergei B. should visit in order to catch Pokemons of all types which there are in the house.\u000aExamples\u000ainput\u000a3\u000aAaA\u000aoutput\u000a2\u000ainput\u000a7\u000abcAAcbc\u000aoutput\u000a3\u000ainput\u000a6\u000aaaBCCe\u000aoutput\u000a5\u000aNote\u000aIn the first test Sergei B. can begin, for example, from the flat number 1 and end in the flat number 2.\u000aIn the second test Sergei B. can begin, for example, from the flat number 4 and end in the flat number 6.\u000aIn the third test Sergei B. must begin from the flat number 2 and end in the flat number 6.
p3
sS'problemStatement'
p4
VC. They Are Everywhere\u000atime limit per test2 seconds\u000amemory limit per test256 megabytes\u000ainputstandard input\u000aoutputstandard output\u000aSergei B., the young coach of Pokemons, has found the big house which consists of n flats ordered in a row from left to right. It is possible to enter each flat from the street. It is possible to go out from each flat. Also, each flat is connected with the flat to the left and the flat to the right. Flat number 1 is only connected with the flat number 2 and the flat number n is only connected with the flat number n\u2009-\u20091.\u000aThere is exactly one Pokemon of some type in each of these flats. Sergei B. asked residents of the house to let him enter their flats in order to catch Pokemons. After consulting the residents of the house decided to let Sergei B. enter one flat from the street, visit several flats and then go out from some flat. But they won't let him visit the same flat more than once.\u000aSergei B. was very pleased, and now he wants to visit as few flats as possible in order to collect Pokemons of all types that appear in this house. Your task is to help him and determine this minimum number of flats he has to visit.\u000aInput\u000aThe first line contains the integer n (1\u2009\u2264\u2009n\u2009\u2264\u2009100\u2009000) \u2014 the number of flats in the house.\u000aThe second line contains the row s with the length n, it consists of uppercase and lowercase letters of English alphabet, the i-th letter equals the type of Pokemon, which is in the flat number i.\u000aOutput\u000aPrint the minimum number of flats which Sergei B. should visit in order to catch Pokemons of all types which there are in the house.\u000aExamples\u000ainput\u000a3\u000aAaA\u000aoutput\u000a2\u000ainput\u000a7\u000abcAAcbc\u000aoutput\u000a3\u000ainput\u000a6\u000aaaBCCe\u000aoutput\u000a5\u000aNote\u000aIn the first test Sergei B. can begin, for example, from the flat number 1 and end in the flat number 2.\u000aIn the second test Sergei B. can begin, for example, from the flat number 4 and end in the flat number 6.\u000aIn the third test Sergei B. must begin from the flat number 2 and end in the flat number 6.
p5
sS'name'
p6
VC. They Are Everywhere
p7
sS'tags'
p8
Vbinary search two pointers 
p9
sS'url'
p10
Vhttp://codeforces.com/problemset/problem/701/C
p11
sS'memorylimit'
p12
V256 megabytes
p13
sS'timelimit'
p14
V2 seconds
p15
sS'problemId'
p16
V701/C
p17
sS'id'
p18
c__builtin__
id
p19
sb.