(iCodeforcesProblem
CodeforcesProblem
p0
(dp1
S'desription'
p2
VC3. Brain Network (hard)\u000atime limit per test2 seconds\u000amemory limit per test256 megabytes\u000ainputstandard input\u000aoutputstandard output\u000aBreaking news from zombie neurology! It turns out that \u2013 contrary to previous beliefs \u2013 every zombie is born with a single brain, and only later it evolves into a complicated brain structure. In fact, whenever a zombie consumes a brain, a new brain appears in its nervous system and gets immediately connected to one of the already existing brains using a single brain connector. Researchers are now interested in monitoring the brain latency of a zombie. Your task is to write a program which, given a history of evolution of a zombie's nervous system, computes its brain latency at every stage.\u000aInput\u000aThe first line of the input contains one number n \u2013 the number of brains in the final nervous system (2\u2009\u2264\u2009n\u2009\u2264\u2009200000). In the second line a history of zombie's nervous system evolution is given. For convenience, we number all the brains by 1,\u20092,\u2009...,\u2009n in the same order as they appear in the nervous system (the zombie is born with a single brain, number 1, and subsequently brains 2,\u20093,\u2009...,\u2009n are added). The second line contains n\u2009-\u20091 space-separated numbers p2,\u2009p3,\u2009...,\u2009pn, meaning that after a new brain k is added to the system, it gets connected to a parent-brain .\u000aOutput\u000aOutput n\u2009-\u20091 space-separated numbers \u2013 the brain latencies after the brain number k is added, for k\u2009=\u20092,\u20093,\u2009...,\u2009n.\u000aExample\u000ainput\u000a6\u000a1\u000a2\u000a2\u000a1\u000a5\u000aoutput\u000a1 2 2 3 4 
p3
sS'problemStatement'
p4
VC3. Brain Network (hard)\u000atime limit per test2 seconds\u000amemory limit per test256 megabytes\u000ainputstandard input\u000aoutputstandard output\u000aBreaking news from zombie neurology! It turns out that \u2013 contrary to previous beliefs \u2013 every zombie is born with a single brain, and only later it evolves into a complicated brain structure. In fact, whenever a zombie consumes a brain, a new brain appears in its nervous system and gets immediately connected to one of the already existing brains using a single brain connector. Researchers are now interested in monitoring the brain latency of a zombie. Your task is to write a program which, given a history of evolution of a zombie's nervous system, computes its brain latency at every stage.\u000aInput\u000aThe first line of the input contains one number n \u2013 the number of brains in the final nervous system (2\u2009\u2264\u2009n\u2009\u2264\u2009200000). In the second line a history of zombie's nervous system evolution is given. For convenience, we number all the brains by 1,\u20092,\u2009...,\u2009n in the same order as they appear in the nervous system (the zombie is born with a single brain, number 1, and subsequently brains 2,\u20093,\u2009...,\u2009n are added). The second line contains n\u2009-\u20091 space-separated numbers p2,\u2009p3,\u2009...,\u2009pn, meaning that after a new brain k is added to the system, it gets connected to a parent-brain .\u000aOutput\u000aOutput n\u2009-\u20091 space-separated numbers \u2013 the brain latencies after the brain number k is added, for k\u2009=\u20092,\u20093,\u2009...,\u2009n.\u000aExample\u000ainput\u000a6\u000a1\u000a2\u000a2\u000a1\u000a5\u000aoutput\u000a1 2 2 3 4 
p5
sS'name'
p6
VC3. Brain Network (hard)
p7
sS'tags'
p8
Vtrees 
p9
sS'url'
p10
Vhttp://codeforces.com/problemset/problem/690/C3
p11
sS'memorylimit'
p12
V256 megabytes
p13
sS'timelimit'
p14
V2 seconds
p15
sS'output'
p16
(lp17
VOutput
p18
aVOutput n\u2009-\u20091 space-separated numbers \u2013 the brain latencies after the brain number k is added, for k\u2009=\u20092,\u20093,\u2009...,\u2009n.
p19
asS'statement'
p20
(lp21
VC3. Brain Network (hard)
p22
aVtime limit per test2 seconds
p23
aVmemory limit per test256 megabytes
p24
aVinputstandard input
p25
aVoutputstandard output
p26
aVBreaking news from zombie neurology! It turns out that \u2013 contrary to previous beliefs \u2013 every zombie is born with a single brain, and only later it evolves into a complicated brain structure. In fact, whenever a zombie consumes a brain, a new brain appears in its nervous system and gets immediately connected to one of the already existing brains using a single brain connector. Researchers are now interested in monitoring the brain latency of a zombie. Your task is to write a program which, given a history of evolution of a zombie's nervous system, computes its brain latency at every stage.
p27
asS'problemId'
p28
V690/C3
p29
sS'input'
p30
(lp31
VInput
p32
aVThe first line of the input contains one number n \u2013 the number of brains in the final nervous system (2\u2009\u2264\u2009n\u2009\u2264\u2009200000). In the second line a history of zombie's nervous system evolution is given. For convenience, we number all the brains by 1,\u20092,\u2009...,\u2009n in the same order as they appear in the nervous system (the zombie is born with a single brain, number 1, and subsequently brains 2,\u20093,\u2009...,\u2009n are added). The second line contains n\u2009-\u20091 space-separated numbers p2,\u2009p3,\u2009...,\u2009pn, meaning that after a new brain k is added to the system, it gets connected to a parent-brain .
p33
asS'id'
p34
c__builtin__
id
p35
sS'constraints'
p36
g31
sb.