(iCodeforcesProblem
CodeforcesProblem
p0
(dp1
S'desription'
p2
VD. Alyona and Strings\u000atime limit per test2 seconds\u000amemory limit per test256 megabytes\u000ainputstandard input\u000aoutputstandard output\u000aAfter returned from forest, Alyona started reading a book. She noticed strings s and t, lengths of which are n and m respectively. As usual, reading bored Alyona and she decided to pay her attention to strings s and t, which she considered very similar.\u000aAlyona has her favourite positive integer k and because she is too small, k does not exceed 10. The girl wants now to choose k disjoint non-empty substrings of string s such that these strings appear as disjoint substrings of string t and in the same order as they do in string s. She is also interested in that their length is maximum possible among all variants.\u000aFormally, Alyona wants to find a sequence of k non-empty strings p1,\u2009p2,\u2009p3,\u2009...,\u2009pk satisfying following conditions:\u000as can be represented as concatenation a1p1a2p2... akpkak\u2009+\u20091, where a1,\u2009a2,\u2009...,\u2009ak\u2009+\u20091 is a sequence of arbitrary strings (some of them may be possibly empty);\u000at can be represented as concatenation b1p1b2p2... bkpkbk\u2009+\u20091, where b1,\u2009b2,\u2009...,\u2009bk\u2009+\u20091 is a sequence of arbitrary strings (some of them may be possibly empty);\u000asum of the lengths of strings in sequence is maximum possible.\u000aPlease help Alyona solve this complicated problem and find at least the sum of the lengths of the strings in a desired sequence.\u000aA substring of a string is a subsequence of consecutive characters of the string.\u000aInput\u000aIn the first line of the input three integers n, m, k (1\u2009\u2264\u2009n,\u2009m\u2009\u2264\u20091000, 1\u2009\u2264\u2009k\u2009\u2264\u200910) are given \u2014 the length of the string s, the length of the string t and Alyona's favourite number respectively.\u000aThe second line of the input contains string s, consisting of lowercase English letters.\u000aThe third line of the input contains string t, consisting of lowercase English letters.\u000aOutput\u000aIn the only line print the only non-negative integer \u2014 the sum of the lengths of the strings in a desired sequence.\u000aIt is guaranteed, that at least one desired sequence exists.\u000aExamples\u000ainput\u000a3 2 2\u000aabc\u000aab\u000aoutput\u000a2\u000ainput\u000a9 12 4\u000abbaaababb\u000aabbbabbaaaba\u000aoutput\u000a7\u000aNote\u000aThe following image describes the answer for the second sample case:
p3
sS'problemStatement'
p4
VD. Alyona and Strings\u000atime limit per test2 seconds\u000amemory limit per test256 megabytes\u000ainputstandard input\u000aoutputstandard output\u000aAfter returned from forest, Alyona started reading a book. She noticed strings s and t, lengths of which are n and m respectively. As usual, reading bored Alyona and she decided to pay her attention to strings s and t, which she considered very similar.\u000aAlyona has her favourite positive integer k and because she is too small, k does not exceed 10. The girl wants now to choose k disjoint non-empty substrings of string s such that these strings appear as disjoint substrings of string t and in the same order as they do in string s. She is also interested in that their length is maximum possible among all variants.\u000aFormally, Alyona wants to find a sequence of k non-empty strings p1,\u2009p2,\u2009p3,\u2009...,\u2009pk satisfying following conditions:\u000as can be represented as concatenation a1p1a2p2... akpkak\u2009+\u20091, where a1,\u2009a2,\u2009...,\u2009ak\u2009+\u20091 is a sequence of arbitrary strings (some of them may be possibly empty);\u000at can be represented as concatenation b1p1b2p2... bkpkbk\u2009+\u20091, where b1,\u2009b2,\u2009...,\u2009bk\u2009+\u20091 is a sequence of arbitrary strings (some of them may be possibly empty);\u000asum of the lengths of strings in sequence is maximum possible.\u000aPlease help Alyona solve this complicated problem and find at least the sum of the lengths of the strings in a desired sequence.\u000aA substring of a string is a subsequence of consecutive characters of the string.\u000aInput\u000aIn the first line of the input three integers n, m, k (1\u2009\u2264\u2009n,\u2009m\u2009\u2264\u20091000, 1\u2009\u2264\u2009k\u2009\u2264\u200910) are given \u2014 the length of the string s, the length of the string t and Alyona's favourite number respectively.\u000aThe second line of the input contains string s, consisting of lowercase English letters.\u000aThe third line of the input contains string t, consisting of lowercase English letters.\u000aOutput\u000aIn the only line print the only non-negative integer \u2014 the sum of the lengths of the strings in a desired sequence.\u000aIt is guaranteed, that at least one desired sequence exists.\u000aExamples\u000ainput\u000a3 2 2\u000aabc\u000aab\u000aoutput\u000a2\u000ainput\u000a9 12 4\u000abbaaababb\u000aabbbabbaaaba\u000aoutput\u000a7\u000aNote\u000aThe following image describes the answer for the second sample case:
p5
sS'name'
p6
VD. Alyona and Strings
p7
sS'tags'
p8
Vdp strings 
p9
sS'url'
p10
Vhttp://codeforces.com/problemset/problem/682/D
p11
sS'memorylimit'
p12
V256 megabytes
p13
sS'timelimit'
p14
V2 seconds
p15
sS'problemId'
p16
V682/D
p17
sS'id'
p18
c__builtin__
id
p19
sb.