(iCodeforcesProblem
CodeforcesProblem
p0
(dp1
S'desription'
p2
VD. Exams\u000atime limit per test1 second\u000amemory limit per test256 megabytes\u000ainputstandard input\u000aoutputstandard output\u000aVasiliy has an exam period which will continue for n days. He has to pass exams on m subjects. Subjects are numbered from 1 to m.\u000aAbout every day we know exam for which one of m subjects can be passed on that day. Perhaps, some day you can't pass any exam. It is not allowed to pass more than one exam on any day.\u000aOn each day Vasiliy can either pass the exam of that day (it takes the whole day) or prepare all day for some exam or have a rest.\u000aAbout each subject Vasiliy know a number ai \u2014 the number of days he should prepare to pass the exam number i. Vasiliy can switch subjects while preparing for exams, it is not necessary to prepare continuously during ai days for the exam number i. He can mix the order of preparation for exams in any way.\u000aYour task is to determine the minimum number of days in which Vasiliy can pass all exams, or determine that it is impossible. Each exam should be passed exactly one time.\u000aInput\u000aThe first line contains two integers n and m (1\u2009\u2264\u2009n,\u2009m\u2009\u2264\u2009105) \u2014 the number of days in the exam period and the number of subjects.\u000aThe second line contains n integers d1,\u2009d2,\u2009...,\u2009dn (0\u2009\u2264\u2009di\u2009\u2264\u2009m), where di is the number of subject, the exam of which can be passed on the day number i. If di equals 0, it is not allowed to pass any exams on the day number i.\u000aThe third line contains m positive integers a1,\u2009a2,\u2009...,\u2009am (1\u2009\u2264\u2009ai\u2009\u2264\u2009105), where ai is the number of days that are needed to prepare before passing the exam on the subject i.\u000aOutput\u000aPrint one integer \u2014 the minimum number of days in which Vasiliy can pass all exams. If it is impossible, print -1.\u000aExamples\u000ainput\u000a7 2\u000a0 1 0 2 1 0 2\u000a2 1\u000aoutput\u000a5\u000ainput\u000a10 3\u000a0 0 1 2 3 0 2 0 1 2\u000a1 1 4\u000aoutput\u000a9\u000ainput\u000a5 1\u000a1 1 1 1 1\u000a5\u000aoutput\u000a-1\u000aNote\u000aIn the first example Vasiliy can behave as follows. On the first and the second day he can prepare for the exam number 1 and pass it on the fifth day, prepare for the exam number 2 on the third day and pass it on the fourth day.\u000aIn the second example Vasiliy should prepare for the exam number 3 during the first four days and pass it on the fifth day. Then on the sixth day he should prepare for the exam number 2 and then pass it on the seventh day. After that he needs to prepare for the exam number 1 on the eighth day and pass it on the ninth day.\u000aIn the third example Vasiliy can't pass the only exam because he hasn't anough time to prepare for it.
p3
sS'problemStatement'
p4
VD. Exams\u000atime limit per test1 second\u000amemory limit per test256 megabytes\u000ainputstandard input\u000aoutputstandard output\u000aVasiliy has an exam period which will continue for n days. He has to pass exams on m subjects. Subjects are numbered from 1 to m.\u000aAbout every day we know exam for which one of m subjects can be passed on that day. Perhaps, some day you can't pass any exam. It is not allowed to pass more than one exam on any day.\u000aOn each day Vasiliy can either pass the exam of that day (it takes the whole day) or prepare all day for some exam or have a rest.\u000aAbout each subject Vasiliy know a number ai \u2014 the number of days he should prepare to pass the exam number i. Vasiliy can switch subjects while preparing for exams, it is not necessary to prepare continuously during ai days for the exam number i. He can mix the order of preparation for exams in any way.\u000aYour task is to determine the minimum number of days in which Vasiliy can pass all exams, or determine that it is impossible. Each exam should be passed exactly one time.\u000aInput\u000aThe first line contains two integers n and m (1\u2009\u2264\u2009n,\u2009m\u2009\u2264\u2009105) \u2014 the number of days in the exam period and the number of subjects.\u000aThe second line contains n integers d1,\u2009d2,\u2009...,\u2009dn (0\u2009\u2264\u2009di\u2009\u2264\u2009m), where di is the number of subject, the exam of which can be passed on the day number i. If di equals 0, it is not allowed to pass any exams on the day number i.\u000aThe third line contains m positive integers a1,\u2009a2,\u2009...,\u2009am (1\u2009\u2264\u2009ai\u2009\u2264\u2009105), where ai is the number of days that are needed to prepare before passing the exam on the subject i.\u000aOutput\u000aPrint one integer \u2014 the minimum number of days in which Vasiliy can pass all exams. If it is impossible, print -1.\u000aExamples\u000ainput\u000a7 2\u000a0 1 0 2 1 0 2\u000a2 1\u000aoutput\u000a5\u000ainput\u000a10 3\u000a0 0 1 2 3 0 2 0 1 2\u000a1 1 4\u000aoutput\u000a9\u000ainput\u000a5 1\u000a1 1 1 1 1\u000a5\u000aoutput\u000a-1\u000aNote\u000aIn the first example Vasiliy can behave as follows. On the first and the second day he can prepare for the exam number 1 and pass it on the fifth day, prepare for the exam number 2 on the third day and pass it on the fourth day.\u000aIn the second example Vasiliy should prepare for the exam number 3 during the first four days and pass it on the fifth day. Then on the sixth day he should prepare for the exam number 2 and then pass it on the seventh day. After that he needs to prepare for the exam number 1 on the eighth day and pass it on the ninth day.\u000aIn the third example Vasiliy can't pass the only exam because he hasn't anough time to prepare for it.
p5
sS'name'
p6
VD. Exams
p7
sS'tags'
p8
Vbinary search greedy sortings 
p9
sS'url'
p10
Vhttp://codeforces.com/problemset/problem/732/D
p11
sS'memorylimit'
p12
V256 megabytes
p13
sS'timelimit'
p14
V1 second
p15
sS'output'
p16
(lp17
VOutput
p18
aVPrint one integer \u2014 the minimum number of days in which Vasiliy can pass all exams. If it is impossible, print -1.
p19
asS'statement'
p20
(lp21
VD. Exams
p22
aVtime limit per test1 second
p23
aVmemory limit per test256 megabytes
p24
aVinputstandard input
p25
aVoutputstandard output
p26
aVVasiliy has an exam period which will continue for n days. He has to pass exams on m subjects. Subjects are numbered from 1 to m.
p27
aVAbout every day we know exam for which one of m subjects can be passed on that day. Perhaps, some day you can't pass any exam. It is not allowed to pass more than one exam on any day.
p28
aVOn each day Vasiliy can either pass the exam of that day (it takes the whole day) or prepare all day for some exam or have a rest.
p29
aVAbout each subject Vasiliy know a number ai \u2014 the number of days he should prepare to pass the exam number i. Vasiliy can switch subjects while preparing for exams, it is not necessary to prepare continuously during ai days for the exam number i. He can mix the order of preparation for exams in any way.
p30
aVYour task is to determine the minimum number of days in which Vasiliy can pass all exams, or determine that it is impossible. Each exam should be passed exactly one time.
p31
asS'problemId'
p32
V732/D
p33
sS'input'
p34
(lp35
VInput
p36
aVThe first line contains two integers n and m (1\u2009\u2264\u2009n,\u2009m\u2009\u2264\u2009105) \u2014 the number of days in the exam period and the number of subjects.
p37
aVThe second line contains n integers d1,\u2009d2,\u2009...,\u2009dn (0\u2009\u2264\u2009di\u2009\u2264\u2009m), where di is the number of subject, the exam of which can be passed on the day number i. If di equals 0, it is not allowed to pass any exams on the day number i.
p38
aVThe third line contains m positive integers a1,\u2009a2,\u2009...,\u2009am (1\u2009\u2264\u2009ai\u2009\u2264\u2009105), where ai is the number of days that are needed to prepare before passing the exam on the subject i.
p39
asS'id'
p40
c__builtin__
id
p41
sS'constraints'
p42
g35
sb.