(iCodeforcesProblem
CodeforcesProblem
p0
(dp1
S'desription'
p2
VD. Iterated Linear Function\u000atime limit per test1 second\u000amemory limit per test256 megabytes\u000ainputstandard input\u000aoutputstandard output\u000aConsider a linear function f(x)\u2009=\u2009Ax\u2009+\u2009B. Let's define g(0)(x)\u2009=\u2009x and g(n)(x)\u2009=\u2009f(g(n\u2009-\u20091)(x)) for n\u2009>\u20090. For the given integer values A, B, n and x find the value of g(n)(x) modulo 109\u2009+\u20097.\u000aInput\u000aThe only line contains four integers A, B, n and x (1\u2009\u2264\u2009A,\u2009B,\u2009x\u2009\u2264\u2009109,\u20091\u2009\u2264\u2009n\u2009\u2264\u20091018) \u2014 the parameters from the problem statement.\u000aNote that the given value n can be too large, so you should use 64-bit integer type to store it. In C++ you can use the long long integer type and in Java you can use long integer type.\u000aOutput\u000aPrint the only integer s \u2014 the value g(n)(x) modulo 109\u2009+\u20097.\u000aExamples\u000ainput\u000a3 4 1 1\u000aoutput\u000a7\u000ainput\u000a3 4 2 1\u000aoutput\u000a25\u000ainput\u000a3 4 3 1\u000aoutput\u000a79
p3
sS'problemStatement'
p4
VD. Iterated Linear Function\u000atime limit per test1 second\u000amemory limit per test256 megabytes\u000ainputstandard input\u000aoutputstandard output\u000aConsider a linear function f(x)\u2009=\u2009Ax\u2009+\u2009B. Let's define g(0)(x)\u2009=\u2009x and g(n)(x)\u2009=\u2009f(g(n\u2009-\u20091)(x)) for n\u2009>\u20090. For the given integer values A, B, n and x find the value of g(n)(x) modulo 109\u2009+\u20097.\u000aInput\u000aThe only line contains four integers A, B, n and x (1\u2009\u2264\u2009A,\u2009B,\u2009x\u2009\u2264\u2009109,\u20091\u2009\u2264\u2009n\u2009\u2264\u20091018) \u2014 the parameters from the problem statement.\u000aNote that the given value n can be too large, so you should use 64-bit integer type to store it. In C++ you can use the long long integer type and in Java you can use long integer type.\u000aOutput\u000aPrint the only integer s \u2014 the value g(n)(x) modulo 109\u2009+\u20097.\u000aExamples\u000ainput\u000a3 4 1 1\u000aoutput\u000a7\u000ainput\u000a3 4 2 1\u000aoutput\u000a25\u000ainput\u000a3 4 3 1\u000aoutput\u000a79
p5
sS'name'
p6
VD. Iterated Linear Function
p7
sS'tags'
p8
Vmath number theory 
p9
sS'url'
p10
Vhttp://codeforces.com/problemset/problem/678/D
p11
sS'memorylimit'
p12
V256 megabytes
p13
sS'timelimit'
p14
V1 second
p15
sS'problemId'
p16
V678/D
p17
sS'id'
p18
c__builtin__
id
p19
sb.