(iCodeforcesProblem
CodeforcesProblem
p0
(dp1
S'desription'
p2
VD. Limak and Shooting Points\u000atime limit per test3 seconds\u000amemory limit per test256 megabytes\u000ainputstandard input\u000aoutputstandard output\u000aBearland is a dangerous place. Limak can\u2019t travel on foot. Instead, he has k magic teleportation stones. Each stone can be used at most once. The i-th stone allows to teleport to a point (axi,\u2009ayi). Limak can use stones in any order.\u000aThere are n monsters in Bearland. The i-th of them stands at (mxi,\u2009myi).\u000aThe given k\u2009+\u2009n points are pairwise distinct.\u000aAfter each teleportation, Limak can shoot an arrow in some direction. An arrow will hit the first monster in the chosen direction. Then, both an arrow and a monster disappear. It\u2019s dangerous to stay in one place for long, so Limak can shoot only one arrow from one place.\u000aA monster should be afraid if it\u2019s possible that Limak will hit it. How many monsters should be afraid of Limak?\u000aInput\u000aThe first line of the input contains two integers k and n (1\u2009\u2264\u2009k\u2009\u2264\u20097, 1\u2009\u2264\u2009n\u2009\u2264\u20091000) \u2014 the number of stones and the number of monsters.\u000aThe i-th of following k lines contains two integers axi and ayi (\u2009-\u2009109\u2009\u2264\u2009axi,\u2009ayi\u2009\u2264\u2009109) \u2014 coordinates to which Limak can teleport using the i-th stone.\u000aThe i-th of last n lines contains two integers mxi and myi (\u2009-\u2009109\u2009\u2264\u2009mxi,\u2009myi\u2009\u2264\u2009109) \u2014 coordinates of the i-th monster.\u000aThe given k\u2009+\u2009n points are pairwise distinct.\u000aOutput\u000aPrint the number of monsters which should be afraid of Limak.\u000aExamples\u000ainput\u000a2 4\u000a-2 -1\u000a4 5\u000a4 2\u000a2 1\u000a4 -1\u000a1 -1\u000aoutput\u000a3\u000ainput\u000a3 8\u000a10 20\u000a0 0\u000a20 40\u000a300 600\u000a30 60\u000a170 340\u000a50 100\u000a28 56\u000a90 180\u000a-4 -8\u000a-1 -2\u000aoutput\u000a5\u000aNote\u000aIn the first sample, there are two stones and four monsters. Stones allow to teleport to points (\u2009-\u20092,\u2009\u2009-\u20091) and (4,\u20095), marked blue in the drawing below. Monsters are at (4,\u20092), (2,\u20091), (4,\u2009\u2009-\u20091) and (1,\u2009\u2009-\u20091), marked red. A monster at (4,\u2009\u2009-\u20091) shouldn't be afraid because it's impossible that Limak will hit it with an arrow. Other three monsters can be hit and thus the answer is 3.\u000aIn the second sample, five monsters should be afraid. Safe monsters are those at (300,\u2009600), (170,\u2009340) and (90,\u2009180).
p3
sS'problemStatement'
p4
VD. Limak and Shooting Points\u000atime limit per test3 seconds\u000amemory limit per test256 megabytes\u000ainputstandard input\u000aoutputstandard output\u000aBearland is a dangerous place. Limak can\u2019t travel on foot. Instead, he has k magic teleportation stones. Each stone can be used at most once. The i-th stone allows to teleport to a point (axi,\u2009ayi). Limak can use stones in any order.\u000aThere are n monsters in Bearland. The i-th of them stands at (mxi,\u2009myi).\u000aThe given k\u2009+\u2009n points are pairwise distinct.\u000aAfter each teleportation, Limak can shoot an arrow in some direction. An arrow will hit the first monster in the chosen direction. Then, both an arrow and a monster disappear. It\u2019s dangerous to stay in one place for long, so Limak can shoot only one arrow from one place.\u000aA monster should be afraid if it\u2019s possible that Limak will hit it. How many monsters should be afraid of Limak?\u000aInput\u000aThe first line of the input contains two integers k and n (1\u2009\u2264\u2009k\u2009\u2264\u20097, 1\u2009\u2264\u2009n\u2009\u2264\u20091000) \u2014 the number of stones and the number of monsters.\u000aThe i-th of following k lines contains two integers axi and ayi (\u2009-\u2009109\u2009\u2264\u2009axi,\u2009ayi\u2009\u2264\u2009109) \u2014 coordinates to which Limak can teleport using the i-th stone.\u000aThe i-th of last n lines contains two integers mxi and myi (\u2009-\u2009109\u2009\u2264\u2009mxi,\u2009myi\u2009\u2264\u2009109) \u2014 coordinates of the i-th monster.\u000aThe given k\u2009+\u2009n points are pairwise distinct.\u000aOutput\u000aPrint the number of monsters which should be afraid of Limak.\u000aExamples\u000ainput\u000a2 4\u000a-2 -1\u000a4 5\u000a4 2\u000a2 1\u000a4 -1\u000a1 -1\u000aoutput\u000a3\u000ainput\u000a3 8\u000a10 20\u000a0 0\u000a20 40\u000a300 600\u000a30 60\u000a170 340\u000a50 100\u000a28 56\u000a90 180\u000a-4 -8\u000a-1 -2\u000aoutput\u000a5\u000aNote\u000aIn the first sample, there are two stones and four monsters. Stones allow to teleport to points (\u2009-\u20092,\u2009\u2009-\u20091) and (4,\u20095), marked blue in the drawing below. Monsters are at (4,\u20092), (2,\u20091), (4,\u2009\u2009-\u20091) and (1,\u2009\u2009-\u20091), marked red. A monster at (4,\u2009\u2009-\u20091) shouldn't be afraid because it's impossible that Limak will hit it with an arrow. Other three monsters can be hit and thus the answer is 3.\u000aIn the second sample, five monsters should be afraid. Safe monsters are those at (300,\u2009600), (170,\u2009340) and (90,\u2009180).
p5
sS'name'
p6
VD. Limak and Shooting Points
p7
sS'tags'
p8
Vbrute force geometry 
p9
sS'url'
p10
Vhttp://codeforces.com/problemset/problem/698/D
p11
sS'memorylimit'
p12
V256 megabytes
p13
sS'timelimit'
p14
V3 seconds
p15
sS'problemId'
p16
V698/D
p17
sS'id'
p18
c__builtin__
id
p19
sb.