(iCodeforcesProblem
CodeforcesProblem
p0
(dp1
S'desription'
p2
VD. Mishka and Interesting sum\u000atime limit per test3.5 seconds\u000amemory limit per test256 megabytes\u000ainputstandard input\u000aoutputstandard output\u000aLittle Mishka enjoys programming. Since her birthday has just passed, her friends decided to present her with array of non-negative integers a1,\u2009a2,\u2009...,\u2009an of n elements!\u000aMishka loved the array and she instantly decided to determine its beauty value, but she is too little and can't process large arrays. Right because of that she invited you to visit her and asked you to process m queries.\u000aEach query is processed in the following way:\u000aTwo integers l and r (1\u2009\u2264\u2009l\u2009\u2264\u2009r\u2009\u2264\u2009n) are specified \u2014 bounds of query segment.\u000aIntegers, presented in array segment [l,\u2009\u2009r] (in sequence of integers al,\u2009al\u2009+\u20091,\u2009...,\u2009ar) even number of times, are written down.\u000aXOR-sum of written down integers is calculated, and this value is the answer for a query. Formally, if integers written down in point 2 are x1,\u2009x2,\u2009...,\u2009xk, then Mishka wants to know the value , where  \u2014 operator of exclusive bitwise OR.\u000aSince only the little bears know the definition of array beauty, all you are to do is to answer each of queries presented.\u000aInput\u000aThe first line of the input contains single integer n (1\u2009\u2264\u2009n\u2009\u2264\u20091\u2009000\u2009000) \u2014 the number of elements in the array.\u000aThe second line of the input contains n integers a1,\u2009a2,\u2009...,\u2009an (1\u2009\u2264\u2009ai\u2009\u2264\u2009109) \u2014 array elements.\u000aThe third line of the input contains single integer m (1\u2009\u2264\u2009m\u2009\u2264\u20091\u2009000\u2009000) \u2014 the number of queries.\u000aEach of the next m lines describes corresponding query by a pair of integers l and r (1\u2009\u2264\u2009l\u2009\u2264\u2009r\u2009\u2264\u2009n) \u2014 the bounds of query segment.\u000aOutput\u000aPrint m non-negative integers \u2014 the answers for the queries in the order they appear in the input.\u000aExamples\u000ainput\u000a3\u000a3 7 8\u000a1\u000a1 3\u000aoutput\u000a0\u000ainput\u000a7\u000a1 2 1 3 3 2 3\u000a5\u000a4 7\u000a4 5\u000a1 3\u000a1 7\u000a1 5\u000aoutput\u000a0\u000a3\u000a1\u000a3\u000a2\u000aNote\u000aIn the second sample:\u000aThere is no integers in the segment of the first query, presented even number of times in the segment \u2014 the answer is 0.\u000aIn the second query there is only integer 3 is presented even number of times \u2014 the answer is 3.\u000aIn the third query only integer 1 is written down \u2014 the answer is 1.\u000aIn the fourth query all array elements are considered. Only 1 and 2 are presented there even number of times. The answer is .\u000aIn the fifth query 1 and 3 are written down. The answer is .
p3
sS'problemStatement'
p4
VD. Mishka and Interesting sum\u000atime limit per test3.5 seconds\u000amemory limit per test256 megabytes\u000ainputstandard input\u000aoutputstandard output\u000aLittle Mishka enjoys programming. Since her birthday has just passed, her friends decided to present her with array of non-negative integers a1,\u2009a2,\u2009...,\u2009an of n elements!\u000aMishka loved the array and she instantly decided to determine its beauty value, but she is too little and can't process large arrays. Right because of that she invited you to visit her and asked you to process m queries.\u000aEach query is processed in the following way:\u000aTwo integers l and r (1\u2009\u2264\u2009l\u2009\u2264\u2009r\u2009\u2264\u2009n) are specified \u2014 bounds of query segment.\u000aIntegers, presented in array segment [l,\u2009\u2009r] (in sequence of integers al,\u2009al\u2009+\u20091,\u2009...,\u2009ar) even number of times, are written down.\u000aXOR-sum of written down integers is calculated, and this value is the answer for a query. Formally, if integers written down in point 2 are x1,\u2009x2,\u2009...,\u2009xk, then Mishka wants to know the value , where  \u2014 operator of exclusive bitwise OR.\u000aSince only the little bears know the definition of array beauty, all you are to do is to answer each of queries presented.\u000aInput\u000aThe first line of the input contains single integer n (1\u2009\u2264\u2009n\u2009\u2264\u20091\u2009000\u2009000) \u2014 the number of elements in the array.\u000aThe second line of the input contains n integers a1,\u2009a2,\u2009...,\u2009an (1\u2009\u2264\u2009ai\u2009\u2264\u2009109) \u2014 array elements.\u000aThe third line of the input contains single integer m (1\u2009\u2264\u2009m\u2009\u2264\u20091\u2009000\u2009000) \u2014 the number of queries.\u000aEach of the next m lines describes corresponding query by a pair of integers l and r (1\u2009\u2264\u2009l\u2009\u2264\u2009r\u2009\u2264\u2009n) \u2014 the bounds of query segment.\u000aOutput\u000aPrint m non-negative integers \u2014 the answers for the queries in the order they appear in the input.\u000aExamples\u000ainput\u000a3\u000a3 7 8\u000a1\u000a1 3\u000aoutput\u000a0\u000ainput\u000a7\u000a1 2 1 3 3 2 3\u000a5\u000a4 7\u000a4 5\u000a1 3\u000a1 7\u000a1 5\u000aoutput\u000a0\u000a3\u000a1\u000a3\u000a2\u000aNote\u000aIn the second sample:\u000aThere is no integers in the segment of the first query, presented even number of times in the segment \u2014 the answer is 0.\u000aIn the second query there is only integer 3 is presented even number of times \u2014 the answer is 3.\u000aIn the third query only integer 1 is written down \u2014 the answer is 1.\u000aIn the fourth query all array elements are considered. Only 1 and 2 are presented there even number of times. The answer is .\u000aIn the fifth query 1 and 3 are written down. The answer is .
p5
sS'name'
p6
VD. Mishka and Interesting sum
p7
sS'tags'
p8
Vdata structures 
p9
sS'url'
p10
Vhttp://codeforces.com/problemset/problem/703/D
p11
sS'memorylimit'
p12
V256 megabytes
p13
sS'timelimit'
p14
V3.5 seconds
p15
sS'problemId'
p16
V703/D
p17
sS'id'
p18
c__builtin__
id
p19
sb.