(iCodeforcesProblem
CodeforcesProblem
p0
(dp1
S'desription'
p2
VD. Recover a functional graph\u000atime limit per test2 seconds\u000amemory limit per test256 megabytes\u000ainputstandard input\u000aoutputstandard output\u000aFunctional graph is a directed graph in which all vertices have outdegree equal to 1. Loops are allowed.\u000aSome vertices of a functional graph lay on a cycle. From the others we can come to a cycle by making a finite number of steps along the edges (we consider only finite functional graphs in this problem).\u000aLet's compute two values for each vertex. precyclei is the amount of edges we should pass to get to a vertex which is a part of some cycle (zero, if i itself lies on a cycle), cyclei is the length of the cycle we get to.\u000aYou are given the information about these values for some functional graph. For each vertex you know the values precyclei and cyclei, however, instead of some values there can be the question mark. It means that these values are unknown.\u000aBuild any functional graph that suits the description or determine that there is no such graph.\u000aInput\u000aThe first line contains single integer n (1\u2009\u2264\u2009n\u2009\u2264\u2009300) \u2014 the number of vertices in the graph.\u000aEach of the next n lines contain two integers \u2014 precyclei (0\u2009\u2264\u2009precyclei\u2009\u2264\u2009n\u2009-\u20091) and cyclei (1\u2009\u2264\u2009cyclei\u2009\u2264\u2009n). There could be question marks instead of some of these values.\u000aOutput\u000aIn case there is no solution, print -1.\u000aOtherwise, print n integers. i-th of them is the number of vertex to which the edge form the i-th vertex go.\u000aThe vertices should be in the same order as they go in input data.\u000aIf there are multiple solutions, print any of them.\u000aExamples\u000ainput\u000a3\u000a0 3\u000a0 3\u000a? ?\u000aoutput\u000a2 3 1 \u000ainput\u000a5\u000a3 2\u000a? ?\u000a? ?\u000a? ?\u000a? ?\u000aoutput\u000a5 3 2 2 4 \u000ainput\u000a8\u000a? 3\u000a? ?\u000a0 2\u000a0 2\u000a0 3\u000a0 3\u000a0 3\u000a3 3\u000aoutput\u000a5 1 4 3 6 7 5 2 \u000ainput\u000a1\u000a? ?\u000aoutput\u000a1 \u000ainput\u000a6\u000a0 3\u000a0 3\u000a0 3\u000a0 3\u000a0 3\u000a0 3\u000aoutput\u000a2 3 1 5 6 4 \u000ainput\u000a2\u000a1 1\u000a1 1\u000aoutput\u000a-1
p3
sS'problemStatement'
p4
VD. Recover a functional graph\u000atime limit per test2 seconds\u000amemory limit per test256 megabytes\u000ainputstandard input\u000aoutputstandard output\u000aFunctional graph is a directed graph in which all vertices have outdegree equal to 1. Loops are allowed.\u000aSome vertices of a functional graph lay on a cycle. From the others we can come to a cycle by making a finite number of steps along the edges (we consider only finite functional graphs in this problem).\u000aLet's compute two values for each vertex. precyclei is the amount of edges we should pass to get to a vertex which is a part of some cycle (zero, if i itself lies on a cycle), cyclei is the length of the cycle we get to.\u000aYou are given the information about these values for some functional graph. For each vertex you know the values precyclei and cyclei, however, instead of some values there can be the question mark. It means that these values are unknown.\u000aBuild any functional graph that suits the description or determine that there is no such graph.\u000aInput\u000aThe first line contains single integer n (1\u2009\u2264\u2009n\u2009\u2264\u2009300) \u2014 the number of vertices in the graph.\u000aEach of the next n lines contain two integers \u2014 precyclei (0\u2009\u2264\u2009precyclei\u2009\u2264\u2009n\u2009-\u20091) and cyclei (1\u2009\u2264\u2009cyclei\u2009\u2264\u2009n). There could be question marks instead of some of these values.\u000aOutput\u000aIn case there is no solution, print -1.\u000aOtherwise, print n integers. i-th of them is the number of vertex to which the edge form the i-th vertex go.\u000aThe vertices should be in the same order as they go in input data.\u000aIf there are multiple solutions, print any of them.\u000aExamples\u000ainput\u000a3\u000a0 3\u000a0 3\u000a? ?\u000aoutput\u000a2 3 1 \u000ainput\u000a5\u000a3 2\u000a? ?\u000a? ?\u000a? ?\u000a? ?\u000aoutput\u000a5 3 2 2 4 \u000ainput\u000a8\u000a? 3\u000a? ?\u000a0 2\u000a0 2\u000a0 3\u000a0 3\u000a0 3\u000a3 3\u000aoutput\u000a5 1 4 3 6 7 5 2 \u000ainput\u000a1\u000a? ?\u000aoutput\u000a1 \u000ainput\u000a6\u000a0 3\u000a0 3\u000a0 3\u000a0 3\u000a0 3\u000a0 3\u000aoutput\u000a2 3 1 5 6 4 \u000ainput\u000a2\u000a1 1\u000a1 1\u000aoutput\u000a-1
p5
sS'name'
p6
VD. Recover a functional graph
p7
sS'tags'
p8
Vgraph matchings 
p9
sS'url'
p10
Vhttp://codeforces.com/problemset/problem/739/D
p11
sS'memorylimit'
p12
V256 megabytes
p13
sS'timelimit'
p14
V2 seconds
p15
sS'problemId'
p16
V739/D
p17
sS'id'
p18
c__builtin__
id
p19
sb.