(iCodeforcesProblem
CodeforcesProblem
p0
(dp1
S'desription'
p2
VD. Swaps in Permutation\u000atime limit per test5 seconds\u000amemory limit per test256 megabytes\u000ainputstandard input\u000aoutputstandard output\u000aYou are given a permutation of the numbers 1,\u20092,\u2009...,\u2009n and m pairs of positions (aj,\u2009bj).\u000aAt each step you can choose a pair from the given positions and swap the numbers in that positions. What is the lexicographically maximal permutation one can get?\u000aLet p and q be two permutations of the numbers 1,\u20092,\u2009...,\u2009n. p is lexicographically smaller than the q if a number 1\u2009\u2264\u2009i\u2009\u2264\u2009n exists, so pk\u2009=\u2009qk for 1\u2009\u2264\u2009k\u2009<\u2009i and pi\u2009<\u2009qi.\u000aInput\u000aThe first line contains two integers n and m (1\u2009\u2264\u2009n,\u2009m\u2009\u2264\u2009106) \u2014 the length of the permutation p and the number of pairs of positions.\u000aThe second line contains n distinct integers pi (1\u2009\u2264\u2009pi\u2009\u2264\u2009n) \u2014 the elements of the permutation p.\u000aEach of the last m lines contains two integers (aj,\u2009bj) (1\u2009\u2264\u2009aj,\u2009bj\u2009\u2264\u2009n) \u2014 the pairs of positions to swap. Note that you are given a positions, not the values to swap.\u000aOutput\u000aPrint the only line with n distinct integers p'i (1\u2009\u2264\u2009p'i\u2009\u2264\u2009n) \u2014 the lexicographically maximal permutation one can get.\u000aExample\u000ainput\u000a9 6\u000a1 2 3 4 5 6 7 8 9\u000a1 4\u000a4 7\u000a2 5\u000a5 8\u000a3 6\u000a6 9\u000aoutput\u000a7 8 9 4 5 6 1 2 3
p3
sS'problemStatement'
p4
VD. Swaps in Permutation\u000atime limit per test5 seconds\u000amemory limit per test256 megabytes\u000ainputstandard input\u000aoutputstandard output\u000aYou are given a permutation of the numbers 1,\u20092,\u2009...,\u2009n and m pairs of positions (aj,\u2009bj).\u000aAt each step you can choose a pair from the given positions and swap the numbers in that positions. What is the lexicographically maximal permutation one can get?\u000aLet p and q be two permutations of the numbers 1,\u20092,\u2009...,\u2009n. p is lexicographically smaller than the q if a number 1\u2009\u2264\u2009i\u2009\u2264\u2009n exists, so pk\u2009=\u2009qk for 1\u2009\u2264\u2009k\u2009<\u2009i and pi\u2009<\u2009qi.\u000aInput\u000aThe first line contains two integers n and m (1\u2009\u2264\u2009n,\u2009m\u2009\u2264\u2009106) \u2014 the length of the permutation p and the number of pairs of positions.\u000aThe second line contains n distinct integers pi (1\u2009\u2264\u2009pi\u2009\u2264\u2009n) \u2014 the elements of the permutation p.\u000aEach of the last m lines contains two integers (aj,\u2009bj) (1\u2009\u2264\u2009aj,\u2009bj\u2009\u2264\u2009n) \u2014 the pairs of positions to swap. Note that you are given a positions, not the values to swap.\u000aOutput\u000aPrint the only line with n distinct integers p'i (1\u2009\u2264\u2009p'i\u2009\u2264\u2009n) \u2014 the lexicographically maximal permutation one can get.\u000aExample\u000ainput\u000a9 6\u000a1 2 3 4 5 6 7 8 9\u000a1 4\u000a4 7\u000a2 5\u000a5 8\u000a3 6\u000a6 9\u000aoutput\u000a7 8 9 4 5 6 1 2 3
p5
sS'name'
p6
VD. Swaps in Permutation
p7
sS'tags'
p8
Vdfs and similar dsu 
p9
sS'url'
p10
Vhttp://codeforces.com/problemset/problem/691/D
p11
sS'memorylimit'
p12
V256 megabytes
p13
sS'timelimit'
p14
V5 seconds
p15
sS'output'
p16
(lp17
VOutput
p18
aVPrint the only line with n distinct integers p'i (1\u2009\u2264\u2009p'i\u2009\u2264\u2009n) \u2014 the lexicographically maximal permutation one can get.
p19
asS'statement'
p20
(lp21
VD. Swaps in Permutation
p22
aVtime limit per test5 seconds
p23
aVmemory limit per test256 megabytes
p24
aVinputstandard input
p25
aVoutputstandard output
p26
aVYou are given a permutation of the numbers 1,\u20092,\u2009...,\u2009n and m pairs of positions (aj,\u2009bj).
p27
aVAt each step you can choose a pair from the given positions and swap the numbers in that positions. What is the lexicographically maximal permutation one can get?
p28
aVLet p and q be two permutations of the numbers 1,\u20092,\u2009...,\u2009n. p is lexicographically smaller than the q if a number 1\u2009\u2264\u2009i\u2009\u2264\u2009n exists, so pk\u2009=\u2009qk for 1\u2009\u2264\u2009k\u2009<\u2009i and pi\u2009<\u2009qi.
p29
asS'problemId'
p30
V691/D
p31
sS'input'
p32
(lp33
VInput
p34
aVThe first line contains two integers n and m (1\u2009\u2264\u2009n,\u2009m\u2009\u2264\u2009106) \u2014 the length of the permutation p and the number of pairs of positions.
p35
aVThe second line contains n distinct integers pi (1\u2009\u2264\u2009pi\u2009\u2264\u2009n) \u2014 the elements of the permutation p.
p36
aVEach of the last m lines contains two integers (aj,\u2009bj) (1\u2009\u2264\u2009aj,\u2009bj\u2009\u2264\u2009n) \u2014 the pairs of positions to swap. Note that you are given a positions, not the values to swap.
p37
asS'id'
p38
c__builtin__
id
p39
sS'constraints'
p40
g33
sb.