(iCodeforcesProblem
CodeforcesProblem
p0
(dp1
S'desription'
p2
VD. Two Arithmetic Progressions\u000atime limit per test1 second\u000amemory limit per test256 megabytes\u000ainputstandard input\u000aoutputstandard output\u000aYou are given two arithmetic progressions: a1k\u2009+\u2009b1 and a2l\u2009+\u2009b2. Find the number of integers x such that L\u2009\u2264\u2009x\u2009\u2264\u2009R and x\u2009=\u2009a1k'\u2009+\u2009b1\u2009=\u2009a2l'\u2009+\u2009b2, for some integers k',\u2009l'\u2009\u2265\u20090.\u000aInput\u000aThe only line contains six integers a1,\u2009b1,\u2009a2,\u2009b2,\u2009L,\u2009R (0\u2009<\u2009a1,\u2009a2\u2009\u2264\u20092109,\u2009\u2009-\u20092109\u2009\u2264\u2009b1,\u2009b2,\u2009L,\u2009R\u2009\u2264\u20092109,\u2009L\u2009\u2264\u2009R).\u000aOutput\u000aPrint the desired number of integers x.\u000aExamples\u000ainput\u000a2 0 3 3 5 21\u000aoutput\u000a3\u000ainput\u000a2 4 3 0 6 17\u000aoutput\u000a2
p3
sS'problemStatement'
p4
VD. Two Arithmetic Progressions\u000atime limit per test1 second\u000amemory limit per test256 megabytes\u000ainputstandard input\u000aoutputstandard output\u000aYou are given two arithmetic progressions: a1k\u2009+\u2009b1 and a2l\u2009+\u2009b2. Find the number of integers x such that L\u2009\u2264\u2009x\u2009\u2264\u2009R and x\u2009=\u2009a1k'\u2009+\u2009b1\u2009=\u2009a2l'\u2009+\u2009b2, for some integers k',\u2009l'\u2009\u2265\u20090.\u000aInput\u000aThe only line contains six integers a1,\u2009b1,\u2009a2,\u2009b2,\u2009L,\u2009R (0\u2009<\u2009a1,\u2009a2\u2009\u2264\u20092109,\u2009\u2009-\u20092109\u2009\u2264\u2009b1,\u2009b2,\u2009L,\u2009R\u2009\u2264\u20092109,\u2009L\u2009\u2264\u2009R).\u000aOutput\u000aPrint the desired number of integers x.\u000aExamples\u000ainput\u000a2 0 3 3 5 21\u000aoutput\u000a3\u000ainput\u000a2 4 3 0 6 17\u000aoutput\u000a2
p5
sS'name'
p6
VD. Two Arithmetic Progressions
p7
sS'tags'
p8
Vmath 
p9
sS'url'
p10
Vhttp://codeforces.com/problemset/problem/710/D
p11
sS'memorylimit'
p12
V256 megabytes
p13
sS'timelimit'
p14
V1 second
p15
sS'problemId'
p16
V710/D
p17
sS'id'
p18
c__builtin__
id
p19
sb.