(iCodeforcesProblem
CodeforcesProblem
p0
(dp1
S'desription'
p2
VD. Tree Construction\u000atime limit per test2 seconds\u000amemory limit per test256 megabytes\u000ainputstandard input\u000aoutputstandard output\u000aDuring the programming classes Vasya was assigned a difficult problem. However, he doesn't know how to code and was unable to find the solution in the Internet, so he asks you to help.\u000aYou are given a sequence a, consisting of n distinct integers, that is used to construct the binary search tree. Below is the formal description of the construction process.\u000aFirst element a1 becomes the root of the tree.\u000aElements a2,\u2009a3,\u2009...,\u2009an are added one by one. To add element ai one needs to traverse the tree starting from the root and using the following rules:\u000aThe pointer to the current node is set to the root.\u000aIf ai is greater than the value in the current node, then its right child becomes the current node. Otherwise, the left child of the current node becomes the new current node.\u000aIf at some point there is no required child, the new node is created, it is assigned value ai and becomes the corresponding child of the current node.\u000aInput\u000aThe first line of the input contains a single integer n (2\u2009\u2264\u2009n\u2009\u2264\u2009100\u2009000) \u2014 the length of the sequence a.\u000aThe second line contains n distinct integers ai (1\u2009\u2264\u2009ai\u2009\u2264\u2009109) \u2014 the sequence a itself.\u000aOutput\u000aOutput n\u2009-\u20091 integers. For all i\u2009>\u20091 print the value written in the node that is the parent of the node with value ai in it.\u000aExamples\u000ainput\u000a3\u000a1 2 3\u000aoutput\u000a1 2\u000ainput\u000a5\u000a4 2 3 1 6\u000aoutput\u000a4 2 2 4\u000aNote\u000aPicture below represents the tree obtained in the first sample.\u000aPicture below represents the tree obtained in the second sample.
p3
sS'problemStatement'
p4
VD. Tree Construction\u000atime limit per test2 seconds\u000amemory limit per test256 megabytes\u000ainputstandard input\u000aoutputstandard output\u000aDuring the programming classes Vasya was assigned a difficult problem. However, he doesn't know how to code and was unable to find the solution in the Internet, so he asks you to help.\u000aYou are given a sequence a, consisting of n distinct integers, that is used to construct the binary search tree. Below is the formal description of the construction process.\u000aFirst element a1 becomes the root of the tree.\u000aElements a2,\u2009a3,\u2009...,\u2009an are added one by one. To add element ai one needs to traverse the tree starting from the root and using the following rules:\u000aThe pointer to the current node is set to the root.\u000aIf ai is greater than the value in the current node, then its right child becomes the current node. Otherwise, the left child of the current node becomes the new current node.\u000aIf at some point there is no required child, the new node is created, it is assigned value ai and becomes the corresponding child of the current node.\u000aInput\u000aThe first line of the input contains a single integer n (2\u2009\u2264\u2009n\u2009\u2264\u2009100\u2009000) \u2014 the length of the sequence a.\u000aThe second line contains n distinct integers ai (1\u2009\u2264\u2009ai\u2009\u2264\u2009109) \u2014 the sequence a itself.\u000aOutput\u000aOutput n\u2009-\u20091 integers. For all i\u2009>\u20091 print the value written in the node that is the parent of the node with value ai in it.\u000aExamples\u000ainput\u000a3\u000a1 2 3\u000aoutput\u000a1 2\u000ainput\u000a5\u000a4 2 3 1 6\u000aoutput\u000a4 2 2 4\u000aNote\u000aPicture below represents the tree obtained in the first sample.\u000aPicture below represents the tree obtained in the second sample.
p5
sS'name'
p6
VD. Tree Construction
p7
sS'tags'
p8
Vdata structures trees 
p9
sS'url'
p10
Vhttp://codeforces.com/problemset/problem/675/D
p11
sS'memorylimit'
p12
V256 megabytes
p13
sS'timelimit'
p14
V2 seconds
p15
sS'problemId'
p16
V675/D
p17
sS'id'
p18
c__builtin__
id
p19
sb.