(iCodeforcesProblem
CodeforcesProblem
p0
(dp1
S'desription'
p2
VD. Vasiliy's Multiset\u000atime limit per test4 seconds\u000amemory limit per test256 megabytes\u000ainputstandard input\u000aoutputstandard output\u000aAuthor has gone out of the stories about Vasiliy, so here is just a formal task description.\u000aYou are given q queries and a multiset A, initially containing only integer 0. There are three types of queries:\u000a"+ x" \u2014 add integer x to multiset A.\u000a"- x" \u2014 erase one occurrence of integer x from multiset A. It's guaranteed that at least one x is present in the multiset A before this query.\u000a"? x" \u2014 you are given integer x and need to compute the value , i.e. the maximum value of bitwise exclusive OR (also know as XOR) of integer x and some integer y from the multiset A.\u000aMultiset is a set, where equal elements are allowed.\u000aInput\u000aThe first line of the input contains a single integer q (1\u2009\u2264\u2009q\u2009\u2264\u2009200\u2009000) \u2014 the number of queries Vasiliy has to perform.\u000aEach of the following q lines of the input contains one of three characters '+', '-' or '?' and an integer xi (1\u2009\u2264\u2009xi\u2009\u2264\u2009109). It's guaranteed that there is at least one query of the third type.\u000aNote, that the integer 0 will always be present in the set A.\u000aOutput\u000aFor each query of the type '?' print one integer \u2014 the maximum value of bitwise exclusive OR (XOR) of integer xi and some integer from the multiset A.\u000aExample\u000ainput\u000a10\u000a+ 8\u000a+ 9\u000a+ 11\u000a+ 6\u000a+ 1\u000a? 3\u000a- 8\u000a? 3\u000a? 8\u000a? 11\u000aoutput\u000a11\u000a10\u000a14\u000a13\u000aNote\u000aAfter first five operations multiset A contains integers 0, 8, 9, 11, 6 and 1.\u000aThe answer for the sixth query is integer  \u2014 maximum among integers , , , and .
p3
sS'problemStatement'
p4
VD. Vasiliy's Multiset\u000atime limit per test4 seconds\u000amemory limit per test256 megabytes\u000ainputstandard input\u000aoutputstandard output\u000aAuthor has gone out of the stories about Vasiliy, so here is just a formal task description.\u000aYou are given q queries and a multiset A, initially containing only integer 0. There are three types of queries:\u000a"+ x" \u2014 add integer x to multiset A.\u000a"- x" \u2014 erase one occurrence of integer x from multiset A. It's guaranteed that at least one x is present in the multiset A before this query.\u000a"? x" \u2014 you are given integer x and need to compute the value , i.e. the maximum value of bitwise exclusive OR (also know as XOR) of integer x and some integer y from the multiset A.\u000aMultiset is a set, where equal elements are allowed.\u000aInput\u000aThe first line of the input contains a single integer q (1\u2009\u2264\u2009q\u2009\u2264\u2009200\u2009000) \u2014 the number of queries Vasiliy has to perform.\u000aEach of the following q lines of the input contains one of three characters '+', '-' or '?' and an integer xi (1\u2009\u2264\u2009xi\u2009\u2264\u2009109). It's guaranteed that there is at least one query of the third type.\u000aNote, that the integer 0 will always be present in the set A.\u000aOutput\u000aFor each query of the type '?' print one integer \u2014 the maximum value of bitwise exclusive OR (XOR) of integer xi and some integer from the multiset A.\u000aExample\u000ainput\u000a10\u000a+ 8\u000a+ 9\u000a+ 11\u000a+ 6\u000a+ 1\u000a? 3\u000a- 8\u000a? 3\u000a? 8\u000a? 11\u000aoutput\u000a11\u000a10\u000a14\u000a13\u000aNote\u000aAfter first five operations multiset A contains integers 0, 8, 9, 11, 6 and 1.\u000aThe answer for the sixth query is integer  \u2014 maximum among integers , , , and .
p5
sS'name'
p6
VD. Vasiliy's Multiset
p7
sS'tags'
p8
Vbinary search data structures trees 
p9
sS'url'
p10
Vhttp://codeforces.com/problemset/problem/706/D
p11
sS'memorylimit'
p12
V256 megabytes
p13
sS'timelimit'
p14
V4 seconds
p15
sS'output'
p16
(lp17
VOutput
p18
aVFor each query of the type '?' print one integer \u2014 the maximum value of bitwise exclusive OR (XOR) of integer xi and some integer from the multiset A.
p19
asS'statement'
p20
(lp21
VD. Vasiliy's Multiset
p22
aVtime limit per test4 seconds
p23
aVmemory limit per test256 megabytes
p24
aVinputstandard input
p25
aVoutputstandard output
p26
aVAuthor has gone out of the stories about Vasiliy, so here is just a formal task description.
p27
aVYou are given q queries and a multiset A, initially containing only integer 0. There are three types of queries:
p28
aV"+ x" \u2014 add integer x to multiset A.
p29
aV"- x" \u2014 erase one occurrence of integer x from multiset A. It's guaranteed that at least one x is present in the multiset A before this query.
p30
aV"? x" \u2014 you are given integer x and need to compute the value , i.e. the maximum value of bitwise exclusive OR (also know as XOR) of integer x and some integer y from the multiset A.
p31
aVMultiset is a set, where equal elements are allowed.
p32
asS'problemId'
p33
V706/D
p34
sS'input'
p35
(lp36
VInput
p37
aVThe first line of the input contains a single integer q (1\u2009\u2264\u2009q\u2009\u2264\u2009200\u2009000) \u2014 the number of queries Vasiliy has to perform.
p38
aVEach of the following q lines of the input contains one of three characters '+', '-' or '?' and an integer xi (1\u2009\u2264\u2009xi\u2009\u2264\u2009109). It's guaranteed that there is at least one query of the third type.
p39
aVNote, that the integer 0 will always be present in the set A.
p40
asS'id'
p41
c__builtin__
id
p42
sS'constraints'
p43
g36
sb.