(iCodeforcesProblem
CodeforcesProblem
p0
(dp1
S'desription'
p2
VE. Alyona and Triangles\u000atime limit per test3 seconds\u000amemory limit per test256 megabytes\u000ainputstandard input\u000aoutputstandard output\u000aYou are given n points with integer coordinates on the plane. Points are given in a way such that there is no triangle, formed by any three of these n points, which area exceeds S.\u000aAlyona tried to construct a triangle with integer coordinates, which contains all n points and which area doesn't exceed 4S, but, by obvious reason, had no success in that. Please help Alyona construct such triangle. Please note that vertices of resulting triangle are not necessarily chosen from n given points.\u000aInput\u000aIn the first line of the input two integers n and S (3\u2009\u2264\u2009n\u2009\u2264\u20095000, 1\u2009\u2264\u2009S\u2009\u2264\u20091018) are given \u2014 the number of points given and the upper bound value of any triangle's area, formed by any three of given n points.\u000aThe next n lines describes given points: ith of them consists of two integers xi and yi (\u2009-\u2009108\u2009\u2264\u2009xi,\u2009yi\u2009\u2264\u2009108) \u2014 coordinates of ith point.\u000aIt is guaranteed that there is at least one triple of points not lying on the same line.\u000aOutput\u000aPrint the coordinates of three points \u2014 vertices of a triangle which contains all n points and which area doesn't exceed 4S.\u000aCoordinates of every triangle's vertex should be printed on a separate line, every coordinate pair should be separated by a single space. Coordinates should be an integers not exceeding 109 by absolute value.\u000aIt is guaranteed that there is at least one desired triangle. If there is more than one answer, print any of them.\u000aExample\u000ainput\u000a4 1\u000a0 0\u000a1 0\u000a0 1\u000a1 1\u000aoutput\u000a-1 0\u000a2 0\u000a0 2\u000aNote
p3
sS'problemStatement'
p4
VE. Alyona and Triangles\u000atime limit per test3 seconds\u000amemory limit per test256 megabytes\u000ainputstandard input\u000aoutputstandard output\u000aYou are given n points with integer coordinates on the plane. Points are given in a way such that there is no triangle, formed by any three of these n points, which area exceeds S.\u000aAlyona tried to construct a triangle with integer coordinates, which contains all n points and which area doesn't exceed 4S, but, by obvious reason, had no success in that. Please help Alyona construct such triangle. Please note that vertices of resulting triangle are not necessarily chosen from n given points.\u000aInput\u000aIn the first line of the input two integers n and S (3\u2009\u2264\u2009n\u2009\u2264\u20095000, 1\u2009\u2264\u2009S\u2009\u2264\u20091018) are given \u2014 the number of points given and the upper bound value of any triangle's area, formed by any three of given n points.\u000aThe next n lines describes given points: ith of them consists of two integers xi and yi (\u2009-\u2009108\u2009\u2264\u2009xi,\u2009yi\u2009\u2264\u2009108) \u2014 coordinates of ith point.\u000aIt is guaranteed that there is at least one triple of points not lying on the same line.\u000aOutput\u000aPrint the coordinates of three points \u2014 vertices of a triangle which contains all n points and which area doesn't exceed 4S.\u000aCoordinates of every triangle's vertex should be printed on a separate line, every coordinate pair should be separated by a single space. Coordinates should be an integers not exceeding 109 by absolute value.\u000aIt is guaranteed that there is at least one desired triangle. If there is more than one answer, print any of them.\u000aExample\u000ainput\u000a4 1\u000a0 0\u000a1 0\u000a0 1\u000a1 1\u000aoutput\u000a-1 0\u000a2 0\u000a0 2\u000aNote
p5
sS'name'
p6
VE. Alyona and Triangles
p7
sS'tags'
p8
Vgeometry two pointers 
p9
sS'url'
p10
Vhttp://codeforces.com/problemset/problem/682/E
p11
sS'memorylimit'
p12
V256 megabytes
p13
sS'timelimit'
p14
V3 seconds
p15
sS'output'
p16
(lp17
VOutput
p18
aVPrint the coordinates of three points \u2014 vertices of a triangle which contains all n points and which area doesn't exceed 4S.
p19
aVCoordinates of every triangle's vertex should be printed on a separate line, every coordinate pair should be separated by a single space. Coordinates should be an integers not exceeding 109 by absolute value.
p20
aVIt is guaranteed that there is at least one desired triangle. If there is more than one answer, print any of them.
p21
asS'statement'
p22
(lp23
VE. Alyona and Triangles
p24
aVtime limit per test3 seconds
p25
aVmemory limit per test256 megabytes
p26
aVinputstandard input
p27
aVoutputstandard output
p28
aVYou are given n points with integer coordinates on the plane. Points are given in a way such that there is no triangle, formed by any three of these n points, which area exceeds S.
p29
aVAlyona tried to construct a triangle with integer coordinates, which contains all n points and which area doesn't exceed 4S, but, by obvious reason, had no success in that. Please help Alyona construct such triangle. Please note that vertices of resulting triangle are not necessarily chosen from n given points.
p30
asS'problemId'
p31
V682/E
p32
sS'input'
p33
(lp34
VInput
p35
aVIn the first line of the input two integers n and S (3\u2009\u2264\u2009n\u2009\u2264\u20095000, 1\u2009\u2264\u2009S\u2009\u2264\u20091018) are given \u2014 the number of points given and the upper bound value of any triangle's area, formed by any three of given n points.
p36
aVThe next n lines describes given points: ith of them consists of two integers xi and yi (\u2009-\u2009108\u2009\u2264\u2009xi,\u2009yi\u2009\u2264\u2009108) \u2014 coordinates of ith point.
p37
aVIt is guaranteed that there is at least one triple of points not lying on the same line.
p38
asS'id'
p39
c__builtin__
id
p40
sS'constraints'
p41
g34
sb.