(iCodeforcesProblem
CodeforcesProblem
p0
(dp1
S'desription'
p2
VE. Analysis of Pathes in Functional Graph\u000atime limit per test2 seconds\u000amemory limit per test512 megabytes\u000ainputstandard input\u000aoutputstandard output\u000aYou are given a functional graph. It is a directed graph, in which from each vertex goes exactly one arc. The vertices are numerated from 0 to n\u2009-\u20091.\u000aGraph is given as the array f0,\u2009f1,\u2009...,\u2009fn\u2009-\u20091, where fi \u2014 the number of vertex to which goes the only arc from the vertex i. Besides you are given array with weights of the arcs w0,\u2009w1,\u2009...,\u2009wn\u2009-\u20091, where wi \u2014 the arc weight from i to fi.\u000aThe graph from the first sample test.\u000aAlso you are given the integer k (the length of the path) and you need to find for each vertex two numbers si and mi, where:\u000asi \u2014 the sum of the weights of all arcs of the path with length equals to k which starts from the vertex i;\u000ami \u2014 the minimal weight from all arcs on the path with length k which starts from the vertex i.\u000aThe length of the path is the number of arcs on this path.\u000aInput\u000aThe first line contains two integers n,\u2009k (1\u2009\u2264\u2009n\u2009\u2264\u2009105,\u20091\u2009\u2264\u2009k\u2009\u2264\u20091010). The second line contains the sequence f0,\u2009f1,\u2009...,\u2009fn\u2009-\u20091 (0\u2009\u2264\u2009fi\u2009<\u2009n) and the third \u2014 the sequence w0,\u2009w1,\u2009...,\u2009wn\u2009-\u20091 (0\u2009\u2264\u2009wi\u2009\u2264\u2009108).\u000aOutput\u000aPrint n lines, the pair of integers si, mi in each line.\u000aExamples\u000ainput\u000a7 3\u000a1 2 3 4 3 2 6\u000a6 3 1 4 2 2 3\u000aoutput\u000a10 1\u000a8 1\u000a7 1\u000a10 2\u000a8 2\u000a7 1\u000a9 3\u000ainput\u000a4 4\u000a0 1 2 3\u000a0 1 2 3\u000aoutput\u000a0 0\u000a4 1\u000a8 2\u000a12 3\u000ainput\u000a5 3\u000a1 2 3 4 0\u000a4 1 2 14 3\u000aoutput\u000a7 1\u000a17 1\u000a19 2\u000a21 3\u000a8 1
p3
sS'problemStatement'
p4
VE. Analysis of Pathes in Functional Graph\u000atime limit per test2 seconds\u000amemory limit per test512 megabytes\u000ainputstandard input\u000aoutputstandard output\u000aYou are given a functional graph. It is a directed graph, in which from each vertex goes exactly one arc. The vertices are numerated from 0 to n\u2009-\u20091.\u000aGraph is given as the array f0,\u2009f1,\u2009...,\u2009fn\u2009-\u20091, where fi \u2014 the number of vertex to which goes the only arc from the vertex i. Besides you are given array with weights of the arcs w0,\u2009w1,\u2009...,\u2009wn\u2009-\u20091, where wi \u2014 the arc weight from i to fi.\u000aThe graph from the first sample test.\u000aAlso you are given the integer k (the length of the path) and you need to find for each vertex two numbers si and mi, where:\u000asi \u2014 the sum of the weights of all arcs of the path with length equals to k which starts from the vertex i;\u000ami \u2014 the minimal weight from all arcs on the path with length k which starts from the vertex i.\u000aThe length of the path is the number of arcs on this path.\u000aInput\u000aThe first line contains two integers n,\u2009k (1\u2009\u2264\u2009n\u2009\u2264\u2009105,\u20091\u2009\u2264\u2009k\u2009\u2264\u20091010). The second line contains the sequence f0,\u2009f1,\u2009...,\u2009fn\u2009-\u20091 (0\u2009\u2264\u2009fi\u2009<\u2009n) and the third \u2014 the sequence w0,\u2009w1,\u2009...,\u2009wn\u2009-\u20091 (0\u2009\u2264\u2009wi\u2009\u2264\u2009108).\u000aOutput\u000aPrint n lines, the pair of integers si, mi in each line.\u000aExamples\u000ainput\u000a7 3\u000a1 2 3 4 3 2 6\u000a6 3 1 4 2 2 3\u000aoutput\u000a10 1\u000a8 1\u000a7 1\u000a10 2\u000a8 2\u000a7 1\u000a9 3\u000ainput\u000a4 4\u000a0 1 2 3\u000a0 1 2 3\u000aoutput\u000a0 0\u000a4 1\u000a8 2\u000a12 3\u000ainput\u000a5 3\u000a1 2 3 4 0\u000a4 1 2 14 3\u000aoutput\u000a7 1\u000a17 1\u000a19 2\u000a21 3\u000a8 1
p5
sS'name'
p6
VE. Analysis of Pathes in Functional Graph
p7
sS'tags'
p8
Vdata structures graphs 
p9
sS'url'
p10
Vhttp://codeforces.com/problemset/problem/702/E
p11
sS'memorylimit'
p12
V512 megabytes
p13
sS'timelimit'
p14
V2 seconds
p15
sS'problemId'
p16
V702/E
p17
sS'id'
p18
c__builtin__
id
p19
sb.