(iCodeforcesProblem
CodeforcesProblem
p0
(dp1
S'desription'
p2
VE. Cool Slogans\u000atime limit per test4 seconds\u000amemory limit per test512 megabytes\u000ainputstandard input\u000aoutputstandard output\u000aBomboslav set up a branding agency and now helps companies to create new logos and advertising slogans. In term of this problems, slogan of the company should be a non-empty substring of its name. For example, if the company name is "hornsandhoofs", then substrings "sand" and "hor" could be its slogans, while strings "e" and "hornss" can not.\u000aSometimes the company performs rebranding and changes its slogan. Slogan A is considered to be cooler than slogan B if B appears in A as a substring at least twice (this occurrences are allowed to overlap). For example, slogan A\u2009=\u2009 "abacaba" is cooler than slogan B\u2009=\u2009 "ba", slogan A\u2009=\u2009 "abcbcbe" is cooler than slogan B\u2009=\u2009 "bcb", but slogan A\u2009=\u2009 "aaaaaa" is not cooler than slogan B\u2009=\u2009 "aba".\u000aYou are given the company name w and your task is to help Bomboslav determine the length of the longest sequence of slogans s1,\u2009s2,\u2009...,\u2009sk, such that any slogan in the sequence is cooler than the previous one.\u000aInput\u000aThe first line of the input contains a single integer n (1\u2009\u2264\u2009n\u2009\u2264\u2009200\u2009000) \u2014 the length of the company name that asks Bomboslav to help. The second line contains the string w of length n, that consists of lowercase English letters.\u000aOutput\u000aPrint a single integer \u2014 the maximum possible length of the sequence of slogans of the company named w, such that any slogan in the sequence (except the first one) is cooler than the previous\u000aExamples\u000ainput\u000a3\u000aabc\u000aoutput\u000a1\u000ainput\u000a5\u000addddd\u000aoutput\u000a5\u000ainput\u000a11\u000aabracadabra\u000aoutput\u000a3
p3
sS'problemStatement'
p4
VE. Cool Slogans\u000atime limit per test4 seconds\u000amemory limit per test512 megabytes\u000ainputstandard input\u000aoutputstandard output\u000aBomboslav set up a branding agency and now helps companies to create new logos and advertising slogans. In term of this problems, slogan of the company should be a non-empty substring of its name. For example, if the company name is "hornsandhoofs", then substrings "sand" and "hor" could be its slogans, while strings "e" and "hornss" can not.\u000aSometimes the company performs rebranding and changes its slogan. Slogan A is considered to be cooler than slogan B if B appears in A as a substring at least twice (this occurrences are allowed to overlap). For example, slogan A\u2009=\u2009 "abacaba" is cooler than slogan B\u2009=\u2009 "ba", slogan A\u2009=\u2009 "abcbcbe" is cooler than slogan B\u2009=\u2009 "bcb", but slogan A\u2009=\u2009 "aaaaaa" is not cooler than slogan B\u2009=\u2009 "aba".\u000aYou are given the company name w and your task is to help Bomboslav determine the length of the longest sequence of slogans s1,\u2009s2,\u2009...,\u2009sk, such that any slogan in the sequence is cooler than the previous one.\u000aInput\u000aThe first line of the input contains a single integer n (1\u2009\u2264\u2009n\u2009\u2264\u2009200\u2009000) \u2014 the length of the company name that asks Bomboslav to help. The second line contains the string w of length n, that consists of lowercase English letters.\u000aOutput\u000aPrint a single integer \u2014 the maximum possible length of the sequence of slogans of the company named w, such that any slogan in the sequence (except the first one) is cooler than the previous\u000aExamples\u000ainput\u000a3\u000aabc\u000aoutput\u000a1\u000ainput\u000a5\u000addddd\u000aoutput\u000a5\u000ainput\u000a11\u000aabracadabra\u000aoutput\u000a3
p5
sS'name'
p6
VE. Cool Slogans
p7
sS'tags'
p8
Vstring suffix structures strings 
p9
sS'url'
p10
Vhttp://codeforces.com/problemset/problem/700/E
p11
sS'memorylimit'
p12
V512 megabytes
p13
sS'timelimit'
p14
V4 seconds
p15
sS'problemId'
p16
V700/E
p17
sS'id'
p18
c__builtin__
id
p19
sb.