(iCodeforcesProblem
CodeforcesProblem
p0
(dp1
S'desription'
p2
VE. Cipher\u000atime limit per test2 seconds\u000amemory limit per test256 megabytes\u000ainputstandard input\u000aoutputstandard output\u000aBorya has recently found a big electronic display. The computer that manages the display stores some integer number. The number has n decimal digits, the display shows the encoded version of the number, where each digit is shown using some lowercase letter of the English alphabet.\u000aThere is a legend near the display, that describes how the number is encoded. For each digit position i and each digit j the character c is known, that encodes this digit at this position. Different digits can have the same code characters.\u000aEach second the number is increased by 1. And one second after a moment when the number reaches the value that is represented as n 9-s in decimal notation, the loud beep sounds.\u000aAndrew knows the number that is stored in the computer. Now he wants to know how many seconds must pass until Borya can definitely tell what was the original number encoded by the display. Assume that Borya can precisely measure time, and that the encoded number will first be increased exactly one second after Borya started watching at the display.\u000aInput\u000aInput data contains multiple test cases. The first line of input contains t (1\u2009\u2264\u2009t\u2009\u2264\u2009100) \u2014 the number of test cases.\u000aEach test case is described as follows. The first line of the description contains n (1\u2009\u2264\u2009n\u2009\u2264\u200918) \u2014 the number of digits in the number. The second line contains n decimal digits without spaces (but possibly with leading zeroes) \u2014 the number initially stored in the display computer. The following n lines contain 10 characters each. The j-th character of the i-th of these lines is the code character for a digit j\u2009-\u20091 in position i, most significant digit positions are described first.\u000aOutput\u000aFor each test case print an integer: the number of seconds until Borya definitely knows what was the initial number stored on the display of the computer. Do not print leading zeroes.\u000aExample\u000ainput\u000a3\u000a2\u000a42\u000aabcdefghij\u000ajihgfedcba\u000a2\u000a42\u000aaaaaaaaaaa\u000aaaaaaaaaaa\u000a1\u000a2\u000aabcdabcdff\u000aoutput\u000a0\u000a58\u000a2
p3
sS'problemStatement'
p4
VE. Cipher\u000atime limit per test2 seconds\u000amemory limit per test256 megabytes\u000ainputstandard input\u000aoutputstandard output\u000aBorya has recently found a big electronic display. The computer that manages the display stores some integer number. The number has n decimal digits, the display shows the encoded version of the number, where each digit is shown using some lowercase letter of the English alphabet.\u000aThere is a legend near the display, that describes how the number is encoded. For each digit position i and each digit j the character c is known, that encodes this digit at this position. Different digits can have the same code characters.\u000aEach second the number is increased by 1. And one second after a moment when the number reaches the value that is represented as n 9-s in decimal notation, the loud beep sounds.\u000aAndrew knows the number that is stored in the computer. Now he wants to know how many seconds must pass until Borya can definitely tell what was the original number encoded by the display. Assume that Borya can precisely measure time, and that the encoded number will first be increased exactly one second after Borya started watching at the display.\u000aInput\u000aInput data contains multiple test cases. The first line of input contains t (1\u2009\u2264\u2009t\u2009\u2264\u2009100) \u2014 the number of test cases.\u000aEach test case is described as follows. The first line of the description contains n (1\u2009\u2264\u2009n\u2009\u2264\u200918) \u2014 the number of digits in the number. The second line contains n decimal digits without spaces (but possibly with leading zeroes) \u2014 the number initially stored in the display computer. The following n lines contain 10 characters each. The j-th character of the i-th of these lines is the code character for a digit j\u2009-\u20091 in position i, most significant digit positions are described first.\u000aOutput\u000aFor each test case print an integer: the number of seconds until Borya definitely knows what was the initial number stored on the display of the computer. Do not print leading zeroes.\u000aExample\u000ainput\u000a3\u000a2\u000a42\u000aabcdefghij\u000ajihgfedcba\u000a2\u000a42\u000aaaaaaaaaaa\u000aaaaaaaaaaa\u000a1\u000a2\u000aabcdabcdff\u000aoutput\u000a0\u000a58\u000a2
p5
sS'name'
p6
VE. Cipher
p7
sS'tags'
p8
S''
p9
sS'url'
p10
Vhttp://codeforces.com/problemset/problem/720/E
p11
sS'memorylimit'
p12
V256 megabytes
p13
sS'timelimit'
p14
V2 seconds
p15
sS'output'
p16
(lp17
VOutput
p18
aVFor each test case print an integer: the number of seconds until Borya definitely knows what was the initial number stored on the display of the computer. Do not print leading zeroes.
p19
asS'statement'
p20
(lp21
VE. Cipher
p22
aVtime limit per test2 seconds
p23
aVmemory limit per test256 megabytes
p24
aVinputstandard input
p25
aVoutputstandard output
p26
aVBorya has recently found a big electronic display. The computer that manages the display stores some integer number. The number has n decimal digits, the display shows the encoded version of the number, where each digit is shown using some lowercase letter of the English alphabet.
p27
aVThere is a legend near the display, that describes how the number is encoded. For each digit position i and each digit j the character c is known, that encodes this digit at this position. Different digits can have the same code characters.
p28
aVEach second the number is increased by 1. And one second after a moment when the number reaches the value that is represented as n 9-s in decimal notation, the loud beep sounds.
p29
aVAndrew knows the number that is stored in the computer. Now he wants to know how many seconds must pass until Borya can definitely tell what was the original number encoded by the display. Assume that Borya can precisely measure time, and that the encoded number will first be increased exactly one second after Borya started watching at the display.
p30
asS'problemId'
p31
V720/E
p32
sS'input'
p33
(lp34
VInput
p35
aVInput data contains multiple test cases. The first line of input contains t (1\u2009\u2264\u2009t\u2009\u2264\u2009100) \u2014 the number of test cases.
p36
aVEach test case is described as follows. The first line of the description contains n (1\u2009\u2264\u2009n\u2009\u2264\u200918) \u2014 the number of digits in the number. The second line contains n decimal digits without spaces (but possibly with leading zeroes) \u2014 the number initially stored in the display computer. The following n lines contain 10 characters each. The j-th character of the i-th of these lines is the code character for a digit j\u2009-\u20091 in position i, most significant digit positions are described first.
p37
asS'id'
p38
c__builtin__
id
p39
sS'constraints'
p40
g34
sb.