(iCodeforcesProblem
CodeforcesProblem
p0
(dp1
S'desription'
p2
VE. Goods transportation\u000atime limit per test2 seconds\u000amemory limit per test256 megabytes\u000ainputstandard input\u000aoutputstandard output\u000aThere are n cities located along the one-way road. Cities are numbered from 1 to n in the direction of the road.\u000aThe i-th city had produced pi units of goods. No more than si units of goods can be sold in the i-th city.\u000aFor each pair of cities i and j such that 1\u2009\u2264\u2009i\u2009<\u2009j\u2009\u2264\u2009n you can no more than once transport no more than c units of goods from the city i to the city j. Note that goods can only be transported from a city with a lesser index to the city with a larger index. You can transport goods between cities in any order.\u000aDetermine the maximum number of produced goods that can be sold in total in all the cities after a sequence of transportations.\u000aInput\u000aThe first line of the input contains two integers n and c (1\u2009\u2264\u2009n\u2009\u2264\u200910\u2009000, 0\u2009\u2264\u2009c\u2009\u2264\u2009109) \u2014 the number of cities and the maximum amount of goods for a single transportation.\u000aThe second line contains n integers pi (0\u2009\u2264\u2009pi\u2009\u2264\u2009109) \u2014 the number of units of goods that were produced in each city.\u000aThe third line of input contains n integers si (0\u2009\u2264\u2009si\u2009\u2264\u2009109) \u2014 the number of units of goods that can be sold in each city.\u000aOutput\u000aPrint the maximum total number of produced goods that can be sold in all cities after a sequence of transportations.\u000aExamples\u000ainput\u000a3 0\u000a1 2 3\u000a3 2 1\u000aoutput\u000a4\u000ainput\u000a5 1\u000a7 4 2 1 0\u000a1 2 3 4 5\u000aoutput\u000a12\u000ainput\u000a4 3\u000a13 10 7 4\u000a4 7 10 13\u000aoutput\u000a34
p3
sS'problemStatement'
p4
VE. Goods transportation\u000atime limit per test2 seconds\u000amemory limit per test256 megabytes\u000ainputstandard input\u000aoutputstandard output\u000aThere are n cities located along the one-way road. Cities are numbered from 1 to n in the direction of the road.\u000aThe i-th city had produced pi units of goods. No more than si units of goods can be sold in the i-th city.\u000aFor each pair of cities i and j such that 1\u2009\u2264\u2009i\u2009<\u2009j\u2009\u2264\u2009n you can no more than once transport no more than c units of goods from the city i to the city j. Note that goods can only be transported from a city with a lesser index to the city with a larger index. You can transport goods between cities in any order.\u000aDetermine the maximum number of produced goods that can be sold in total in all the cities after a sequence of transportations.\u000aInput\u000aThe first line of the input contains two integers n and c (1\u2009\u2264\u2009n\u2009\u2264\u200910\u2009000, 0\u2009\u2264\u2009c\u2009\u2264\u2009109) \u2014 the number of cities and the maximum amount of goods for a single transportation.\u000aThe second line contains n integers pi (0\u2009\u2264\u2009pi\u2009\u2264\u2009109) \u2014 the number of units of goods that were produced in each city.\u000aThe third line of input contains n integers si (0\u2009\u2264\u2009si\u2009\u2264\u2009109) \u2014 the number of units of goods that can be sold in each city.\u000aOutput\u000aPrint the maximum total number of produced goods that can be sold in all cities after a sequence of transportations.\u000aExamples\u000ainput\u000a3 0\u000a1 2 3\u000a3 2 1\u000aoutput\u000a4\u000ainput\u000a5 1\u000a7 4 2 1 0\u000a1 2 3 4 5\u000aoutput\u000a12\u000ainput\u000a4 3\u000a13 10 7 4\u000a4 7 10 13\u000aoutput\u000a34
p5
sS'name'
p6
VE. Goods transportation
p7
sS'tags'
p8
Vdp flows 
p9
sS'url'
p10
Vhttp://codeforces.com/problemset/problem/724/E
p11
sS'memorylimit'
p12
V256 megabytes
p13
sS'timelimit'
p14
V2 seconds
p15
sS'problemId'
p16
V724/E
p17
sS'id'
p18
c__builtin__
id
p19
sb.