(iCodeforcesProblem
CodeforcesProblem
p0
(dp1
S'desription'
p2
VE. Generate a String\u000atime limit per test2 seconds\u000amemory limit per test512 megabytes\u000ainputstandard input\u000aoutputstandard output\u000azscoder wants to generate an input file for some programming competition problem.\u000aHis input is a string consisting of n letters 'a'. He is too lazy to write a generator so he will manually generate the input in a text editor.\u000aInitially, the text editor is empty. It takes him x seconds to insert or delete a letter 'a' from the text file and y seconds to copy the contents of the entire text file, and duplicate it.\u000azscoder wants to find the minimum amount of time needed for him to create the input file of exactly n letters 'a'. Help him to determine the amount of time needed to generate the input.\u000aInput\u000aThe only line contains three integers n, x and y (1\u2009\u2264\u2009n\u2009\u2264\u2009107, 1\u2009\u2264\u2009x,\u2009y\u2009\u2264\u2009109) \u2014 the number of letters 'a' in the input file and the parameters from the problem statement.\u000aOutput\u000aPrint the only integer t \u2014 the minimum amount of time needed to generate the input file.\u000aExamples\u000ainput\u000a8 1 1\u000aoutput\u000a4\u000ainput\u000a8 1 10\u000aoutput\u000a8
p3
sS'problemStatement'
p4
VE. Generate a String\u000atime limit per test2 seconds\u000amemory limit per test512 megabytes\u000ainputstandard input\u000aoutputstandard output\u000azscoder wants to generate an input file for some programming competition problem.\u000aHis input is a string consisting of n letters 'a'. He is too lazy to write a generator so he will manually generate the input in a text editor.\u000aInitially, the text editor is empty. It takes him x seconds to insert or delete a letter 'a' from the text file and y seconds to copy the contents of the entire text file, and duplicate it.\u000azscoder wants to find the minimum amount of time needed for him to create the input file of exactly n letters 'a'. Help him to determine the amount of time needed to generate the input.\u000aInput\u000aThe only line contains three integers n, x and y (1\u2009\u2264\u2009n\u2009\u2264\u2009107, 1\u2009\u2264\u2009x,\u2009y\u2009\u2264\u2009109) \u2014 the number of letters 'a' in the input file and the parameters from the problem statement.\u000aOutput\u000aPrint the only integer t \u2014 the minimum amount of time needed to generate the input file.\u000aExamples\u000ainput\u000a8 1 1\u000aoutput\u000a4\u000ainput\u000a8 1 10\u000aoutput\u000a8
p5
sS'name'
p6
VE. Generate a String
p7
sS'tags'
p8
Vdfs and similar dp 
p9
sS'url'
p10
Vhttp://codeforces.com/problemset/problem/710/E
p11
sS'memorylimit'
p12
V512 megabytes
p13
sS'timelimit'
p14
V2 seconds
p15
sS'problemId'
p16
V710/E
p17
sS'id'
p18
c__builtin__
id
p19
sb.