(iCodeforcesProblem
CodeforcesProblem
p0
(dp1
S'desription'
p2
VE. Vanya and Balloons\u000atime limit per test3 seconds\u000amemory limit per test512 megabytes\u000ainputstandard input\u000aoutputstandard output\u000aVanya plays a game of balloons on the field of size n\u2009\u2009n, where each cell contains a balloon with one of the values 0, 1, 2 or 3. The goal is to destroy a cross, such that the product of all values of balloons in the cross is maximum possible. There are two types of crosses: normal and rotated. For example:\u000a\u000a**o**\u000a**o**\u000aooooo\u000a**o**\u000a**o**\u000aor\u000a\u000ao***o\u000a*o*o*\u000a**o**\u000a*o*o*\u000ao***o\u000aFormally, the cross is given by three integers r, c and d, such that d\u2009\u2264\u2009r,\u2009c\u2009\u2264\u2009n\u2009-\u2009d\u2009+\u20091. The normal cross consists of balloons located in cells (x,\u2009y) (where x stay for the number of the row and y for the number of the column), such that |x\u2009-\u2009r||y\u2009-\u2009c|\u2009=\u20090 and |x\u2009-\u2009r|\u2009+\u2009|y\u2009-\u2009c|\u2009<\u2009d. Rotated cross consists of balloons located in cells (x,\u2009y), such that |x\u2009-\u2009r|\u2009=\u2009|y\u2009-\u2009c| and |x\u2009-\u2009r|\u2009<\u2009d.\u000aVanya wants to know the maximum possible product of the values of balls forming one cross. As this value can be large, output it modulo 109\u2009+\u20097.\u000aInput\u000aThe first line of the input contains a single integer n (1\u2009\u2264\u2009n\u2009\u2264\u20091000) \u2014 the number of rows and columns in the table with balloons.\u000aThe each of the following n lines contains n characters '0', '1', '2' or '3' \u2014 the description of the values in balloons.\u000aOutput\u000aPrint the maximum possible product modulo 109\u2009+\u20097. Note, that you are not asked to maximize the remainder modulo 109\u2009+\u20097, but to find the maximum value and print it this modulo.\u000aExamples\u000ainput\u000a4\u000a1233\u000a0213\u000a2020\u000a0303\u000aoutput\u000a108\u000ainput\u000a5\u000a00300\u000a00300\u000a33333\u000a00300\u000a00300\u000aoutput\u000a19683\u000ainput\u000a5\u000a00003\u000a02030\u000a00300\u000a03020\u000a30000\u000aoutput\u000a108\u000ainput\u000a5\u000a21312\u000a10003\u000a10002\u000a10003\u000a23231\u000aoutput\u000a3\u000ainput\u000a5\u000a12131\u000a12111\u000a12112\u000a21311\u000a21212\u000aoutput\u000a24\u000aNote\u000aIn the first sample, the maximum product is achieved for a rotated cross with a center in the cell (3,\u20093) and radius 1: 22333\u2009=\u2009108.
p3
sS'problemStatement'
p4
VE. Vanya and Balloons\u000atime limit per test3 seconds\u000amemory limit per test512 megabytes\u000ainputstandard input\u000aoutputstandard output\u000aVanya plays a game of balloons on the field of size n\u2009\u2009n, where each cell contains a balloon with one of the values 0, 1, 2 or 3. The goal is to destroy a cross, such that the product of all values of balloons in the cross is maximum possible. There are two types of crosses: normal and rotated. For example:\u000a\u000a**o**\u000a**o**\u000aooooo\u000a**o**\u000a**o**\u000aor\u000a\u000ao***o\u000a*o*o*\u000a**o**\u000a*o*o*\u000ao***o\u000aFormally, the cross is given by three integers r, c and d, such that d\u2009\u2264\u2009r,\u2009c\u2009\u2264\u2009n\u2009-\u2009d\u2009+\u20091. The normal cross consists of balloons located in cells (x,\u2009y) (where x stay for the number of the row and y for the number of the column), such that |x\u2009-\u2009r||y\u2009-\u2009c|\u2009=\u20090 and |x\u2009-\u2009r|\u2009+\u2009|y\u2009-\u2009c|\u2009<\u2009d. Rotated cross consists of balloons located in cells (x,\u2009y), such that |x\u2009-\u2009r|\u2009=\u2009|y\u2009-\u2009c| and |x\u2009-\u2009r|\u2009<\u2009d.\u000aVanya wants to know the maximum possible product of the values of balls forming one cross. As this value can be large, output it modulo 109\u2009+\u20097.\u000aInput\u000aThe first line of the input contains a single integer n (1\u2009\u2264\u2009n\u2009\u2264\u20091000) \u2014 the number of rows and columns in the table with balloons.\u000aThe each of the following n lines contains n characters '0', '1', '2' or '3' \u2014 the description of the values in balloons.\u000aOutput\u000aPrint the maximum possible product modulo 109\u2009+\u20097. Note, that you are not asked to maximize the remainder modulo 109\u2009+\u20097, but to find the maximum value and print it this modulo.\u000aExamples\u000ainput\u000a4\u000a1233\u000a0213\u000a2020\u000a0303\u000aoutput\u000a108\u000ainput\u000a5\u000a00300\u000a00300\u000a33333\u000a00300\u000a00300\u000aoutput\u000a19683\u000ainput\u000a5\u000a00003\u000a02030\u000a00300\u000a03020\u000a30000\u000aoutput\u000a108\u000ainput\u000a5\u000a21312\u000a10003\u000a10002\u000a10003\u000a23231\u000aoutput\u000a3\u000ainput\u000a5\u000a12131\u000a12111\u000a12112\u000a21311\u000a21212\u000aoutput\u000a24\u000aNote\u000aIn the first sample, the maximum product is achieved for a rotated cross with a center in the cell (3,\u20093) and radius 1: 22333\u2009=\u2009108.
p5
sS'name'
p6
VE. Vanya and Balloons
p7
sS'tags'
p8
Vbinary search brute force dp implementation 
p9
sS'url'
p10
Vhttp://codeforces.com/problemset/problem/677/E
p11
sS'memorylimit'
p12
V512 megabytes
p13
sS'timelimit'
p14
V3 seconds
p15
sS'problemId'
p16
V677/E
p17
sS'id'
p18
c__builtin__
id
p19
sb.