(iCodeforcesProblem
CodeforcesProblem
p0
(dp1
S'desription'
p2
VF. Anton and School\u000atime limit per test2 seconds\u000amemory limit per test256 megabytes\u000ainputstandard input\u000aoutputstandard output\u000aAnton goes to school, his favorite lessons are arraystudying. He usually solves all the tasks pretty fast, but this time the teacher gave him a complicated one: given two arrays b and c of length n, find array a, such that:\u000awhere a and b means bitwise AND, while a or b means bitwise OR.\u000aUsually Anton is good in arraystudying, but this problem is too hard, so Anton asks you to help.\u000aInput\u000aThe first line of the input contains a single integers n (1\u2009\u2264\u2009n\u2009\u2264\u2009200\u2009000) \u2014 the size of arrays b and c.\u000aThe second line contains n integers bi (0\u2009\u2264\u2009bi\u2009\u2264\u2009109) \u2014 elements of the array b.\u000aThird line contains n integers ci (0\u2009\u2264\u2009ci\u2009\u2264\u2009109) \u2014 elements of the array c.\u000aOutput\u000aIf there is no solution, print \u2009-\u20091.\u000aOtherwise, the only line of the output should contain n non-negative integers ai \u2014 elements of the array a. If there are multiple possible solutions, you may print any of them.\u000aExamples\u000ainput\u000a4\u000a6 8 4 4\u000a16 22 10 10\u000aoutput\u000a3 5 1 1 \u000ainput\u000a5\u000a8 25 14 7 16\u000a19 6 9 4 25\u000aoutput\u000a-1
p3
sS'problemStatement'
p4
VF. Anton and School\u000atime limit per test2 seconds\u000amemory limit per test256 megabytes\u000ainputstandard input\u000aoutputstandard output\u000aAnton goes to school, his favorite lessons are arraystudying. He usually solves all the tasks pretty fast, but this time the teacher gave him a complicated one: given two arrays b and c of length n, find array a, such that:\u000awhere a and b means bitwise AND, while a or b means bitwise OR.\u000aUsually Anton is good in arraystudying, but this problem is too hard, so Anton asks you to help.\u000aInput\u000aThe first line of the input contains a single integers n (1\u2009\u2264\u2009n\u2009\u2264\u2009200\u2009000) \u2014 the size of arrays b and c.\u000aThe second line contains n integers bi (0\u2009\u2264\u2009bi\u2009\u2264\u2009109) \u2014 elements of the array b.\u000aThird line contains n integers ci (0\u2009\u2264\u2009ci\u2009\u2264\u2009109) \u2014 elements of the array c.\u000aOutput\u000aIf there is no solution, print \u2009-\u20091.\u000aOtherwise, the only line of the output should contain n non-negative integers ai \u2014 elements of the array a. If there are multiple possible solutions, you may print any of them.\u000aExamples\u000ainput\u000a4\u000a6 8 4 4\u000a16 22 10 10\u000aoutput\u000a3 5 1 1 \u000ainput\u000a5\u000a8 25 14 7 16\u000a19 6 9 4 25\u000aoutput\u000a-1
p5
sS'name'
p6
VF. Anton and School
p7
sS'tags'
p8
Vbitmasks constructive algorithms implementation math 
p9
sS'url'
p10
Vhttp://codeforces.com/problemset/problem/734/F
p11
sS'memorylimit'
p12
V256 megabytes
p13
sS'timelimit'
p14
V2 seconds
p15
sS'problemId'
p16
V734/F
p17
sS'id'
p18
c__builtin__
id
p19
sb.