(iCodeforcesProblem
CodeforcesProblem
p0
(dp1
S'desription'
p2
VF. Reformat the String\u000atime limit per test1 second\u000amemory limit per test256 megabytes\u000ainputstandard input\u000aoutputstandard output\u000aIn this problem you are given a string s consisting of uppercase and lowercase Latin letters, spaces, dots and commas. Your task is to correct the formatting of this string by removing and inserting spaces, as well as changing the case of the letters.\u000aAfter formatting, the resulting string must meet the following requirements:\u000athe string must not start with a space;\u000athere should be exactly one space between any two consecutive words;\u000athere should be a Latin letter immediately before a dot or a comma, and there should be a space immediately after a dot or a comma in the case that there is a word after that dot or comma, otherwise that dot or comma must be the last character in the string;\u000aall letters must be lowercase, except all first letters in the first words of the sentences, they must be capitalized. The first word of a sentence is a word that is either the first word of the string or a word after a dot.\u000aIt is guaranteed that there is at least one letter in the given string between any two punctuation marks (commas and dots are punctuation marks). There is at least one letter before the leftmost punctuation mark.\u000aInput\u000aThe first line contains a non-empty string s, consisting of uppercase and lowercase Latin letters, spaces, dots and commas. The length of the given string does not exceed 255. The string is guaranteed to have at least one character other than the space.\u000aOutput\u000aOutput the corrected string which meets all the requirements described in the statement.\u000aExamples\u000ainput\u000a  hello ,i AM veRy GooD.Boris\u000aoutput\u000aHello, i am very good. Boris\u000ainput\u000a       a. b,   C  .   \u000aoutput\u000aA. B, c.
p3
sS'problemStatement'
p4
VF. Reformat the String\u000atime limit per test1 second\u000amemory limit per test256 megabytes\u000ainputstandard input\u000aoutputstandard output\u000aIn this problem you are given a string s consisting of uppercase and lowercase Latin letters, spaces, dots and commas. Your task is to correct the formatting of this string by removing and inserting spaces, as well as changing the case of the letters.\u000aAfter formatting, the resulting string must meet the following requirements:\u000athe string must not start with a space;\u000athere should be exactly one space between any two consecutive words;\u000athere should be a Latin letter immediately before a dot or a comma, and there should be a space immediately after a dot or a comma in the case that there is a word after that dot or comma, otherwise that dot or comma must be the last character in the string;\u000aall letters must be lowercase, except all first letters in the first words of the sentences, they must be capitalized. The first word of a sentence is a word that is either the first word of the string or a word after a dot.\u000aIt is guaranteed that there is at least one letter in the given string between any two punctuation marks (commas and dots are punctuation marks). There is at least one letter before the leftmost punctuation mark.\u000aInput\u000aThe first line contains a non-empty string s, consisting of uppercase and lowercase Latin letters, spaces, dots and commas. The length of the given string does not exceed 255. The string is guaranteed to have at least one character other than the space.\u000aOutput\u000aOutput the corrected string which meets all the requirements described in the statement.\u000aExamples\u000ainput\u000a  hello ,i AM veRy GooD.Boris\u000aoutput\u000aHello, i am very good. Boris\u000ainput\u000a       a. b,   C  .   \u000aoutput\u000aA. B, c.
p5
sS'name'
p6
VF. Reformat the String
p7
sS'tags'
p8
S''
p9
sS'url'
p10
Vhttp://codeforces.com/problemset/problem/683/F
p11
sS'memorylimit'
p12
V256 megabytes
p13
sS'timelimit'
p14
V1 second
p15
sS'problemId'
p16
V683/F
p17
sS'id'
p18
c__builtin__
id
p19
sb.