(iCodeforcesProblem
CodeforcesProblem
p0
(dp1
S'desription'
p2
VF. Tourist Reform\u000atime limit per test4 seconds\u000amemory limit per test256 megabytes\u000ainputstandard input\u000aoutputstandard output\u000aBerland is a tourist country! At least, it can become such \u2014 the government of Berland is confident about this.\u000aThere are n cities in Berland, some pairs of which are connected by two-ways roads. Each road connects two different cities. In Berland there are no roads which connect the same pair of cities. It is possible to get from any city to any other city using given two-ways roads.\u000aAccording to the reform each road will become one-way. It will be oriented to one of two directions.\u000aTo maximize the tourist attraction of Berland, after the reform for each city i the value ri will be calculated. It will equal to the number of cities x for which there is an oriented path from the city i to the city x. In other words, ri will equal the number of cities which can be reached from the city i by roads.\u000aThe government is sure that tourist's attention will be focused on the minimum value of ri.\u000aHelp the government of Berland make the reform to maximize the minimum of ri.\u000aInput\u000aThe first line contains two integers n,\u2009m (2\u2009\u2264\u2009n\u2009\u2264\u2009400\u2009000,\u20091\u2009\u2264\u2009m\u2009\u2264\u2009400\u2009000) \u2014 the number of cities and the number of roads.\u000aThe next m lines describe roads in Berland: the j-th of them contains two integers uj and vj (1\u2009\u2264\u2009uj,\u2009vj\u2009\u2264\u2009n, uj\u2009\u2260\u2009vj), where uj and vj are the numbers of cities which are connected by the j-th road.\u000aThe cities are numbered from 1 to n. It is guaranteed that it is possible to get from any city to any other by following two-ways roads. In Berland there are no roads which connect the same pair of cities.\u000aOutput\u000aIn the first line print single integer \u2014 the maximum possible value min1\u2009\u2264\u2009i\u2009\u2264\u2009n{ri} after the orientation of roads.\u000aThe next m lines must contain the description of roads after the orientation: the j-th of them must contain two integers uj,\u2009vj, it means that the j-th road will be directed from the city uj to the city vj. Print roads in the same order as they are given in the input data.\u000aExample\u000ainput\u000a7 9\u000a4 3\u000a2 6\u000a7 1\u000a4 1\u000a7 3\u000a3 5\u000a7 4\u000a6 5\u000a2 5\u000aoutput\u000a4\u000a4 3\u000a6 2\u000a7 1\u000a1 4\u000a3 7\u000a5 3\u000a7 4\u000a5 6\u000a2 5
p3
sS'problemStatement'
p4
VF. Tourist Reform\u000atime limit per test4 seconds\u000amemory limit per test256 megabytes\u000ainputstandard input\u000aoutputstandard output\u000aBerland is a tourist country! At least, it can become such \u2014 the government of Berland is confident about this.\u000aThere are n cities in Berland, some pairs of which are connected by two-ways roads. Each road connects two different cities. In Berland there are no roads which connect the same pair of cities. It is possible to get from any city to any other city using given two-ways roads.\u000aAccording to the reform each road will become one-way. It will be oriented to one of two directions.\u000aTo maximize the tourist attraction of Berland, after the reform for each city i the value ri will be calculated. It will equal to the number of cities x for which there is an oriented path from the city i to the city x. In other words, ri will equal the number of cities which can be reached from the city i by roads.\u000aThe government is sure that tourist's attention will be focused on the minimum value of ri.\u000aHelp the government of Berland make the reform to maximize the minimum of ri.\u000aInput\u000aThe first line contains two integers n,\u2009m (2\u2009\u2264\u2009n\u2009\u2264\u2009400\u2009000,\u20091\u2009\u2264\u2009m\u2009\u2264\u2009400\u2009000) \u2014 the number of cities and the number of roads.\u000aThe next m lines describe roads in Berland: the j-th of them contains two integers uj and vj (1\u2009\u2264\u2009uj,\u2009vj\u2009\u2264\u2009n, uj\u2009\u2260\u2009vj), where uj and vj are the numbers of cities which are connected by the j-th road.\u000aThe cities are numbered from 1 to n. It is guaranteed that it is possible to get from any city to any other by following two-ways roads. In Berland there are no roads which connect the same pair of cities.\u000aOutput\u000aIn the first line print single integer \u2014 the maximum possible value min1\u2009\u2264\u2009i\u2009\u2264\u2009n{ri} after the orientation of roads.\u000aThe next m lines must contain the description of roads after the orientation: the j-th of them must contain two integers uj,\u2009vj, it means that the j-th road will be directed from the city uj to the city vj. Print roads in the same order as they are given in the input data.\u000aExample\u000ainput\u000a7 9\u000a4 3\u000a2 6\u000a7 1\u000a4 1\u000a7 3\u000a3 5\u000a7 4\u000a6 5\u000a2 5\u000aoutput\u000a4\u000a4 3\u000a6 2\u000a7 1\u000a1 4\u000a3 7\u000a5 3\u000a7 4\u000a5 6\u000a2 5
p5
sS'name'
p6
VF. Tourist Reform
p7
sS'tags'
p8
Vdfs and similar 
p9
sS'url'
p10
Vhttp://codeforces.com/problemset/problem/732/F
p11
sS'memorylimit'
p12
V256 megabytes
p13
sS'timelimit'
p14
V4 seconds
p15
sS'output'
p16
(lp17
VOutput
p18
aVIn the first line print single integer \u2014 the maximum possible value min1\u2009\u2264\u2009i\u2009\u2264\u2009n{ri} after the orientation of roads.
p19
aVThe next m lines must contain the description of roads after the orientation: the j-th of them must contain two integers uj,\u2009vj, it means that the j-th road will be directed from the city uj to the city vj. Print roads in the same order as they are given in the input data.
p20
asS'statement'
p21
(lp22
VF. Tourist Reform
p23
aVtime limit per test4 seconds
p24
aVmemory limit per test256 megabytes
p25
aVinputstandard input
p26
aVoutputstandard output
p27
aVBerland is a tourist country! At least, it can become such \u2014 the government of Berland is confident about this.
p28
aVThere are n cities in Berland, some pairs of which are connected by two-ways roads. Each road connects two different cities. In Berland there are no roads which connect the same pair of cities. It is possible to get from any city to any other city using given two-ways roads.
p29
aVAccording to the reform each road will become one-way. It will be oriented to one of two directions.
p30
aVTo maximize the tourist attraction of Berland, after the reform for each city i the value ri will be calculated. It will equal to the number of cities x for which there is an oriented path from the city i to the city x. In other words, ri will equal the number of cities which can be reached from the city i by roads.
p31
aVThe government is sure that tourist's attention will be focused on the minimum value of ri.
p32
aVHelp the government of Berland make the reform to maximize the minimum of ri.
p33
asS'problemId'
p34
V732/F
p35
sS'input'
p36
(lp37
VInput
p38
aVThe first line contains two integers n,\u2009m (2\u2009\u2264\u2009n\u2009\u2264\u2009400\u2009000,\u20091\u2009\u2264\u2009m\u2009\u2264\u2009400\u2009000) \u2014 the number of cities and the number of roads.
p39
aVThe next m lines describe roads in Berland: the j-th of them contains two integers uj and vj (1\u2009\u2264\u2009uj,\u2009vj\u2009\u2264\u2009n, uj\u2009\u2260\u2009vj), where uj and vj are the numbers of cities which are connected by the j-th road.
p40
aVThe cities are numbered from 1 to n. It is guaranteed that it is possible to get from any city to any other by following two-ways roads. In Berland there are no roads which connect the same pair of cities.
p41
asS'id'
p42
c__builtin__
id
p43
sS'constraints'
p44
g37
sb.