(iCodeforcesProblem
CodeforcesProblem
p0
(dp1
S'desription'
p2
VF. Uniformly Branched Trees\u000atime limit per test1 second\u000amemory limit per test256 megabytes\u000ainputstandard input\u000aoutputstandard output\u000aA tree is a connected graph without cycles.\u000aTwo trees, consisting of n vertices each, are called isomorphic if there exists a permutation p:\u2009{1,\u2009...,\u2009n}\u2009\u2192\u2009{1,\u2009...,\u2009n} such that the edge (u,\u2009v) is present in the first tree if and only if the edge (pu,\u2009pv) is present in the second tree.\u000aVertex of the tree is called internal if its degree is greater than or equal to two.\u000aCount the number of different non-isomorphic trees, consisting of n vertices, such that the degree of each internal vertex is exactly d. Print the answer over the given prime modulo mod.\u000aInput\u000aThe single line of the input contains three integers n, d and mod (1\u2009\u2264\u2009n\u2009\u2264\u20091000, 2\u2009\u2264\u2009d\u2009\u2264\u200910, 108\u2009\u2264\u2009mod\u2009\u2264\u2009109)  \u2014 the number of vertices in the tree, the degree of internal vertices and the prime modulo.\u000aOutput\u000aPrint the number of trees over the modulo mod.\u000aExamples\u000ainput\u000a5 2 433416647\u000aoutput\u000a1\u000ainput\u000a10 3 409693891\u000aoutput\u000a2\u000ainput\u000a65 4 177545087\u000aoutput\u000a910726
p3
sS'problemStatement'
p4
VF. Uniformly Branched Trees\u000atime limit per test1 second\u000amemory limit per test256 megabytes\u000ainputstandard input\u000aoutputstandard output\u000aA tree is a connected graph without cycles.\u000aTwo trees, consisting of n vertices each, are called isomorphic if there exists a permutation p:\u2009{1,\u2009...,\u2009n}\u2009\u2192\u2009{1,\u2009...,\u2009n} such that the edge (u,\u2009v) is present in the first tree if and only if the edge (pu,\u2009pv) is present in the second tree.\u000aVertex of the tree is called internal if its degree is greater than or equal to two.\u000aCount the number of different non-isomorphic trees, consisting of n vertices, such that the degree of each internal vertex is exactly d. Print the answer over the given prime modulo mod.\u000aInput\u000aThe single line of the input contains three integers n, d and mod (1\u2009\u2264\u2009n\u2009\u2264\u20091000, 2\u2009\u2264\u2009d\u2009\u2264\u200910, 108\u2009\u2264\u2009mod\u2009\u2264\u2009109)  \u2014 the number of vertices in the tree, the degree of internal vertices and the prime modulo.\u000aOutput\u000aPrint the number of trees over the modulo mod.\u000aExamples\u000ainput\u000a5 2 433416647\u000aoutput\u000a1\u000ainput\u000a10 3 409693891\u000aoutput\u000a2\u000ainput\u000a65 4 177545087\u000aoutput\u000a910726
p5
sS'name'
p6
VF. Uniformly Branched Trees
p7
sS'tags'
p8
Vcombinatorics 
p9
sS'url'
p10
Vhttp://codeforces.com/problemset/problem/724/F
p11
sS'memorylimit'
p12
V256 megabytes
p13
sS'timelimit'
p14
V1 second
p15
sS'problemId'
p16
V724/F
p17
sS'id'
p18
c__builtin__
id
p19
sb.