(iCodeforcesProblem
CodeforcesProblem
p0
(dp1
S'desription'
p2
VF3. Tree of Life (hard)\u000atime limit per test8 seconds\u000amemory limit per test256 megabytes\u000ainputstandard input\u000aoutputstandard output\u000aTo add insult to injury, the zombies have taken all but two drawings from Heidi! Please help her recover the Tree of Life from only these two drawings.\u000aInput\u000aThe input format is the same as in the medium version, except that now the bound on n is 2\u2009\u2264\u2009n\u2009\u2264\u20091000 and that k\u2009=\u20092.\u000aOutput\u000aThe same as in the medium version.\u000aExample\u000ainput\u000a1\u000a9 2\u000a6\u000a4 3\u000a5 4\u000a6 1\u000a8 6\u000a8 2\u000a7 1\u000a5\u000a8 6\u000a8 7\u000a8 1\u000a7 3\u000a5 1\u000aoutput\u000aYES\u000a2 1\u000a3 1\u000a5 4\u000a6 5\u000a7 6\u000a8 5\u000a9 8\u000a1 4
p3
sS'problemStatement'
p4
VF3. Tree of Life (hard)\u000atime limit per test8 seconds\u000amemory limit per test256 megabytes\u000ainputstandard input\u000aoutputstandard output\u000aTo add insult to injury, the zombies have taken all but two drawings from Heidi! Please help her recover the Tree of Life from only these two drawings.\u000aInput\u000aThe input format is the same as in the medium version, except that now the bound on n is 2\u2009\u2264\u2009n\u2009\u2264\u20091000 and that k\u2009=\u20092.\u000aOutput\u000aThe same as in the medium version.\u000aExample\u000ainput\u000a1\u000a9 2\u000a6\u000a4 3\u000a5 4\u000a6 1\u000a8 6\u000a8 2\u000a7 1\u000a5\u000a8 6\u000a8 7\u000a8 1\u000a7 3\u000a5 1\u000aoutput\u000aYES\u000a2 1\u000a3 1\u000a5 4\u000a6 5\u000a7 6\u000a8 5\u000a9 8\u000a1 4
p5
sS'name'
p6
VF3. Tree of Life (hard)
p7
sS'tags'
p8
Vtrees 
p9
sS'url'
p10
Vhttp://codeforces.com/problemset/problem/690/F3
p11
sS'memorylimit'
p12
V256 megabytes
p13
sS'timelimit'
p14
V8 seconds
p15
sS'output'
p16
(lp17
VOutput
p18
aVThe same as in the medium version.
p19
asS'statement'
p20
(lp21
VF3. Tree of Life (hard)
p22
aVtime limit per test8 seconds
p23
aVmemory limit per test256 megabytes
p24
aVinputstandard input
p25
aVoutputstandard output
p26
aVTo add insult to injury, the zombies have taken all but two drawings from Heidi! Please help her recover the Tree of Life from only these two drawings.
p27
asS'problemId'
p28
V690/F3
p29
sS'input'
p30
(lp31
VInput
p32
aVThe input format is the same as in the medium version, except that now the bound on n is 2\u2009\u2264\u2009n\u2009\u2264\u20091000 and that k\u2009=\u20092.
p33
asS'id'
p34
c__builtin__
id
p35
sS'constraints'
p36
g31
sb.