(iCodeforcesProblem
CodeforcesProblem
p0
(dp1
S'desription'
p2
VG. Xor-matic Number of the Graph\u000atime limit per test2 seconds\u000amemory limit per test256 megabytes\u000ainputstandard input\u000aoutputstandard output\u000aYou are given an undirected graph, constisting of n vertices and m edges. Each edge of the graph has some non-negative integer written on it.\u000aLet's call a triple (u,\u2009v,\u2009s) interesting, if 1\u2009\u2264\u2009u\u2009<\u2009v\u2009\u2264\u2009n and there is a path (possibly non-simple, i.e. it can visit the same vertices and edges multiple times) between vertices u and v such that xor of all numbers written on the edges of this path is equal to s. When we compute the value s for some path, each edge is counted in xor as many times, as it appear on this path. It's not hard to prove that there are finite number of such triples.\u000aCalculate the sum over modulo 109\u2009+\u20097 of the values of s over all interesting triples.\u000aInput\u000aThe first line of the input contains two integers n and m (1\u2009\u2264\u2009n\u2009\u2264\u2009100\u2009000, 0\u2009\u2264\u2009m\u2009\u2264\u2009200\u2009000) \u2014 numbers of vertices and edges in the given graph.\u000aThe follow m lines contain three integers ui, vi and ti (1\u2009\u2264\u2009ui,\u2009vi\u2009\u2264\u2009n, 0\u2009\u2264\u2009ti\u2009\u2264\u20091018, ui\u2009\u2260\u2009vi) \u2014 vertices connected by the edge and integer written on it. It is guaranteed that graph doesn't contain self-loops and multiple edges.\u000aOutput\u000aPrint the single integer, equal to the described sum over modulo 109\u2009+\u20097.\u000aExamples\u000ainput\u000a4 4\u000a1 2 1\u000a1 3 2\u000a2 3 3\u000a3 4 1\u000aoutput\u000a12\u000ainput\u000a4 4\u000a1 2 1\u000a2 3 2\u000a3 4 4\u000a4 1 8\u000aoutput\u000a90\u000ainput\u000a8 6\u000a1 2 2\u000a2 3 1\u000a2 4 4\u000a4 5 5\u000a4 6 3\u000a7 8 5\u000aoutput\u000a62\u000aNote\u000aIn the first example the are 6 interesting triples:\u000a(1,\u20092,\u20091)\u000a(1,\u20093,\u20092)\u000a(1,\u20094,\u20093)\u000a(2,\u20093,\u20093)\u000a(2,\u20094,\u20092)\u000a(3,\u20094,\u20091)\u000aThe sum is equal to 1\u2009+\u20092\u2009+\u20093\u2009+\u20093\u2009+\u20092\u2009+\u20091\u2009=\u200912.\u000aIn the second example the are 12 interesting triples:\u000a(1,\u20092,\u20091)\u000a(2,\u20093,\u20092)\u000a(1,\u20093,\u20093)\u000a(3,\u20094,\u20094)\u000a(2,\u20094,\u20096)\u000a(1,\u20094,\u20097)\u000a(1,\u20094,\u20098)\u000a(2,\u20094,\u20099)\u000a(3,\u20094,\u200911)\u000a(1,\u20093,\u200912)\u000a(2,\u20093,\u200913)\u000a(1,\u20092,\u200914)\u000aThe sum is equal to 1\u2009+\u20092\u2009+\u20093\u2009+\u20094\u2009+\u20096\u2009+\u20097\u2009+\u20098\u2009+\u20099\u2009+\u200911\u2009+\u200912\u2009+\u200913\u2009+\u200914\u2009=\u200990.
p3
sS'problemStatement'
p4
VG. Xor-matic Number of the Graph\u000atime limit per test2 seconds\u000amemory limit per test256 megabytes\u000ainputstandard input\u000aoutputstandard output\u000aYou are given an undirected graph, constisting of n vertices and m edges. Each edge of the graph has some non-negative integer written on it.\u000aLet's call a triple (u,\u2009v,\u2009s) interesting, if 1\u2009\u2264\u2009u\u2009<\u2009v\u2009\u2264\u2009n and there is a path (possibly non-simple, i.e. it can visit the same vertices and edges multiple times) between vertices u and v such that xor of all numbers written on the edges of this path is equal to s. When we compute the value s for some path, each edge is counted in xor as many times, as it appear on this path. It's not hard to prove that there are finite number of such triples.\u000aCalculate the sum over modulo 109\u2009+\u20097 of the values of s over all interesting triples.\u000aInput\u000aThe first line of the input contains two integers n and m (1\u2009\u2264\u2009n\u2009\u2264\u2009100\u2009000, 0\u2009\u2264\u2009m\u2009\u2264\u2009200\u2009000) \u2014 numbers of vertices and edges in the given graph.\u000aThe follow m lines contain three integers ui, vi and ti (1\u2009\u2264\u2009ui,\u2009vi\u2009\u2264\u2009n, 0\u2009\u2264\u2009ti\u2009\u2264\u20091018, ui\u2009\u2260\u2009vi) \u2014 vertices connected by the edge and integer written on it. It is guaranteed that graph doesn't contain self-loops and multiple edges.\u000aOutput\u000aPrint the single integer, equal to the described sum over modulo 109\u2009+\u20097.\u000aExamples\u000ainput\u000a4 4\u000a1 2 1\u000a1 3 2\u000a2 3 3\u000a3 4 1\u000aoutput\u000a12\u000ainput\u000a4 4\u000a1 2 1\u000a2 3 2\u000a3 4 4\u000a4 1 8\u000aoutput\u000a90\u000ainput\u000a8 6\u000a1 2 2\u000a2 3 1\u000a2 4 4\u000a4 5 5\u000a4 6 3\u000a7 8 5\u000aoutput\u000a62\u000aNote\u000aIn the first example the are 6 interesting triples:\u000a(1,\u20092,\u20091)\u000a(1,\u20093,\u20092)\u000a(1,\u20094,\u20093)\u000a(2,\u20093,\u20093)\u000a(2,\u20094,\u20092)\u000a(3,\u20094,\u20091)\u000aThe sum is equal to 1\u2009+\u20092\u2009+\u20093\u2009+\u20093\u2009+\u20092\u2009+\u20091\u2009=\u200912.\u000aIn the second example the are 12 interesting triples:\u000a(1,\u20092,\u20091)\u000a(2,\u20093,\u20092)\u000a(1,\u20093,\u20093)\u000a(3,\u20094,\u20094)\u000a(2,\u20094,\u20096)\u000a(1,\u20094,\u20097)\u000a(1,\u20094,\u20098)\u000a(2,\u20094,\u20099)\u000a(3,\u20094,\u200911)\u000a(1,\u20093,\u200912)\u000a(2,\u20093,\u200913)\u000a(1,\u20092,\u200914)\u000aThe sum is equal to 1\u2009+\u20092\u2009+\u20093\u2009+\u20094\u2009+\u20096\u2009+\u20097\u2009+\u20098\u2009+\u20099\u2009+\u200911\u2009+\u200912\u2009+\u200913\u2009+\u200914\u2009=\u200990.
p5
sS'name'
p6
VG. Xor-matic Number of the Graph
p7
sS'tags'
p8
Vbitmasks graphs math trees 
p9
sS'url'
p10
Vhttp://codeforces.com/problemset/problem/724/G
p11
sS'memorylimit'
p12
V256 megabytes
p13
sS'timelimit'
p14
V2 seconds
p15
sS'problemId'
p16
V724/G
p17
sS'id'
p18
c__builtin__
id
p19
sb.