(iCodeforcesProblem
CodeforcesProblem
p0
(dp1
S'desription'
p2
VH. Exchange of Books\u000atime limit per test1 second\u000amemory limit per test256 megabytes\u000ainputstandard input\u000aoutputstandard output\u000an pupils, who love to read books, study at school. It is known that each student has exactly one best friend, and each pupil is the best friend of exactly one other pupil. Each of the pupils has exactly one interesting book.\u000aThe pupils decided to share books with each other. Every day, all pupils give their own books to their best friends. Thus, every day each of the pupils has exactly one book.\u000aYour task is to use the list of the best friends and determine the exchange of books among pupils after k days. For simplicity, all students are numbered from 1 to n in all tests.\u000aInput\u000aThe first line contains two integers n and k (2\u2009\u2264\u2009n\u2009\u2264\u2009100000,\u20091\u2009\u2264\u2009k\u2009\u2264\u20091016) \u2014 the number of pupils and days during which they will exchange books.\u000aThe second line contains n different integers ai (1\u2009\u2264\u2009ai\u2009\u2264\u2009n), where ai is equal to the number of the pupil who has the best friend with the number i.\u000aIt is guaranteed that no pupil is the best friend of himself.\u000aOutput\u000aIn a single line print n different integers, where i-th integer should be equal to the number of the pupil who will have the book, which the pupil with the number i had in the beginning, after k days.\u000aExamples\u000ainput\u000a4 1\u000a2 4 1 3\u000aoutput\u000a3 1 4 2 \u000ainput\u000a5 5\u000a3 4 5 2 1\u000aoutput\u000a3 4 5 2 1 \u000ainput\u000a6 18\u000a2 3 5 1 6 4\u000aoutput\u000a1 2 3 4 5 6 \u000aNote\u000aThe explanation to the first test.\u000aThere are 4 pupils and 1 day. The list of the best friends equals to {2, 4, 1, 3}. It means that:\u000athe pupil with the number 3 \u2014 is the best friend of pupil with the number 1,\u000athe pupil with the number 1 \u2014 is the best friend of pupil with the number 2,\u000athe pupil with the number 4 \u2014 is the best friend of pupil with the number 3,\u000athe pupil with the number 2 \u2014 is the best friend of pupil with the number 4.\u000aAfter the first day the exchange of books will be {3, 1, 4, 2}.\u000athe pupil with the number 3 will have the book, which the pupil with the number 1 had in the beginning,\u000athe pupil with the number 1 will have the book, which the pupil with the number 2 had in the beginning,\u000athe pupil with the number 4 will have the book, which the pupil with the number 3 had in the beginning\u000athe pupil with the number 2 will have the book, which the pupil with the number 4 had in the beginning.\u000aThus, the answer is 3 1 4 2.
p3
sS'problemStatement'
p4
VH. Exchange of Books\u000atime limit per test1 second\u000amemory limit per test256 megabytes\u000ainputstandard input\u000aoutputstandard output\u000an pupils, who love to read books, study at school. It is known that each student has exactly one best friend, and each pupil is the best friend of exactly one other pupil. Each of the pupils has exactly one interesting book.\u000aThe pupils decided to share books with each other. Every day, all pupils give their own books to their best friends. Thus, every day each of the pupils has exactly one book.\u000aYour task is to use the list of the best friends and determine the exchange of books among pupils after k days. For simplicity, all students are numbered from 1 to n in all tests.\u000aInput\u000aThe first line contains two integers n and k (2\u2009\u2264\u2009n\u2009\u2264\u2009100000,\u20091\u2009\u2264\u2009k\u2009\u2264\u20091016) \u2014 the number of pupils and days during which they will exchange books.\u000aThe second line contains n different integers ai (1\u2009\u2264\u2009ai\u2009\u2264\u2009n), where ai is equal to the number of the pupil who has the best friend with the number i.\u000aIt is guaranteed that no pupil is the best friend of himself.\u000aOutput\u000aIn a single line print n different integers, where i-th integer should be equal to the number of the pupil who will have the book, which the pupil with the number i had in the beginning, after k days.\u000aExamples\u000ainput\u000a4 1\u000a2 4 1 3\u000aoutput\u000a3 1 4 2 \u000ainput\u000a5 5\u000a3 4 5 2 1\u000aoutput\u000a3 4 5 2 1 \u000ainput\u000a6 18\u000a2 3 5 1 6 4\u000aoutput\u000a1 2 3 4 5 6 \u000aNote\u000aThe explanation to the first test.\u000aThere are 4 pupils and 1 day. The list of the best friends equals to {2, 4, 1, 3}. It means that:\u000athe pupil with the number 3 \u2014 is the best friend of pupil with the number 1,\u000athe pupil with the number 1 \u2014 is the best friend of pupil with the number 2,\u000athe pupil with the number 4 \u2014 is the best friend of pupil with the number 3,\u000athe pupil with the number 2 \u2014 is the best friend of pupil with the number 4.\u000aAfter the first day the exchange of books will be {3, 1, 4, 2}.\u000athe pupil with the number 3 will have the book, which the pupil with the number 1 had in the beginning,\u000athe pupil with the number 1 will have the book, which the pupil with the number 2 had in the beginning,\u000athe pupil with the number 4 will have the book, which the pupil with the number 3 had in the beginning\u000athe pupil with the number 2 will have the book, which the pupil with the number 4 had in the beginning.\u000aThus, the answer is 3 1 4 2.
p5
sS'name'
p6
VH. Exchange of Books
p7
sS'tags'
p8
S''
p9
sS'url'
p10
Vhttp://codeforces.com/problemset/problem/683/H
p11
sS'memorylimit'
p12
V256 megabytes
p13
sS'timelimit'
p14
V1 second
p15
sS'problemId'
p16
V683/H
p17
sS'id'
p18
c__builtin__
id
p19
sb.