(iproblems
Problem
p0
(dp1
S'time_limit'
p2
(lp3
VTime Limit: 1 sec
p4
asS'source_limit'
p5
(lp6
VSource Limit: 50000 Bytes
p7
asS'description'
p8
V All submissions for this problem are available.\u000aRead problems statements in Mandarin Chinese and Russian\u000aRupsa really loves triangles. One day she came across an equilateral triangle having length of each side as an integer N. She started wondering if it was possible to transform the triangle keeping two sides fixed and alter the third side such that it still remains a triangle, but the altered side will have its length as an even integer, and the line drawn from the opposite vertex to the mid-point of the altered side is of integral length.\u000aSince Rupsa is in a hurry to record a song for Chef as he really loves her songs, you must help her solve the problem as fast as possible.\u000aInput\u000aThe first line of input contains an integer T denoting the number of test cases.\u000aEach test-case contains a single integer N.\u000aOutput\u000aFor each test case, output "YES" if the triangle transformation is possible, otherwise "NO" (quotes for clarity only, do not output).\u000aConstraints\u000a1 \u2264 T \u2264 106\u000a1 \u2264 N \u2264 5 x 106\u000aSub tasks\u000aSubtask #1: 1 \u2264 T \u2264 100, 1 \u2264 N \u2264 104 (10 points)\u000aSubtask #2: 1 \u2264 T \u2264 104, 1 \u2264 N \u2264 106 (30 points)\u000aSubtask #3: Original Constraints (60 points)\u000aExample\u000aInput:\u000a2\u000a5\u000a3\u000a\u000aOutput:\u000aYES\u000aNO\u000aExplanation\u000aIn test case 1, make the length of any one side 6, and it will suffice.\u000aAuthor: abhra73\u000aEditorial: http://discuss.codechef.com/problems/ADTRI\u000aTags: abhra73 basic-math easy oct15 prime\u000aDate Added: 17-08-2015\u000aTime Limit: 1 sec\u000aSource Limit: 50000 Bytes\u000aLanguages: ADA, ASM, BASH, BF, C, C99 strict, CAML, CLOJ, CLPS, CPP 4.3.2, CPP 4.9.2, CPP14, CS2, D, ERL, FORT, FS, GO, HASK, ICK, ICON, JAVA, JS, LISP clisp, LISP sbcl, LUA, NEM, NICE, NODEJS, PAS fpc, PAS gpc, PERL, PERL6, PHP, PIKE, PRLG, PYPY, PYTH, PYTH 3.4, RUBY, SCALA, SCM chicken, SCM guile, SCM qobi, ST, TCL, TEXT, WSPC\u000aSUBMIT All submissions for this problem are available.\u000aRead problems statements in Mandarin Chinese and Russian\u000aRupsa really loves triangles. One day she came across an equilateral triangle having length of each side as an integer N. She started wondering if it was possible to transform the triangle keeping two sides fixed and alter the third side such that it still remains a triangle, but the altered side will have its length as an even integer, and the line drawn from the opposite vertex to the mid-point of the altered side is of integral length.\u000aSince Rupsa is in a hurry to record a song for Chef as he really loves her songs, you must help her solve the problem as fast as possible.\u000aInput\u000aThe first line of input contains an integer T denoting the number of test cases.\u000aEach test-case contains a single integer N.\u000aOutput\u000aFor each test case, output "YES" if the triangle transformation is possible, otherwise "NO" (quotes for clarity only, do not output).\u000aConstraints\u000a1 \u2264 T \u2264 106\u000a1 \u2264 N \u2264 5 x 106\u000aSub tasks\u000aSubtask #1: 1 \u2264 T \u2264 100, 1 \u2264 N \u2264 104 (10 points)\u000aSubtask #2: 1 \u2264 T \u2264 104, 1 \u2264 N \u2264 106 (30 points)\u000aSubtask #3: Original Constraints (60 points)\u000aExample\u000aInput:\u000a2\u000a5\u000a3\u000a\u000aOutput:\u000aYES\u000aNO\u000aExplanation\u000aIn test case 1, make the length of any one side 6, and it will suffice.\u000aAuthor: abhra73\u000aEditorial: http://discuss.codechef.com/problems/ADTRI\u000aTags: abhra73 basic-math easy oct15 prime\u000aDate Added: 17-08-2015\u000aTime Limit: 1 sec\u000aSource Limit: 50000 Bytes\u000aLanguages: ADA, ASM, BASH, BF, C, C99 strict, CAML, CLOJ, CLPS, CPP 4.3.2, CPP 4.9.2, CPP14, CS2, D, ERL, FORT, FS, GO, HASK, ICK, ICON, JAVA, JS, LISP clisp, LISP sbcl, LUA, NEM, NICE, NODEJS, PAS fpc, PAS gpc, PERL, PERL6, PHP, PIKE, PRLG, PYPY, PYTH, PYTH 3.4, RUBY, SCALA, SCM chicken, SCM guile, SCM qobi, ST, TCL, TEXT, WSPC All submissions for this problem are available. Read problems statements in Mandarin Chinese and Russian Mandarin Chinese Russian Rupsa really loves triangles. One day she came across an equilateral triangle having length of each side as an integer N. She started wondering if it was possible to transform the triangle keeping two sides fixed and alter the third side such that it still remains a triangle, but the altered side will have its length as an even integer, and the line drawn from the opposite vertex to the mid-point of the altered side is of integral length. N Since Rupsa is in a hurry to record a song for Chef as he really loves her songs, you must help her solve the problem as fast as possible. Input The first line of input contains an integer T denoting the number of test cases. T Each test-case contains a single integer N. N Output For each test case, output "YES" if the triangle transformation is possible, otherwise "NO" (quotes for clarity only, do not output). Constraints 1 \u2264 T \u2264 106\u000a1 \u2264 N \u2264 5 x 106 1 \u2264 T \u2264 106 1 \u2264 T \u2264 106 6 1 \u2264 N \u2264 5 x 106 1 \u2264 N \u2264 5 x 106 6 Sub tasks Subtask #1: 1 \u2264 T \u2264 100, 1 \u2264 N \u2264 104 (10 points)\u000aSubtask #2: 1 \u2264 T \u2264 104, 1 \u2264 N \u2264 106 (30 points)\u000aSubtask #3: Original Constraints (60 points) Subtask #1: 1 \u2264 T \u2264 100, 1 \u2264 N \u2264 104 (10 points) 1 \u2264 T \u2264 100, 1 \u2264 N \u2264 104 4 Subtask #2: 1 \u2264 T \u2264 104, 1 \u2264 N \u2264 106 (30 points) 1 \u2264 T \u2264 104, 1 \u2264 N \u2264 106 4 6 Subtask #3: Original Constraints (60 points) Example Input:\u000a2\u000a5\u000a3\u000a\u000aOutput:\u000aYES\u000aNO Input: 2\u000a5\u000a3 Output: YES\u000aNO Explanation In test case 1, make the length of any one side 6, and it will suffice. In test case 1, make the length of any one side 6, and it will suffice. 6  Author: abhra73\u000aEditorial: http://discuss.codechef.com/problems/ADTRI\u000aTags: abhra73 basic-math easy oct15 prime\u000aDate Added: 17-08-2015\u000aTime Limit: 1 sec\u000aSource Limit: 50000 Bytes\u000aLanguages: ADA, ASM, BASH, BF, C, C99 strict, CAML, CLOJ, CLPS, CPP 4.3.2, CPP 4.9.2, CPP14, CS2, D, ERL, FORT, FS, GO, HASK, ICK, ICON, JAVA, JS, LISP clisp, LISP sbcl, LUA, NEM, NICE, NODEJS, PAS fpc, PAS gpc, PERL, PERL6, PHP, PIKE, PRLG, PYPY, PYTH, PYTH 3.4, RUBY, SCALA, SCM chicken, SCM guile, SCM qobi, ST, TCL, TEXT, WSPC Author: abhra73\u000aEditorial: http://discuss.codechef.com/problems/ADTRI\u000aTags: abhra73 basic-math easy oct15 prime\u000aDate Added: 17-08-2015\u000aTime Limit: 1 sec\u000aSource Limit: 50000 Bytes\u000aLanguages: ADA, ASM, BASH, BF, C, C99 strict, CAML, CLOJ, CLPS, CPP 4.3.2, CPP 4.9.2, CPP14, CS2, D, ERL, FORT, FS, GO, HASK, ICK, ICON, JAVA, JS, LISP clisp, LISP sbcl, LUA, NEM, NICE, NODEJS, PAS fpc, PAS gpc, PERL, PERL6, PHP, PIKE, PRLG, PYPY, PYTH, PYTH 3.4, RUBY, SCALA, SCM chicken, SCM guile, SCM qobi, ST, TCL, TEXT, WSPC Author: abhra73 Author: abhra73 abhra73 Editorial: http://discuss.codechef.com/problems/ADTRI Editorial: http://discuss.codechef.com/problems/ADTRI http://discuss.codechef.com/problems/ADTRI Tags: abhra73 basic-math easy oct15 prime Tags: abhra73 basic-math easy oct15 prime abhra73 basic-math easy oct15 prime Date Added: 17-08-2015 Date Added: 17-08-2015 Time Limit: 1 sec Time Limit: 1 sec Source Limit: 50000 Bytes Source Limit: 50000 Bytes Languages: ADA, ASM, BASH, BF, C, C99 strict, CAML, CLOJ, CLPS, CPP 4.3.2, CPP 4.9.2, CPP14, CS2, D, ERL, FORT, FS, GO, HASK, ICK, ICON, JAVA, JS, LISP clisp, LISP sbcl, LUA, NEM, NICE, NODEJS, PAS fpc, PAS gpc, PERL, PERL6, PHP, PIKE, PRLG, PYPY, PYTH, PYTH 3.4, RUBY, SCALA, SCM chicken, SCM guile, SCM qobi, ST, TCL, TEXT, WSPC Languages: ADA, ASM, BASH, BF, C, C99 strict, CAML, CLOJ, CLPS, CPP 4.3.2, CPP 4.9.2, CPP14, CS2, D, ERL, FORT, FS, GO, HASK, ICK, ICON, JAVA, JS, LISP clisp, LISP sbcl, LUA, NEM, NICE, NODEJS, PAS fpc, PAS gpc, PERL, PERL6, PHP, PIKE, PRLG, PYPY, PYTH, PYTH 3.4, RUBY, SCALA, SCM chicken, SCM guile, SCM qobi, ST, TCL, TEXT, WSPC SUBMIT  SUBMIT SUBMIT SUCCESSFUL SUBMISSIONS SUCCESSFUL SUBMISSIONS SUCCESSFUL SUBMISSIONS SUCCESSFUL SUBMISSIONS SUCCESSFUL SUBMISSIONS  
p9
sS'tags'
p10
V abhra73 basic-math easy oct15 prime
p11
sS'url'
p12
Vhttps://www.codechef.com/problems/ADTRI
p13
sS'statement'
p14
(lp15
V All submissions for this problem are available.
p16
aVRead problems statements in Mandarin Chinese and Russian
p17
aVRupsa really loves triangles. One day she came across an equilateral triangle having length of each side as an integer N. She started wondering if it was possible to transform the triangle keeping two sides fixed and alter the third side such that it still remains a triangle, but the altered side will have its length as an even integer, and the line drawn from the opposite vertex to the mid-point of the altered side is of integral length.
p18
aVSince Rupsa is in a hurry to record a song for Chef as he really loves her songs, you must help her solve the problem as fast as possible.
p19
asS'input'
p20
(lp21
VInput
p22
aVThe first line of input contains an integer T denoting the number of test cases.
p23
aVEach test-case contains a single integer N.
p24
aVOutput
p25
aVFor each test case, output "YES" if the triangle transformation is possible, otherwise "NO" (quotes for clarity only, do not output).
p26
asS'constraints'
p27
(lp28
VConstraints
p29
aV1 \u2264 T \u2264 106
p30
aV1 \u2264 N \u2264 5 x 106
p31
aVSub tasks
p32
aVSubtask #1: 1 \u2264 T \u2264 100, 1 \u2264 N \u2264 104 (10 points)
p33
aVSubtask #2: 1 \u2264 T \u2264 104, 1 \u2264 N \u2264 106 (30 points)
p34
aVSubtask #3: Original Constraints (60 points)
p35
asS'id'
p36
c__builtin__
id
p37
sS'name'
p38
VADTRI
p39
sb.