(iproblems
Problem
p0
(dp1
S'time_limit'
p2
(lp3
VTime Limit: 1 sec
p4
asS'source_limit'
p5
(lp6
VSource Limit: 50000 Bytes
p7
asS'description'
p8
V All submissions for this problem are available.\u000aProblem Statement\u000aPast\u000aIn the year of 2048, the Virtual Reality Massively Multiplayer Online Role-Playing Game (VRMMORPG), Code Art Online (CAO), is released. With the Chef Gear, a virtual reality helmet that stimulates the user's five senses via their brain, players can experience and control their in-game characters with their minds.\u000aOn August the 2nd, 2048, all the players log in for the first time, and subsequently discover that they are unable to log out. They are then informed by Code Master, the creator of CAO, that if they wish to be free, they must reach the second stage of the game.\u000aKirito is a known star player of CAO. You have to help him log out.\u000aPresent\u000a\u000aStage 2\u000aA map is described by a 2D grid of cells. Each cell is either labelled as a # or a ^. # denotes a wall. A monster exists in a cell if the cell is not a wall and the cell is a centre of Prime-Cross (CPC).\u000aLet L be the number of contiguous ^ to the left of X, in the same row as X.\u000aR be the number of contiguous ^ to the right of X, in the same row as X.\u000aT be the number of contiguous ^ above X, in the same column as X.\u000aB be the number of contiguous ^ below X, in the same column as X.\u000aA cell X is said to be a CPC if there exists a prime number P such that P \u2264 minimum of [L, R, T, B].\u000aNote that, there can be many such primes, let N be the number of such primes. That CPC can accommodate N monsters.\u000aNote: While computing L, R, T, B for a cell X, you should not count the ^ of the cell X.\u000aGiven a map, you have to tell Kirito the number of cells where monsters exist.\u000aFuture\u000aHave fun solving other tasks :-)\u000aInput\u000aThe first line of the input contains an integer T denoting the number of test cases. The description of T test cases follows. Each case starts with a line containing two space separated integers R, C, denoting the number of rows and columns in the map respectively. The next R lines contain C characters each, describing the map.\u000aOutput\u000aFor each test case, output a single line containing the number of monsters the map can accommodate.\u000aConstraints\u000a1 \u2264 T \u2264 100\u000a1 \u2264 R \u2264 500\u000a1 \u2264 C \u2264 500\u000aExample\u000aInput:\u000a2\u000a3 10\u000a#^^^^^#^##\u000a^^^^^^^^^^\u000a^^^^^^^^^#\u000a7 10\u000a^^^^#^^^^#\u000a^^^^^^^^#^\u000a^^##^^#^^^\u000a#^^^^^^^#^\u000a^^#^^^^^^^\u000a^^^^#^^^^^\u000a^^^^^^^^^^\u000a\u000aOutput:\u000a0\u000a3\u000aAuthor: kaushik_iska\u000aTester: xcwgf666\u000aEditorial: http://discuss.codechef.com/problems/CAOS2\u000aTags: kaushik_iska sept13 simple\u000aDate Added: 16-07-2013\u000aTime Limit: 1 sec\u000aSource Limit: 50000 Bytes\u000aLanguages: ADA, ASM, BASH, BF, C, C99 strict, CAML, CLOJ, CLPS, CPP 4.3.2, CPP 4.9.2, CPP14, CS2, D, ERL, FORT, FS, GO, HASK, ICK, ICON, JAVA, JS, LISP clisp, LISP sbcl, LUA, NEM, NICE, NODEJS, PAS fpc, PAS gpc, PERL, PERL6, PHP, PIKE, PRLG, PYTH, PYTH 3.4, RUBY, SCALA, SCM guile, SCM qobi, ST, TCL, TEXT, WSPC\u000aSUBMIT All submissions for this problem are available.\u000aProblem Statement\u000aPast\u000aIn the year of 2048, the Virtual Reality Massively Multiplayer Online Role-Playing Game (VRMMORPG), Code Art Online (CAO), is released. With the Chef Gear, a virtual reality helmet that stimulates the user's five senses via their brain, players can experience and control their in-game characters with their minds.\u000aOn August the 2nd, 2048, all the players log in for the first time, and subsequently discover that they are unable to log out. They are then informed by Code Master, the creator of CAO, that if they wish to be free, they must reach the second stage of the game.\u000aKirito is a known star player of CAO. You have to help him log out.\u000aPresent\u000a\u000aStage 2\u000aA map is described by a 2D grid of cells. Each cell is either labelled as a # or a ^. # denotes a wall. A monster exists in a cell if the cell is not a wall and the cell is a centre of Prime-Cross (CPC).\u000aLet L be the number of contiguous ^ to the left of X, in the same row as X.\u000aR be the number of contiguous ^ to the right of X, in the same row as X.\u000aT be the number of contiguous ^ above X, in the same column as X.\u000aB be the number of contiguous ^ below X, in the same column as X.\u000aA cell X is said to be a CPC if there exists a prime number P such that P \u2264 minimum of [L, R, T, B].\u000aNote that, there can be many such primes, let N be the number of such primes. That CPC can accommodate N monsters.\u000aNote: While computing L, R, T, B for a cell X, you should not count the ^ of the cell X.\u000aGiven a map, you have to tell Kirito the number of cells where monsters exist.\u000aFuture\u000aHave fun solving other tasks :-)\u000aInput\u000aThe first line of the input contains an integer T denoting the number of test cases. The description of T test cases follows. Each case starts with a line containing two space separated integers R, C, denoting the number of rows and columns in the map respectively. The next R lines contain C characters each, describing the map.\u000aOutput\u000aFor each test case, output a single line containing the number of monsters the map can accommodate.\u000aConstraints\u000a1 \u2264 T \u2264 100\u000a1 \u2264 R \u2264 500\u000a1 \u2264 C \u2264 500\u000aExample\u000aInput:\u000a2\u000a3 10\u000a#^^^^^#^##\u000a^^^^^^^^^^\u000a^^^^^^^^^#\u000a7 10\u000a^^^^#^^^^#\u000a^^^^^^^^#^\u000a^^##^^#^^^\u000a#^^^^^^^#^\u000a^^#^^^^^^^\u000a^^^^#^^^^^\u000a^^^^^^^^^^\u000a\u000aOutput:\u000a0\u000a3\u000aAuthor: kaushik_iska\u000aTester: xcwgf666\u000aEditorial: http://discuss.codechef.com/problems/CAOS2\u000aTags: kaushik_iska sept13 simple\u000aDate Added: 16-07-2013\u000aTime Limit: 1 sec\u000aSource Limit: 50000 Bytes\u000aLanguages: ADA, ASM, BASH, BF, C, C99 strict, CAML, CLOJ, CLPS, CPP 4.3.2, CPP 4.9.2, CPP14, CS2, D, ERL, FORT, FS, GO, HASK, ICK, ICON, JAVA, JS, LISP clisp, LISP sbcl, LUA, NEM, NICE, NODEJS, PAS fpc, PAS gpc, PERL, PERL6, PHP, PIKE, PRLG, PYTH, PYTH 3.4, RUBY, SCALA, SCM guile, SCM qobi, ST, TCL, TEXT, WSPC All submissions for this problem are available. Problem Statement Past Past In the year of 2048, the Virtual Reality Massively Multiplayer Online Role-Playing Game (VRMMORPG), Code Art Online (CAO), is released. With the Chef Gear, a virtual reality helmet that stimulates the user's five senses via their brain, players can experience and control their in-game characters with their minds. Code Art Online (CAO) On August the 2nd, 2048, all the players log in for the first time, and subsequently discover that they are unable to log out. They are then informed by Code Master, the creator of CAO, that if they wish to be free, they must reach the second stage of the game. Kirito is a known star player of CAO. You have to help him log out. Present\u000a\u000aStage 2 Present   Stage 2 A map is described by a 2D grid of cells. Each cell is either labelled as a # or a ^. # denotes a wall. A monster exists in a cell if the cell is not a wall and the cell is a centre of Prime-Cross (CPC). # ^ # centre of Prime-Cross (CPC) Let L be the number of contiguous ^ to the left of X, in the same row as X.\u000aR be the number of contiguous ^ to the right of X, in the same row as X.\u000aT be the number of contiguous ^ above X, in the same column as X.\u000aB be the number of contiguous ^ below X, in the same column as X. Let L be the number of contiguous ^ to the left of X, in the same row as X. L ^ X X R be the number of contiguous ^ to the right of X, in the same row as X. R ^ X X T be the number of contiguous ^ above X, in the same column as X. T ^ X X B be the number of contiguous ^ below X, in the same column as X. B ^ X X A cell X is said to be a CPC if there exists a prime number P such that P \u2264 minimum of [L, R, T, B]. X CPC P P \u2264 minimum of [L, R, T, B] Note that, there can be many such primes, let N be the number of such primes. That CPC can accommodate N monsters. N CPC N Note: While computing L, R, T, B for a cell X, you should not count the ^ of the cell X. Note: L, R, T, B X ^ X Given a map, you have to tell Kirito the number of cells where monsters exist. Future Future Have fun solving other tasks :-) Input The first line of the input contains an integer T denoting the number of test cases. The description of T test cases follows. Each case starts with a line containing two space separated integers R, C, denoting the number of rows and columns in the map respectively. The next R lines contain C characters each, describing the map. T T R, C R C Output For each test case, output a single line containing the number of monsters the map can accommodate. Constraints 1 \u2264 T \u2264 100\u000a1 \u2264 R \u2264 500\u000a1 \u2264 C \u2264 500 1 \u2264 T \u2264 100 T 1 \u2264 R \u2264 500 R 1 \u2264 C \u2264 500 C Example Input:\u000a2\u000a3 10\u000a#^^^^^#^##\u000a^^^^^^^^^^\u000a^^^^^^^^^#\u000a7 10\u000a^^^^#^^^^#\u000a^^^^^^^^#^\u000a^^##^^#^^^\u000a#^^^^^^^#^\u000a^^#^^^^^^^\u000a^^^^#^^^^^\u000a^^^^^^^^^^\u000a\u000aOutput:\u000a0\u000a3 Input: Output:  Author: kaushik_iska\u000aTester: xcwgf666\u000aEditorial: http://discuss.codechef.com/problems/CAOS2\u000aTags: kaushik_iska sept13 simple\u000aDate Added: 16-07-2013\u000aTime Limit: 1 sec\u000aSource Limit: 50000 Bytes\u000aLanguages: ADA, ASM, BASH, BF, C, C99 strict, CAML, CLOJ, CLPS, CPP 4.3.2, CPP 4.9.2, CPP14, CS2, D, ERL, FORT, FS, GO, HASK, ICK, ICON, JAVA, JS, LISP clisp, LISP sbcl, LUA, NEM, NICE, NODEJS, PAS fpc, PAS gpc, PERL, PERL6, PHP, PIKE, PRLG, PYTH, PYTH 3.4, RUBY, SCALA, SCM guile, SCM qobi, ST, TCL, TEXT, WSPC Author: kaushik_iska\u000aTester: xcwgf666\u000aEditorial: http://discuss.codechef.com/problems/CAOS2\u000aTags: kaushik_iska sept13 simple\u000aDate Added: 16-07-2013\u000aTime Limit: 1 sec\u000aSource Limit: 50000 Bytes\u000aLanguages: ADA, ASM, BASH, BF, C, C99 strict, CAML, CLOJ, CLPS, CPP 4.3.2, CPP 4.9.2, CPP14, CS2, D, ERL, FORT, FS, GO, HASK, ICK, ICON, JAVA, JS, LISP clisp, LISP sbcl, LUA, NEM, NICE, NODEJS, PAS fpc, PAS gpc, PERL, PERL6, PHP, PIKE, PRLG, PYTH, PYTH 3.4, RUBY, SCALA, SCM guile, SCM qobi, ST, TCL, TEXT, WSPC Author: kaushik_iska Author: kaushik_iska kaushik_iska Tester: xcwgf666 Tester: xcwgf666 xcwgf666 Editorial: http://discuss.codechef.com/problems/CAOS2 Editorial: http://discuss.codechef.com/problems/CAOS2 http://discuss.codechef.com/problems/CAOS2 Tags: kaushik_iska sept13 simple Tags: kaushik_iska sept13 simple kaushik_iska sept13 simple Date Added: 16-07-2013 Date Added: 16-07-2013 Time Limit: 1 sec Time Limit: 1 sec Source Limit: 50000 Bytes Source Limit: 50000 Bytes Languages: ADA, ASM, BASH, BF, C, C99 strict, CAML, CLOJ, CLPS, CPP 4.3.2, CPP 4.9.2, CPP14, CS2, D, ERL, FORT, FS, GO, HASK, ICK, ICON, JAVA, JS, LISP clisp, LISP sbcl, LUA, NEM, NICE, NODEJS, PAS fpc, PAS gpc, PERL, PERL6, PHP, PIKE, PRLG, PYTH, PYTH 3.4, RUBY, SCALA, SCM guile, SCM qobi, ST, TCL, TEXT, WSPC Languages: ADA, ASM, BASH, BF, C, C99 strict, CAML, CLOJ, CLPS, CPP 4.3.2, CPP 4.9.2, CPP14, CS2, D, ERL, FORT, FS, GO, HASK, ICK, ICON, JAVA, JS, LISP clisp, LISP sbcl, LUA, NEM, NICE, NODEJS, PAS fpc, PAS gpc, PERL, PERL6, PHP, PIKE, PRLG, PYTH, PYTH 3.4, RUBY, SCALA, SCM guile, SCM qobi, ST, TCL, TEXT, WSPC SUBMIT  SUBMIT SUBMIT SUCCESSFUL SUBMISSIONS SUCCESSFUL SUBMISSIONS SUCCESSFUL SUBMISSIONS SUCCESSFUL SUBMISSIONS SUCCESSFUL SUBMISSIONS  
p9
sS'tags'
p10
V kaushik_iska sept13 simple
p11
sS'url'
p12
Vhttps://www.codechef.com/problems/CAOS2
p13
sS'statement'
p14
(lp15
V All submissions for this problem are available.
p16
aVProblem Statement
p17
aVPast
p18
aVIn the year of 2048, the Virtual Reality Massively Multiplayer Online Role-Playing Game (VRMMORPG), Code Art Online (CAO), is released. With the Chef Gear, a virtual reality helmet that stimulates the user's five senses via their brain, players can experience and control their in-game characters with their minds.
p19
aVOn August the 2nd, 2048, all the players log in for the first time, and subsequently discover that they are unable to log out. They are then informed by Code Master, the creator of CAO, that if they wish to be free, they must reach the second stage of the game.
p20
aVKirito is a known star player of CAO. You have to help him log out.
p21
aVPresent
p22
aV
p23
aVStage 2
p24
aVA map is described by a 2D grid of cells. Each cell is either labelled as a # or a ^. # denotes a wall. A monster exists in a cell if the cell is not a wall and the cell is a centre of Prime-Cross (CPC).
p25
aVLet L be the number of contiguous ^ to the left of X, in the same row as X.
p26
aVR be the number of contiguous ^ to the right of X, in the same row as X.
p27
aVT be the number of contiguous ^ above X, in the same column as X.
p28
aVB be the number of contiguous ^ below X, in the same column as X.
p29
aVA cell X is said to be a CPC if there exists a prime number P such that P \u2264 minimum of [L, R, T, B].
p30
aVNote that, there can be many such primes, let N be the number of such primes. That CPC can accommodate N monsters.
p31
aVNote: While computing L, R, T, B for a cell X, you should not count the ^ of the cell X.
p32
aVGiven a map, you have to tell Kirito the number of cells where monsters exist.
p33
aVFuture
p34
aVHave fun solving other tasks :-)
p35
asS'input'
p36
(lp37
VInput
p38
aVThe first line of the input contains an integer T denoting the number of test cases. The description of T test cases follows. Each case starts with a line containing two space separated integers R, C, denoting the number of rows and columns in the map respectively. The next R lines contain C characters each, describing the map.
p39
aVOutput
p40
aVFor each test case, output a single line containing the number of monsters the map can accommodate.
p41
asS'constraints'
p42
(lp43
VConstraints
p44
aV1 \u2264 T \u2264 100
p45
aV1 \u2264 R \u2264 500
p46
aV1 \u2264 C \u2264 500
p47
asS'id'
p48
c__builtin__
id
p49
sS'name'
p50
VCAOS2
p51
sb.