(iproblems
Problem
p0
(dp1
S'time_limit'
p2
(lp3
VTime Limit: 1 sec
p4
asS'source_limit'
p5
(lp6
VSource Limit: 50000 Bytes
p7
asS'description'
p8
V All submissions for this problem are available.\u000aRead problems statements in Mandarin Chinese, Russian and Vietnamese as well.\u000aChef is stuck in a two dimensional maze having N rows and M columns. He needs to get out of the maze as soon as possible and arrive at the kitchen in order to serve his hungry customers. But, he can get out of the maze only if he is able to successfully find any magical path in the given maze.\u000aA path is defined as magical if it starts from any of the cell (a,b) of the maze and ends at the cell (c,d) such that the following conditions are satisfied :-\u000a|a - c| + |b - d| = 1\u000aAll the cells in the maze are traversed exactly once.\u000aIt is allowed to move only in the four directions - up, down, left and right from the current cell.\u000aInput\u000aFirst line of the input contains an integer T denoting the number of different types of scenarios.\u000aEach of the next T lines will contain two integers N, M denoting the dimensions of the maze.\u000aOutput\u000aFor each of the T scenarios, output a single line containing "Yes" or "No" (without quotes) denoting whether the Chef can get out of the maze or not.\u000aConstraints\u000a1 \u2264 T \u2264 105\u000a1 \u2264 N, M \u2264 1018\u000aSubtasks\u000aSubtask #1 : (30 points)\u000a1 \u2264 T \u2264 100\u000a1 \u2264 N, M \u2264 10\u000aSubtask #2 : (70 points)\u000a\u000aOriginal Constraints\u000aExample\u000aInput:\u000a1\u000a2 2\u000a\u000aOutput:\u000aYes\u000aExplanation\u000aExample case 1.\u000aChef can start from (1,1), move down to (2,1), then move right to (2,2) and finally move upwards to reach (1,2). As, he is able to visit all the cells exactly once and sum of absolute differences of corresponding x and y dimension is 1, we can call this path a magical path.\u000aAuthor: prateekg603\u000aTester: xcwgf666\u000aEditorial: http://discuss.codechef.com/problems/CHEFPATH\u000aTags: april16 hamiltonian prateekg603 simple\u000aDate Added: 3-03-2016\u000aTime Limit: 1 sec\u000aSource Limit: 50000 Bytes\u000aLanguages: ADA, ASM, BASH, BF, C, C99 strict, CAML, CLOJ, CLPS, CPP 4.3.2, CPP 4.9.2, CPP14, CS2, D, ERL, FORT, FS, GO, HASK, ICK, ICON, JAVA, JS, LISP clisp, LISP sbcl, LUA, NEM, NICE, NODEJS, PAS fpc, PAS gpc, PERL, PERL6, PHP, PIKE, PRLG, PYPY, PYTH, PYTH 3.4, RUBY, SCALA, SCM chicken, SCM guile, SCM qobi, ST, TCL, TEXT, WSPC\u000aSUBMIT All submissions for this problem are available.\u000aRead problems statements in Mandarin Chinese, Russian and Vietnamese as well.\u000aChef is stuck in a two dimensional maze having N rows and M columns. He needs to get out of the maze as soon as possible and arrive at the kitchen in order to serve his hungry customers. But, he can get out of the maze only if he is able to successfully find any magical path in the given maze.\u000aA path is defined as magical if it starts from any of the cell (a,b) of the maze and ends at the cell (c,d) such that the following conditions are satisfied :-\u000a|a - c| + |b - d| = 1\u000aAll the cells in the maze are traversed exactly once.\u000aIt is allowed to move only in the four directions - up, down, left and right from the current cell.\u000aInput\u000aFirst line of the input contains an integer T denoting the number of different types of scenarios.\u000aEach of the next T lines will contain two integers N, M denoting the dimensions of the maze.\u000aOutput\u000aFor each of the T scenarios, output a single line containing "Yes" or "No" (without quotes) denoting whether the Chef can get out of the maze or not.\u000aConstraints\u000a1 \u2264 T \u2264 105\u000a1 \u2264 N, M \u2264 1018\u000aSubtasks\u000aSubtask #1 : (30 points)\u000a1 \u2264 T \u2264 100\u000a1 \u2264 N, M \u2264 10\u000aSubtask #2 : (70 points)\u000a\u000aOriginal Constraints\u000aExample\u000aInput:\u000a1\u000a2 2\u000a\u000aOutput:\u000aYes\u000aExplanation\u000aExample case 1.\u000aChef can start from (1,1), move down to (2,1), then move right to (2,2) and finally move upwards to reach (1,2). As, he is able to visit all the cells exactly once and sum of absolute differences of corresponding x and y dimension is 1, we can call this path a magical path.\u000aAuthor: prateekg603\u000aTester: xcwgf666\u000aEditorial: http://discuss.codechef.com/problems/CHEFPATH\u000aTags: april16 hamiltonian prateekg603 simple\u000aDate Added: 3-03-2016\u000aTime Limit: 1 sec\u000aSource Limit: 50000 Bytes\u000aLanguages: ADA, ASM, BASH, BF, C, C99 strict, CAML, CLOJ, CLPS, CPP 4.3.2, CPP 4.9.2, CPP14, CS2, D, ERL, FORT, FS, GO, HASK, ICK, ICON, JAVA, JS, LISP clisp, LISP sbcl, LUA, NEM, NICE, NODEJS, PAS fpc, PAS gpc, PERL, PERL6, PHP, PIKE, PRLG, PYPY, PYTH, PYTH 3.4, RUBY, SCALA, SCM chicken, SCM guile, SCM qobi, ST, TCL, TEXT, WSPC All submissions for this problem are available. Read problems statements in Mandarin Chinese, Russian and Vietnamese as well. Mandarin Chinese Russian Vietnamese Chef is stuck in a two dimensional maze having N rows and M columns. He needs to get out of the maze as soon as possible and arrive at the kitchen in order to serve his hungry customers. But, he can get out of the maze only if he is able to successfully find any magical path in the given maze. N M magical A path is defined as magical if it starts from any of the cell (a,b) of the maze and ends at the cell (c,d) such that the following conditions are satisfied :- magical (a,b) (c,d) |a - c| + |b - d| = 1\u000aAll the cells in the maze are traversed exactly once.\u000aIt is allowed to move only in the four directions - up, down, left and right from the current cell. |a - c| + |b - d| = 1 |a - c| + |b - d| = 1 All the cells in the maze are traversed exactly once. It is allowed to move only in the four directions - up, down, left and right from the current cell. Input First line of the input contains an integer T denoting the number of different types of scenarios.\u000aEach of the next T lines will contain two integers N, M denoting the dimensions of the maze. First line of the input contains an integer T denoting the number of different types of scenarios. T Each of the next T lines will contain two integers N, M denoting the dimensions of the maze. T N, M Output For each of the T scenarios, output a single line containing "Yes" or "No" (without quotes) denoting whether the Chef can get out of the maze or not. T Yes No Constraints 1 \u2264 T \u2264 105\u000a1 \u2264 N, M \u2264 1018 1 \u2264 T \u2264 105 1 T 105 5 1 \u2264 N, M \u2264 1018 1 N, M 1018 18 Subtasks Subtask #1 : (30 points) Subtask #1 : (30 points) 1 \u2264 T \u2264 100\u000a1 \u2264 N, M \u2264 10 1 \u2264 T \u2264 100\u000a1 \u2264 N, M \u2264 10 1 \u2264 T \u2264 100 1 T 100 1 \u2264 N, M \u2264 10  Subtask #2 : (70 points)\u000a\u000aOriginal Constraints Subtask #2 : (70 points)   Example Input:\u000a1\u000a2 2\u000a\u000aOutput:\u000aYes Input: Output: Explanation Example case 1.\u000aChef can start from (1,1), move down to (2,1), then move right to (2,2) and finally move upwards to reach (1,2). As, he is able to visit all the cells exactly once and sum of absolute differences of corresponding x and y dimension is 1, we can call this path a magical path. Example case 1.  magical  Author: prateekg603\u000aTester: xcwgf666\u000aEditorial: http://discuss.codechef.com/problems/CHEFPATH\u000aTags: april16 hamiltonian prateekg603 simple\u000aDate Added: 3-03-2016\u000aTime Limit: 1 sec\u000aSource Limit: 50000 Bytes\u000aLanguages: ADA, ASM, BASH, BF, C, C99 strict, CAML, CLOJ, CLPS, CPP 4.3.2, CPP 4.9.2, CPP14, CS2, D, ERL, FORT, FS, GO, HASK, ICK, ICON, JAVA, JS, LISP clisp, LISP sbcl, LUA, NEM, NICE, NODEJS, PAS fpc, PAS gpc, PERL, PERL6, PHP, PIKE, PRLG, PYPY, PYTH, PYTH 3.4, RUBY, SCALA, SCM chicken, SCM guile, SCM qobi, ST, TCL, TEXT, WSPC Author: prateekg603\u000aTester: xcwgf666\u000aEditorial: http://discuss.codechef.com/problems/CHEFPATH\u000aTags: april16 hamiltonian prateekg603 simple\u000aDate Added: 3-03-2016\u000aTime Limit: 1 sec\u000aSource Limit: 50000 Bytes\u000aLanguages: ADA, ASM, BASH, BF, C, C99 strict, CAML, CLOJ, CLPS, CPP 4.3.2, CPP 4.9.2, CPP14, CS2, D, ERL, FORT, FS, GO, HASK, ICK, ICON, JAVA, JS, LISP clisp, LISP sbcl, LUA, NEM, NICE, NODEJS, PAS fpc, PAS gpc, PERL, PERL6, PHP, PIKE, PRLG, PYPY, PYTH, PYTH 3.4, RUBY, SCALA, SCM chicken, SCM guile, SCM qobi, ST, TCL, TEXT, WSPC Author: prateekg603 Author: prateekg603 prateekg603 Tester: xcwgf666 Tester: xcwgf666 xcwgf666 Editorial: http://discuss.codechef.com/problems/CHEFPATH Editorial: http://discuss.codechef.com/problems/CHEFPATH http://discuss.codechef.com/problems/CHEFPATH Tags: april16 hamiltonian prateekg603 simple Tags: april16 hamiltonian prateekg603 simple april16 hamiltonian prateekg603 simple Date Added: 3-03-2016 Date Added: 3-03-2016 Time Limit: 1 sec Time Limit: 1 sec Source Limit: 50000 Bytes Source Limit: 50000 Bytes Languages: ADA, ASM, BASH, BF, C, C99 strict, CAML, CLOJ, CLPS, CPP 4.3.2, CPP 4.9.2, CPP14, CS2, D, ERL, FORT, FS, GO, HASK, ICK, ICON, JAVA, JS, LISP clisp, LISP sbcl, LUA, NEM, NICE, NODEJS, PAS fpc, PAS gpc, PERL, PERL6, PHP, PIKE, PRLG, PYPY, PYTH, PYTH 3.4, RUBY, SCALA, SCM chicken, SCM guile, SCM qobi, ST, TCL, TEXT, WSPC Languages: ADA, ASM, BASH, BF, C, C99 strict, CAML, CLOJ, CLPS, CPP 4.3.2, CPP 4.9.2, CPP14, CS2, D, ERL, FORT, FS, GO, HASK, ICK, ICON, JAVA, JS, LISP clisp, LISP sbcl, LUA, NEM, NICE, NODEJS, PAS fpc, PAS gpc, PERL, PERL6, PHP, PIKE, PRLG, PYPY, PYTH, PYTH 3.4, RUBY, SCALA, SCM chicken, SCM guile, SCM qobi, ST, TCL, TEXT, WSPC SUBMIT  SUBMIT SUBMIT SUCCESSFUL SUBMISSIONS SUCCESSFUL SUBMISSIONS SUCCESSFUL SUBMISSIONS SUCCESSFUL SUBMISSIONS SUCCESSFUL SUBMISSIONS  
p9
sS'tags'
p10
V april16 hamiltonian prateekg603 simple
p11
sS'url'
p12
Vhttps://www.codechef.com/problems/CHEFPATH
p13
sS'statement'
p14
(lp15
V All submissions for this problem are available.
p16
aVRead problems statements in Mandarin Chinese, Russian and Vietnamese as well.
p17
aVChef is stuck in a two dimensional maze having N rows and M columns. He needs to get out of the maze as soon as possible and arrive at the kitchen in order to serve his hungry customers. But, he can get out of the maze only if he is able to successfully find any magical path in the given maze.
p18
aVA path is defined as magical if it starts from any of the cell (a,b) of the maze and ends at the cell (c,d) such that the following conditions are satisfied :-
p19
aV|a - c| + |b - d| = 1
p20
aVAll the cells in the maze are traversed exactly once.
p21
aVIt is allowed to move only in the four directions - up, down, left and right from the current cell.
p22
asS'input'
p23
(lp24
VInput
p25
aVFirst line of the input contains an integer T denoting the number of different types of scenarios.
p26
aVEach of the next T lines will contain two integers N, M denoting the dimensions of the maze.
p27
aVOutput
p28
aVFor each of the T scenarios, output a single line containing "Yes" or "No" (without quotes) denoting whether the Chef can get out of the maze or not.
p29
asS'constraints'
p30
(lp31
VConstraints
p32
aV1 \u2264 T \u2264 105
p33
aV1 \u2264 N, M \u2264 1018
p34
aVSubtasks
p35
aVSubtask #1 : (30 points)
p36
aV1 \u2264 T \u2264 100
p37
aV1 \u2264 N, M \u2264 10
p38
aVSubtask #2 : (70 points)
p39
aV
p40
aVOriginal Constraints
p41
asS'id'
p42
c__builtin__
id
p43
sS'name'
p44
VCHEFPATH
p45
sb.