(iproblems
Problem
p0
(dp1
S'time_limit'
p2
(lp3
VTime Limit: 1 sec
p4
asS'source_limit'
p5
(lp6
VSource Limit: 50000 Bytes
p7
asS'description'
p8
V All submissions for this problem are available.\u000aRead problems statements in Mandarin Chinese, Russian and Vietnamese as well.\u000aChef has two piles of stones with him, one has n1 stones and the other has n2 stones. Fired up by boredom, he invented a game with the two piles.\u000aBefore the start of the game Chef chooses an integer m.\u000aIn the j-th move:\u000aHe chooses a number xj such that 1 \u2264 xj \u2264 m, and removes xj stones from both the piles (this is only possible when both the piles have \u2265 xj stones).\u000aThe number chosen must be unique over all the moves in the game. That is, for all k < j, xj \u2260 xk.\u000a\u000aThe game stops when Chef is unable to make any more moves.\u000aChef wants to make the moves in such a way that the sum of the number of stones remaining in the two piles is minimized. Please help Chef find this.\u000aInput\u000aThe first line of input contains an integer T denoting the number of test cases.\u000aEach test case consists of 1 line with three integers \u2014 n1, n2 and m \u2014 separated by single spaces.\u000aOutput\u000aFor each test case, output a single line containing the minimum sum of the number of stones of two piles.\u000aConstraints\u000aSubtask 1 : (5 pts)\u000a1 \u2264 T \u2264 100\u000a0 \u2264 m \u2264 18\u000a0 \u2264 n1, n2 \u2264 100\u000aSubtask 2 : (25 pts)\u000a1 \u2264 T \u2264 1000\u000a0 \u2264 m \u2264 10000\u000a0 \u2264 n1, n2 \u2264 10000\u000aSubtask 3 : (70 pts)\u000a1 \u2264 T \u2264 105\u000a0 \u2264 m \u2264 109\u000a0 \u2264 n1, n2 \u2264 1018\u000aExample\u000aInput:\u000a3\u000a1 1 1\u000a1 2 1\u000a4 5 2\u000a\u000aOutput:\u000a0\u000a1\u000a3\u000aExplanation\u000aExample case 1. : Remove 1 stone from each of the piles. Now 0 stones are remaining, so chef cannot remove any more stones from the piles. Hence, answer is 0+0 = 0\u000aExample case 2. : Again, remove 1 stone from both the piles to get (0,1) stones. Now chef cannot remove any more stones from pile 1, so he stops. Hence, answer is 0+1 = 1.\u000aExample case 3. : First remove 1 stone from both the piles to get (3,4) stones. Now, remove 2 stones from both the piles so that (1,2) stones are remaining. Now chef cannot remove any more stones owing to the condition that he cannot remove the same number of stones twice. So, the answer is 1+2 = 3.\u000aAuthor: tapasjain01\u000aTester: xcwgf666\u000aEditorial: http://discuss.codechef.com/problems/CHEFST\u000aTags: ad-hoc arithmetic cakewalk dec15 greedy tapasjain01\u000aDate Added: 31-07-2015\u000aTime Limit: 1 sec\u000aSource Limit: 50000 Bytes\u000aLanguages: ADA, ASM, BASH, BF, C, C99 strict, CAML, CLOJ, CLPS, CPP 4.3.2, CPP 4.9.2, CPP14, CS2, D, ERL, FORT, FS, GO, HASK, ICK, ICON, JAVA, JS, LISP clisp, LISP sbcl, LUA, NEM, NICE, NODEJS, PAS fpc, PAS gpc, PERL, PERL6, PHP, PIKE, PRLG, PYPY, PYTH, PYTH 3.4, RUBY, SCALA, SCM chicken, SCM guile, SCM qobi, ST, TCL, TEXT, WSPC\u000aSUBMIT All submissions for this problem are available.\u000aRead problems statements in Mandarin Chinese, Russian and Vietnamese as well.\u000aChef has two piles of stones with him, one has n1 stones and the other has n2 stones. Fired up by boredom, he invented a game with the two piles.\u000aBefore the start of the game Chef chooses an integer m.\u000aIn the j-th move:\u000aHe chooses a number xj such that 1 \u2264 xj \u2264 m, and removes xj stones from both the piles (this is only possible when both the piles have \u2265 xj stones).\u000aThe number chosen must be unique over all the moves in the game. That is, for all k < j, xj \u2260 xk.\u000a\u000aThe game stops when Chef is unable to make any more moves.\u000aChef wants to make the moves in such a way that the sum of the number of stones remaining in the two piles is minimized. Please help Chef find this.\u000aInput\u000aThe first line of input contains an integer T denoting the number of test cases.\u000aEach test case consists of 1 line with three integers \u2014 n1, n2 and m \u2014 separated by single spaces.\u000aOutput\u000aFor each test case, output a single line containing the minimum sum of the number of stones of two piles.\u000aConstraints\u000aSubtask 1 : (5 pts)\u000a1 \u2264 T \u2264 100\u000a0 \u2264 m \u2264 18\u000a0 \u2264 n1, n2 \u2264 100\u000aSubtask 2 : (25 pts)\u000a1 \u2264 T \u2264 1000\u000a0 \u2264 m \u2264 10000\u000a0 \u2264 n1, n2 \u2264 10000\u000aSubtask 3 : (70 pts)\u000a1 \u2264 T \u2264 105\u000a0 \u2264 m \u2264 109\u000a0 \u2264 n1, n2 \u2264 1018\u000aExample\u000aInput:\u000a3\u000a1 1 1\u000a1 2 1\u000a4 5 2\u000a\u000aOutput:\u000a0\u000a1\u000a3\u000aExplanation\u000aExample case 1. : Remove 1 stone from each of the piles. Now 0 stones are remaining, so chef cannot remove any more stones from the piles. Hence, answer is 0+0 = 0\u000aExample case 2. : Again, remove 1 stone from both the piles to get (0,1) stones. Now chef cannot remove any more stones from pile 1, so he stops. Hence, answer is 0+1 = 1.\u000aExample case 3. : First remove 1 stone from both the piles to get (3,4) stones. Now, remove 2 stones from both the piles so that (1,2) stones are remaining. Now chef cannot remove any more stones owing to the condition that he cannot remove the same number of stones twice. So, the answer is 1+2 = 3.\u000aAuthor: tapasjain01\u000aTester: xcwgf666\u000aEditorial: http://discuss.codechef.com/problems/CHEFST\u000aTags: ad-hoc arithmetic cakewalk dec15 greedy tapasjain01\u000aDate Added: 31-07-2015\u000aTime Limit: 1 sec\u000aSource Limit: 50000 Bytes\u000aLanguages: ADA, ASM, BASH, BF, C, C99 strict, CAML, CLOJ, CLPS, CPP 4.3.2, CPP 4.9.2, CPP14, CS2, D, ERL, FORT, FS, GO, HASK, ICK, ICON, JAVA, JS, LISP clisp, LISP sbcl, LUA, NEM, NICE, NODEJS, PAS fpc, PAS gpc, PERL, PERL6, PHP, PIKE, PRLG, PYPY, PYTH, PYTH 3.4, RUBY, SCALA, SCM chicken, SCM guile, SCM qobi, ST, TCL, TEXT, WSPC All submissions for this problem are available. Read problems statements in Mandarin Chinese, Russian and Vietnamese as well. Mandarin Chinese Russian Vietnamese Chef has two piles of stones with him, one has n1 stones and the other has n2 stones. Fired up by boredom, he invented a game with the two piles. n1 1 n2 2 Before the start of the game Chef chooses an integer m. m In the j-th move: j He chooses a number xj such that 1 \u2264 xj \u2264 m, and removes xj stones from both the piles (this is only possible when both the piles have \u2265 xj stones).\u000aThe number chosen must be unique over all the moves in the game. That is, for all k < j, xj \u2260 xk. He chooses a number xj such that 1 \u2264 xj \u2264 m, and removes xj stones from both the piles (this is only possible when both the piles have \u2265 xj stones). xj j 1 \u2264 xj \u2264 m j xj j xj j The number chosen must be unique over all the moves in the game. That is, for all k < j, xj \u2260 xk. k < j, xj \u2260 xk j k   Chef wants to make the moves in such a way that the sum of the number of stones remaining in the two piles is minimized. Please help Chef find this. Input The first line of input contains an integer T denoting the number of test cases.\u000aEach test case consists of 1 line with three integers \u2014 n1, n2 and m \u2014 separated by single spaces. The first line of input contains an integer T denoting the number of test cases. T Each test case consists of 1 line with three integers \u2014 n1, n2 and m \u2014 separated by single spaces. n1, n2 1 2 m Output For each test case, output a single line containing the minimum sum of the number of stones of two piles. Constraints Subtask 1 : (5 pts) Subtask 1 1 \u2264 T \u2264 100\u000a0 \u2264 m \u2264 18\u000a0 \u2264 n1, n2 \u2264 100 1 \u2264 T \u2264 100 1 T 100 0 \u2264 m \u2264 18 0 m 18 0 \u2264 n1, n2 \u2264 100 0 n1, n2 1 2 100 Subtask 2 : (25 pts) Subtask 2 1 \u2264 T \u2264 1000\u000a0 \u2264 m \u2264 10000\u000a0 \u2264 n1, n2 \u2264 10000 1 \u2264 T \u2264 1000 1 T 1000 0 \u2264 m \u2264 10000 0 m 10000 0 \u2264 n1, n2 \u2264 10000 0 n1, n2 1 2 10000 Subtask 3 : (70 pts) Subtask 3 1 \u2264 T \u2264 105\u000a0 \u2264 m \u2264 109\u000a0 \u2264 n1, n2 \u2264 1018 1 \u2264 T \u2264 105 1 T 105 5 0 \u2264 m \u2264 109 0 m 109 9 0 \u2264 n1, n2 \u2264 1018 0 n1, n2 1 2 1018 18 Example Input:\u000a3\u000a1 1 1\u000a1 2 1\u000a4 5 2\u000a\u000aOutput:\u000a0\u000a1\u000a3 Input: 3\u000a1 1 1\u000a1 2 1\u000a4 5 2 Output: 0\u000a1\u000a3 Explanation Example case 1. : Remove 1 stone from each of the piles. Now 0 stones are remaining, so chef cannot remove any more stones from the piles. Hence, answer is 0+0 = 0 Example case 1. Example case 2. : Again, remove 1 stone from both the piles to get (0,1) stones. Now chef cannot remove any more stones from pile 1, so he stops. Hence, answer is 0+1 = 1. Example case 2. Example case 3. : First remove 1 stone from both the piles to get (3,4) stones. Now, remove 2 stones from both the piles so that (1,2) stones are remaining. Now chef cannot remove any more stones owing to the condition that he cannot remove the same number of stones twice. So, the answer is 1+2 = 3. Example case 3.  Author: tapasjain01\u000aTester: xcwgf666\u000aEditorial: http://discuss.codechef.com/problems/CHEFST\u000aTags: ad-hoc arithmetic cakewalk dec15 greedy tapasjain01\u000aDate Added: 31-07-2015\u000aTime Limit: 1 sec\u000aSource Limit: 50000 Bytes\u000aLanguages: ADA, ASM, BASH, BF, C, C99 strict, CAML, CLOJ, CLPS, CPP 4.3.2, CPP 4.9.2, CPP14, CS2, D, ERL, FORT, FS, GO, HASK, ICK, ICON, JAVA, JS, LISP clisp, LISP sbcl, LUA, NEM, NICE, NODEJS, PAS fpc, PAS gpc, PERL, PERL6, PHP, PIKE, PRLG, PYPY, PYTH, PYTH 3.4, RUBY, SCALA, SCM chicken, SCM guile, SCM qobi, ST, TCL, TEXT, WSPC Author: tapasjain01\u000aTester: xcwgf666\u000aEditorial: http://discuss.codechef.com/problems/CHEFST\u000aTags: ad-hoc arithmetic cakewalk dec15 greedy tapasjain01\u000aDate Added: 31-07-2015\u000aTime Limit: 1 sec\u000aSource Limit: 50000 Bytes\u000aLanguages: ADA, ASM, BASH, BF, C, C99 strict, CAML, CLOJ, CLPS, CPP 4.3.2, CPP 4.9.2, CPP14, CS2, D, ERL, FORT, FS, GO, HASK, ICK, ICON, JAVA, JS, LISP clisp, LISP sbcl, LUA, NEM, NICE, NODEJS, PAS fpc, PAS gpc, PERL, PERL6, PHP, PIKE, PRLG, PYPY, PYTH, PYTH 3.4, RUBY, SCALA, SCM chicken, SCM guile, SCM qobi, ST, TCL, TEXT, WSPC Author: tapasjain01 Author: tapasjain01 tapasjain01 Tester: xcwgf666 Tester: xcwgf666 xcwgf666 Editorial: http://discuss.codechef.com/problems/CHEFST Editorial: http://discuss.codechef.com/problems/CHEFST http://discuss.codechef.com/problems/CHEFST Tags: ad-hoc arithmetic cakewalk dec15 greedy tapasjain01 Tags: ad-hoc arithmetic cakewalk dec15 greedy tapasjain01 ad-hoc arithmetic cakewalk dec15 greedy tapasjain01 Date Added: 31-07-2015 Date Added: 31-07-2015 Time Limit: 1 sec Time Limit: 1 sec Source Limit: 50000 Bytes Source Limit: 50000 Bytes Languages: ADA, ASM, BASH, BF, C, C99 strict, CAML, CLOJ, CLPS, CPP 4.3.2, CPP 4.9.2, CPP14, CS2, D, ERL, FORT, FS, GO, HASK, ICK, ICON, JAVA, JS, LISP clisp, LISP sbcl, LUA, NEM, NICE, NODEJS, PAS fpc, PAS gpc, PERL, PERL6, PHP, PIKE, PRLG, PYPY, PYTH, PYTH 3.4, RUBY, SCALA, SCM chicken, SCM guile, SCM qobi, ST, TCL, TEXT, WSPC Languages: ADA, ASM, BASH, BF, C, C99 strict, CAML, CLOJ, CLPS, CPP 4.3.2, CPP 4.9.2, CPP14, CS2, D, ERL, FORT, FS, GO, HASK, ICK, ICON, JAVA, JS, LISP clisp, LISP sbcl, LUA, NEM, NICE, NODEJS, PAS fpc, PAS gpc, PERL, PERL6, PHP, PIKE, PRLG, PYPY, PYTH, PYTH 3.4, RUBY, SCALA, SCM chicken, SCM guile, SCM qobi, ST, TCL, TEXT, WSPC SUBMIT  SUBMIT SUBMIT SUCCESSFUL SUBMISSIONS SUCCESSFUL SUBMISSIONS SUCCESSFUL SUBMISSIONS SUCCESSFUL SUBMISSIONS SUCCESSFUL SUBMISSIONS  
p9
sS'tags'
p10
V ad-hoc arithmetic cakewalk dec15 greedy tapasjain01
p11
sS'url'
p12
Vhttps://www.codechef.com/problems/CHEFST
p13
sS'statement'
p14
(lp15
V All submissions for this problem are available.
p16
aVRead problems statements in Mandarin Chinese, Russian and Vietnamese as well.
p17
aVChef has two piles of stones with him, one has n1 stones and the other has n2 stones. Fired up by boredom, he invented a game with the two piles.
p18
aVBefore the start of the game Chef chooses an integer m.
p19
aVIn the j-th move:
p20
aVHe chooses a number xj such that 1 \u2264 xj \u2264 m, and removes xj stones from both the piles (this is only possible when both the piles have \u2265 xj stones).
p21
aVThe number chosen must be unique over all the moves in the game. That is, for all k < j, xj \u2260 xk.
p22
aV
p23
aVThe game stops when Chef is unable to make any more moves.
p24
aVChef wants to make the moves in such a way that the sum of the number of stones remaining in the two piles is minimized. Please help Chef find this.
p25
asS'input'
p26
(lp27
VInput
p28
aVThe first line of input contains an integer T denoting the number of test cases.
p29
aVEach test case consists of 1 line with three integers \u2014 n1, n2 and m \u2014 separated by single spaces.
p30
aVOutput
p31
aVFor each test case, output a single line containing the minimum sum of the number of stones of two piles.
p32
asS'constraints'
p33
(lp34
VConstraints
p35
aVSubtask 1 : (5 pts)
p36
aV1 \u2264 T \u2264 100
p37
aV0 \u2264 m \u2264 18
p38
aV0 \u2264 n1, n2 \u2264 100
p39
aVSubtask 2 : (25 pts)
p40
aV1 \u2264 T \u2264 1000
p41
aV0 \u2264 m \u2264 10000
p42
aV0 \u2264 n1, n2 \u2264 10000
p43
aVSubtask 3 : (70 pts)
p44
aV1 \u2264 T \u2264 105
p45
aV0 \u2264 m \u2264 109
p46
aV0 \u2264 n1, n2 \u2264 1018
p47
asS'id'
p48
c__builtin__
id
p49
sS'name'
p50
VCHEFST
p51
sb.