(iproblems
Problem
p0
(dp1
S'time_limit'
p2
(lp3
VTime Limit: 1 sec
p4
asS'source_limit'
p5
(lp6
VSource Limit: 50000 Bytes
p7
asS'description'
p8
V All submissions for this problem are available.\u000aRead problems statements in Mandarin Chinese, Russian and Vietnamese as well.\u000aChef has an array A consisting of N integers. He also has an intger K.\u000aChef wants you to find out number of different arrays he can obtain from array A by applying the following operation exactly K times.\u000aPick some element in the array and multiply it by -1\u000aAs answer could be quite large, print it modulo 109 + 7.\u000aInput\u000aThe first line of the input contains an integer T denoting the number of test cases. The description of T test cases follows.\u000aThe first line of each test case contains two space separated integers N, K as defined above.\u000aThe second line contains N space-separated integers A1, A2, ..., AN denoting the elements of the array.\u000aOutput\u000aFor each test case, output a single line containing an integer corresponding to the number of different arrays Chef can get modulo 109 + 7.\u000aConstraints\u000a1 \u2264 T \u2264 10\u000a1 \u2264 N, K \u2264 105\u000a-106 \u2264 Ai \u2264 106\u000aSubtasks\u000aSubtask #1 (10 points) : N, K \u2264 10\u000aSubtask #2 (30 points) : N, K \u2264 100\u000aSubtask #3 (60 points) : N, K \u2264 105\u000aExample\u000aInput:\u000a3\u000a1 3\u000a100\u000a3 1\u000a1 2 1\u000a3 2\u000a1 2 1\u000a\u000aOutput:\u000a1\u000a3\u000a4\u000aExplanation\u000aExample case 1.\u000aChef has only one element and must apply the operation 3 times to it. After applying the operations, he will end up with -100. That is the only array he will get.\u000aExample case 2.\u000aChef can apply operation to one of three elements. So, he can obtain three different arrays.\u000aExample case 3.\u000aNote that other than applying operation to positions (1, 2), (1, 3), (2, 3), Chef can also apply the operation twice on some element and get the original.\u000aIn summary, Chef can get following four arrays.\u000a[1, 2, 1]\u000a[-1, -2, 1]\u000a[-1, 2, -1]\u000a[1, -2, -1]\u000aAuthor: berezin\u000aEditorial: http://discuss.codechef.com/problems/CHEFARK\u000aTags: berezin easy june16\u000aDate Added: 14-10-2015\u000aTime Limit: 1 sec\u000aSource Limit: 50000 Bytes\u000aLanguages: ADA, ASM, BASH, BF, C, C99 strict, CAML, CLOJ, CLPS, CPP 4.3.2, CPP 4.9.2, CPP14, CS2, D, ERL, FORT, FS, GO, HASK, ICK, ICON, JAVA, JS, LISP clisp, LISP sbcl, LUA, NEM, NICE, NODEJS, PAS fpc, PAS gpc, PERL, PERL6, PHP, PIKE, PRLG, PYPY, PYTH, PYTH 3.4, RUBY, SCALA, SCM chicken, SCM guile, SCM qobi, ST, TCL, TEXT, WSPC\u000aSUBMIT All submissions for this problem are available.\u000aRead problems statements in Mandarin Chinese, Russian and Vietnamese as well.\u000aChef has an array A consisting of N integers. He also has an intger K.\u000aChef wants you to find out number of different arrays he can obtain from array A by applying the following operation exactly K times.\u000aPick some element in the array and multiply it by -1\u000aAs answer could be quite large, print it modulo 109 + 7.\u000aInput\u000aThe first line of the input contains an integer T denoting the number of test cases. The description of T test cases follows.\u000aThe first line of each test case contains two space separated integers N, K as defined above.\u000aThe second line contains N space-separated integers A1, A2, ..., AN denoting the elements of the array.\u000aOutput\u000aFor each test case, output a single line containing an integer corresponding to the number of different arrays Chef can get modulo 109 + 7.\u000aConstraints\u000a1 \u2264 T \u2264 10\u000a1 \u2264 N, K \u2264 105\u000a-106 \u2264 Ai \u2264 106\u000aSubtasks\u000aSubtask #1 (10 points) : N, K \u2264 10\u000aSubtask #2 (30 points) : N, K \u2264 100\u000aSubtask #3 (60 points) : N, K \u2264 105\u000aExample\u000aInput:\u000a3\u000a1 3\u000a100\u000a3 1\u000a1 2 1\u000a3 2\u000a1 2 1\u000a\u000aOutput:\u000a1\u000a3\u000a4\u000aExplanation\u000aExample case 1.\u000aChef has only one element and must apply the operation 3 times to it. After applying the operations, he will end up with -100. That is the only array he will get.\u000aExample case 2.\u000aChef can apply operation to one of three elements. So, he can obtain three different arrays.\u000aExample case 3.\u000aNote that other than applying operation to positions (1, 2), (1, 3), (2, 3), Chef can also apply the operation twice on some element and get the original.\u000aIn summary, Chef can get following four arrays.\u000a[1, 2, 1]\u000a[-1, -2, 1]\u000a[-1, 2, -1]\u000a[1, -2, -1]\u000aAuthor: berezin\u000aEditorial: http://discuss.codechef.com/problems/CHEFARK\u000aTags: berezin easy june16\u000aDate Added: 14-10-2015\u000aTime Limit: 1 sec\u000aSource Limit: 50000 Bytes\u000aLanguages: ADA, ASM, BASH, BF, C, C99 strict, CAML, CLOJ, CLPS, CPP 4.3.2, CPP 4.9.2, CPP14, CS2, D, ERL, FORT, FS, GO, HASK, ICK, ICON, JAVA, JS, LISP clisp, LISP sbcl, LUA, NEM, NICE, NODEJS, PAS fpc, PAS gpc, PERL, PERL6, PHP, PIKE, PRLG, PYPY, PYTH, PYTH 3.4, RUBY, SCALA, SCM chicken, SCM guile, SCM qobi, ST, TCL, TEXT, WSPC All submissions for this problem are available. Read problems statements in Mandarin Chinese, Russian and Vietnamese as well. Mandarin Chinese Russian Vietnamese Chef has an array A consisting of N integers. He also has an intger K. A N K Chef wants you to find out number of different arrays he can obtain from array A by applying the following operation exactly K times. A exactly K Pick some element in the array and multiply it by -1 Pick some element in the array and multiply it by -1 -1 As answer could be quite large, print it modulo 109 + 7. 109 + 7 9 Input The first line of the input contains an integer T denoting the number of test cases. The description of T test cases follows.\u000aThe first line of each test case contains two space separated integers N, K as defined above.\u000aThe second line contains N space-separated integers A1, A2, ..., AN denoting the elements of the array. The first line of the input contains an integer T denoting the number of test cases. The description of T test cases follows. T T The first line of each test case contains two space separated integers N, K as defined above. N K The second line contains N space-separated integers A1, A2, ..., AN denoting the elements of the array. N A1 1 A2 2 AN N Output For each test case, output a single line containing an integer corresponding to the number of different arrays Chef can get modulo 109 + 7. For each test case, output a single line containing an integer corresponding to the number of different arrays Chef can get modulo 109 + 7. 109 + 7 9 Constraints 1 \u2264 T \u2264 10\u000a1 \u2264 N, K \u2264 105\u000a-106 \u2264 Ai \u2264 106 1 \u2264 T \u2264 10 1 T 10 1 \u2264 N, K \u2264 105 1 N, K 105 5 -106 \u2264 Ai \u2264 106 -106 6 Ai i 106 6 Subtasks Subtask #1 (10 points) : N, K \u2264 10\u000aSubtask #2 (30 points) : N, K \u2264 100\u000aSubtask #3 (60 points) : N, K \u2264 105 Subtask #1 (10 points) : N, K \u2264 10 Subtask #1 (10 points) N, K 10 Subtask #2 (30 points) : N, K \u2264 100 Subtask #2 (30 points) N, K 100 Subtask #3 (60 points) : N, K \u2264 105 Subtask #3 (60 points) N, K 105 5 Example Input:\u000a3\u000a1 3\u000a100\u000a3 1\u000a1 2 1\u000a3 2\u000a1 2 1\u000a\u000aOutput:\u000a1\u000a3\u000a4 Input: Output: Explanation Example case 1.\u000aChef has only one element and must apply the operation 3 times to it. After applying the operations, he will end up with -100. That is the only array he will get. Example case 1.  Example case 2.\u000aChef can apply operation to one of three elements. So, he can obtain three different arrays. Example case 2.  Example case 3.\u000aNote that other than applying operation to positions (1, 2), (1, 3), (2, 3), Chef can also apply the operation twice on some element and get the original. Example case 3.  (1, 2) (1, 3) (2, 3) In summary, Chef can get following four arrays. [1, 2, 1]\u000a[-1, -2, 1]\u000a[-1, 2, -1]\u000a[1, -2, -1]  Author: berezin\u000aEditorial: http://discuss.codechef.com/problems/CHEFARK\u000aTags: berezin easy june16\u000aDate Added: 14-10-2015\u000aTime Limit: 1 sec\u000aSource Limit: 50000 Bytes\u000aLanguages: ADA, ASM, BASH, BF, C, C99 strict, CAML, CLOJ, CLPS, CPP 4.3.2, CPP 4.9.2, CPP14, CS2, D, ERL, FORT, FS, GO, HASK, ICK, ICON, JAVA, JS, LISP clisp, LISP sbcl, LUA, NEM, NICE, NODEJS, PAS fpc, PAS gpc, PERL, PERL6, PHP, PIKE, PRLG, PYPY, PYTH, PYTH 3.4, RUBY, SCALA, SCM chicken, SCM guile, SCM qobi, ST, TCL, TEXT, WSPC Author: berezin\u000aEditorial: http://discuss.codechef.com/problems/CHEFARK\u000aTags: berezin easy june16\u000aDate Added: 14-10-2015\u000aTime Limit: 1 sec\u000aSource Limit: 50000 Bytes\u000aLanguages: ADA, ASM, BASH, BF, C, C99 strict, CAML, CLOJ, CLPS, CPP 4.3.2, CPP 4.9.2, CPP14, CS2, D, ERL, FORT, FS, GO, HASK, ICK, ICON, JAVA, JS, LISP clisp, LISP sbcl, LUA, NEM, NICE, NODEJS, PAS fpc, PAS gpc, PERL, PERL6, PHP, PIKE, PRLG, PYPY, PYTH, PYTH 3.4, RUBY, SCALA, SCM chicken, SCM guile, SCM qobi, ST, TCL, TEXT, WSPC Author: berezin Author: berezin berezin Editorial: http://discuss.codechef.com/problems/CHEFARK Editorial: http://discuss.codechef.com/problems/CHEFARK http://discuss.codechef.com/problems/CHEFARK Tags: berezin easy june16 Tags: berezin easy june16 berezin easy june16 Date Added: 14-10-2015 Date Added: 14-10-2015 Time Limit: 1 sec Time Limit: 1 sec Source Limit: 50000 Bytes Source Limit: 50000 Bytes Languages: ADA, ASM, BASH, BF, C, C99 strict, CAML, CLOJ, CLPS, CPP 4.3.2, CPP 4.9.2, CPP14, CS2, D, ERL, FORT, FS, GO, HASK, ICK, ICON, JAVA, JS, LISP clisp, LISP sbcl, LUA, NEM, NICE, NODEJS, PAS fpc, PAS gpc, PERL, PERL6, PHP, PIKE, PRLG, PYPY, PYTH, PYTH 3.4, RUBY, SCALA, SCM chicken, SCM guile, SCM qobi, ST, TCL, TEXT, WSPC Languages: ADA, ASM, BASH, BF, C, C99 strict, CAML, CLOJ, CLPS, CPP 4.3.2, CPP 4.9.2, CPP14, CS2, D, ERL, FORT, FS, GO, HASK, ICK, ICON, JAVA, JS, LISP clisp, LISP sbcl, LUA, NEM, NICE, NODEJS, PAS fpc, PAS gpc, PERL, PERL6, PHP, PIKE, PRLG, PYPY, PYTH, PYTH 3.4, RUBY, SCALA, SCM chicken, SCM guile, SCM qobi, ST, TCL, TEXT, WSPC SUBMIT  SUBMIT SUBMIT SUCCESSFUL SUBMISSIONS SUCCESSFUL SUBMISSIONS SUCCESSFUL SUBMISSIONS SUCCESSFUL SUBMISSIONS SUCCESSFUL SUBMISSIONS  
p9
sS'tags'
p10
V berezin easy june16
p11
sS'url'
p12
Vhttps://www.codechef.com/problems/CHEFARK
p13
sS'statement'
p14
(lp15
VAll submissions for this problem are available.
p16
aVRead problems statements in Mandarin Chinese, Russian and Vietnamese as well.
p17
aVChef has an array A consisting of N integers. He also has an intger K.
p18
aVChef wants you to find out number of different arrays he can obtain from array A by applying the following operation exactly K times.
p19
aVPick some element in the array and multiply it by -1
p20
aVAs answer could be quite large, print it modulo 109 + 7.
p21
asS'input'
p22
(lp23
VInput
p24
aVThe first line of the input contains an integer T denoting the number of test cases. The description of T test cases follows.
p25
aVThe first line of each test case contains two space separated integers N, K as defined above.
p26
aVThe second line contains N space-separated integers A1, A2, ..., AN denoting the elements of the array.
p27
aVOutput
p28
aVFor each test case, output a single line containing an integer corresponding to the number of different arrays Chef can get modulo 109 + 7.
p29
asS'constraints'
p30
(lp31
VConstraints
p32
aV1 \u2264 T \u2264 10
p33
aV1 \u2264 N, K \u2264 105
p34
aV-106 \u2264 Ai \u2264 106
p35
aVSubtasks
p36
aVSubtask #1 (10 points) : N, K \u2264 10
p37
aVSubtask #2 (30 points) : N, K \u2264 100
p38
aVSubtask #3 (60 points) : N, K \u2264 105
p39
asS'id'
p40
c__builtin__
id
p41
sS'name'
p42
VCHEFARK
p43
sb.