(iproblems
Problem
p0
(dp1
S'time_limit'
p2
(lp3
VTime Limit: 1 sec
p4
asS'source_limit'
p5
(lp6
VSource Limit: 50000 Bytes
p7
asS'description'
p8
V All submissions for this problem are available.\u000aChef Shifu wanted to celebrate the success of his new restaurant with all his employees. He was willing to host a party and he had decided the location of the party as well. However, Chef Shifu was a shy person and wanted to communicate with the least possible employees to inform them about the party, and that these employees could inform their friends.\u000aNote that an employee could only inform his/her immediate friends about the party, not his/her friends\u2019 friends.\u000aChef Shifu has a list of all the friendships among his employees. Help him find the minimum number of employees he should inform, so that every employee knows about the celebration party.\u000aInput\u000aFirst line contains a single integer T - the total number of testcases.\u000a\u000aT testcases follow. For each testcase:\u000a\u000aThe first line contains 2 space-separated integers N and M - the total number of employees working under Chef Shifu and the number of friendship relations.\u000a\u000aM lines follow - each line contains 2 space-separated integers u and v, indicating that employee u is a friend of employee v and vice-versa.\u000a\u000aThe employees are numbered from 1 to N, and each employee is assigned a distinct integer.\u000a\u000a\u000a\u000aOutput\u000aFor each testcase, print the minimum number of employees to be informed on a new line.\u000aConstraints\u000aSubtask 1: 5 points\u000a\u000a1 \u2264 T \u2264 5\u000a\u000a1 \u2264 N \u2264 4\u000a\u000a0 \u2264 M \u2264 N*(N-1)/2\u000a\u000a\u000a\u000a\u000aSubtask 2: 35 points\u000a\u000a1 \u2264 T \u2264 5\u000a\u000a1 \u2264 N \u2264 15\u000a\u000a0 \u2264 M \u2264 N*(N-1)/2\u000a\u000a\u000a\u000a\u000aSubtask 3: 60 points\u000a\u000a1 \u2264 T \u2264 5\u000a\u000a1 \u2264 N \u2264 20\u000a\u000a0 \u2264 M \u2264 N*(N-1)/2\u000a\u000a\u000aExample\u000aInput\u000a2\u000a3 3\u000a1 2\u000a2 3\u000a1 3\u000a4 3\u000a1 2\u000a2 3\u000a3 4\u000aOutput\u000a1\u000a2\u000aExplanation\u000aIn testcase 1, since every employee is a friend of every other employee, we just need to select 1 employee.\u000aIn testcase 2, selecting employees 2 and 4 would ensure that all 4 employees are represented.\u000aSimilarly, selecting employees 1 and 3 would also ensure that all 4 employees are selected.\u000aIn both cases, we must select 2 employees in the best case.\u000aAuthor: wittyceaser\u000aTags: wittyceaser\u000aDate Added: 22-06-2016\u000aTime Limit: 1 sec\u000aSource Limit: 50000 Bytes\u000aLanguages: ADA, ASM, BASH, BF, C, C99 strict, CAML, CLOJ, CLPS, CPP 4.3.2, CPP 4.9.2, CPP14, CS2, D, ERL, FORT, FS, GO, HASK, ICK, ICON, JAVA, JS, LISP clisp, LISP sbcl, LUA, NEM, NICE, NODEJS, PAS fpc, PAS gpc, PERL, PERL6, PHP, PIKE, PRLG, PYPY, PYTH, PYTH 3.4, RUBY, SCALA, SCM chicken, SCM guile, SCM qobi, ST, TCL, TEXT, WSPC\u000aSUBMIT All submissions for this problem are available.\u000aChef Shifu wanted to celebrate the success of his new restaurant with all his employees. He was willing to host a party and he had decided the location of the party as well. However, Chef Shifu was a shy person and wanted to communicate with the least possible employees to inform them about the party, and that these employees could inform their friends.\u000aNote that an employee could only inform his/her immediate friends about the party, not his/her friends\u2019 friends.\u000aChef Shifu has a list of all the friendships among his employees. Help him find the minimum number of employees he should inform, so that every employee knows about the celebration party.\u000aInput\u000aFirst line contains a single integer T - the total number of testcases.\u000a\u000aT testcases follow. For each testcase:\u000a\u000aThe first line contains 2 space-separated integers N and M - the total number of employees working under Chef Shifu and the number of friendship relations.\u000a\u000aM lines follow - each line contains 2 space-separated integers u and v, indicating that employee u is a friend of employee v and vice-versa.\u000a\u000aThe employees are numbered from 1 to N, and each employee is assigned a distinct integer.\u000a\u000a\u000a\u000aOutput\u000aFor each testcase, print the minimum number of employees to be informed on a new line.\u000aConstraints\u000aSubtask 1: 5 points\u000a\u000a1 \u2264 T \u2264 5\u000a\u000a1 \u2264 N \u2264 4\u000a\u000a0 \u2264 M \u2264 N*(N-1)/2\u000a\u000a\u000a\u000a\u000aSubtask 2: 35 points\u000a\u000a1 \u2264 T \u2264 5\u000a\u000a1 \u2264 N \u2264 15\u000a\u000a0 \u2264 M \u2264 N*(N-1)/2\u000a\u000a\u000a\u000a\u000aSubtask 3: 60 points\u000a\u000a1 \u2264 T \u2264 5\u000a\u000a1 \u2264 N \u2264 20\u000a\u000a0 \u2264 M \u2264 N*(N-1)/2\u000a\u000a\u000aExample\u000aInput\u000a2\u000a3 3\u000a1 2\u000a2 3\u000a1 3\u000a4 3\u000a1 2\u000a2 3\u000a3 4\u000aOutput\u000a1\u000a2\u000aExplanation\u000aIn testcase 1, since every employee is a friend of every other employee, we just need to select 1 employee.\u000aIn testcase 2, selecting employees 2 and 4 would ensure that all 4 employees are represented.\u000aSimilarly, selecting employees 1 and 3 would also ensure that all 4 employees are selected.\u000aIn both cases, we must select 2 employees in the best case.\u000aAuthor: wittyceaser\u000aTags: wittyceaser\u000aDate Added: 22-06-2016\u000aTime Limit: 1 sec\u000aSource Limit: 50000 Bytes\u000aLanguages: ADA, ASM, BASH, BF, C, C99 strict, CAML, CLOJ, CLPS, CPP 4.3.2, CPP 4.9.2, CPP14, CS2, D, ERL, FORT, FS, GO, HASK, ICK, ICON, JAVA, JS, LISP clisp, LISP sbcl, LUA, NEM, NICE, NODEJS, PAS fpc, PAS gpc, PERL, PERL6, PHP, PIKE, PRLG, PYPY, PYTH, PYTH 3.4, RUBY, SCALA, SCM chicken, SCM guile, SCM qobi, ST, TCL, TEXT, WSPC All submissions for this problem are available. Chef Shifu wanted to celebrate the success of his new restaurant with all his employees. He was willing to host a party and he had decided the location of the party as well. However, Chef Shifu was a shy person and wanted to communicate with the least possible employees to inform them about the party, and that these employees could inform their friends.\u000aNote that an employee could only inform his/her immediate friends about the party, not his/her friends\u2019 friends.\u000aChef Shifu has a list of all the friendships among his employees. Help him find the minimum number of employees he should inform, so that every employee knows about the celebration party.   Input First line contains a single integer T - the total number of testcases.\u000a\u000aT testcases follow. For each testcase:\u000a\u000aThe first line contains 2 space-separated integers N and M - the total number of employees working under Chef Shifu and the number of friendship relations.\u000a\u000aM lines follow - each line contains 2 space-separated integers u and v, indicating that employee u is a friend of employee v and vice-versa.\u000a\u000aThe employees are numbered from 1 to N, and each employee is assigned a distinct integer. T   T   N M   M u v u v       Output For each testcase, print the minimum number of employees to be informed on a new line. minimum Constraints Subtask 1: 5 points\u000a\u000a1 \u2264 T \u2264 5\u000a\u000a1 \u2264 N \u2264 4\u000a\u000a0 \u2264 M \u2264 N*(N-1)/2 Subtask 1: 5 points   T   N   M      Subtask 2: 35 points\u000a\u000a1 \u2264 T \u2264 5\u000a\u000a1 \u2264 N \u2264 15\u000a\u000a0 \u2264 M \u2264 N*(N-1)/2 Subtask 2: 35 points   T   N   M      Subtask 3: 60 points\u000a\u000a1 \u2264 T \u2264 5\u000a\u000a1 \u2264 N \u2264 20\u000a\u000a0 \u2264 M \u2264 N*(N-1)/2 Subtask 3: 60 points   T   N   M    Example Input Input 2\u000a3 3\u000a1 2\u000a2 3\u000a1 3\u000a4 3\u000a1 2\u000a2 3\u000a3 4 Output Output 1\u000a2 Explanation Explanation In testcase 1, since every employee is a friend of every other employee, we just need to select 1 employee. In testcase 2, selecting employees 2 and 4 would ensure that all 4 employees are represented.\u000aSimilarly, selecting employees 1 and 3 would also ensure that all 4 employees are selected.\u000aIn both cases, we must select 2 employees in the best case.    Author: wittyceaser\u000aTags: wittyceaser\u000aDate Added: 22-06-2016\u000aTime Limit: 1 sec\u000aSource Limit: 50000 Bytes\u000aLanguages: ADA, ASM, BASH, BF, C, C99 strict, CAML, CLOJ, CLPS, CPP 4.3.2, CPP 4.9.2, CPP14, CS2, D, ERL, FORT, FS, GO, HASK, ICK, ICON, JAVA, JS, LISP clisp, LISP sbcl, LUA, NEM, NICE, NODEJS, PAS fpc, PAS gpc, PERL, PERL6, PHP, PIKE, PRLG, PYPY, PYTH, PYTH 3.4, RUBY, SCALA, SCM chicken, SCM guile, SCM qobi, ST, TCL, TEXT, WSPC Author: wittyceaser\u000aTags: wittyceaser\u000aDate Added: 22-06-2016\u000aTime Limit: 1 sec\u000aSource Limit: 50000 Bytes\u000aLanguages: ADA, ASM, BASH, BF, C, C99 strict, CAML, CLOJ, CLPS, CPP 4.3.2, CPP 4.9.2, CPP14, CS2, D, ERL, FORT, FS, GO, HASK, ICK, ICON, JAVA, JS, LISP clisp, LISP sbcl, LUA, NEM, NICE, NODEJS, PAS fpc, PAS gpc, PERL, PERL6, PHP, PIKE, PRLG, PYPY, PYTH, PYTH 3.4, RUBY, SCALA, SCM chicken, SCM guile, SCM qobi, ST, TCL, TEXT, WSPC Author: wittyceaser Author: wittyceaser wittyceaser Tags: wittyceaser Tags: wittyceaser wittyceaser Date Added: 22-06-2016 Date Added: 22-06-2016 Time Limit: 1 sec Time Limit: 1 sec Source Limit: 50000 Bytes Source Limit: 50000 Bytes Languages: ADA, ASM, BASH, BF, C, C99 strict, CAML, CLOJ, CLPS, CPP 4.3.2, CPP 4.9.2, CPP14, CS2, D, ERL, FORT, FS, GO, HASK, ICK, ICON, JAVA, JS, LISP clisp, LISP sbcl, LUA, NEM, NICE, NODEJS, PAS fpc, PAS gpc, PERL, PERL6, PHP, PIKE, PRLG, PYPY, PYTH, PYTH 3.4, RUBY, SCALA, SCM chicken, SCM guile, SCM qobi, ST, TCL, TEXT, WSPC Languages: ADA, ASM, BASH, BF, C, C99 strict, CAML, CLOJ, CLPS, CPP 4.3.2, CPP 4.9.2, CPP14, CS2, D, ERL, FORT, FS, GO, HASK, ICK, ICON, JAVA, JS, LISP clisp, LISP sbcl, LUA, NEM, NICE, NODEJS, PAS fpc, PAS gpc, PERL, PERL6, PHP, PIKE, PRLG, PYPY, PYTH, PYTH 3.4, RUBY, SCALA, SCM chicken, SCM guile, SCM qobi, ST, TCL, TEXT, WSPC SUBMIT  SUBMIT SUBMIT SUCCESSFUL SUBMISSIONS SUCCESSFUL SUBMISSIONS SUCCESSFUL SUBMISSIONS SUCCESSFUL SUBMISSIONS SUCCESSFUL SUBMISSIONS  
p9
sS'tags'
p10
V wittyceaser
p11
sS'url'
p12
Vhttps://www.codechef.com/problems/CHSHIFU
p13
sS'statement'
p14
(lp15
VAll submissions for this problem are available.
p16
aVChef Shifu wanted to celebrate the success of his new restaurant with all his employees. He was willing to host a party and he had decided the location of the party as well. However, Chef Shifu was a shy person and wanted to communicate with the least possible employees to inform them about the party, and that these employees could inform their friends.
p17
aVNote that an employee could only inform his/her immediate friends about the party, not his/her friends\u2019 friends.
p18
aVChef Shifu has a list of all the friendships among his employees. Help him find the minimum number of employees he should inform, so that every employee knows about the celebration party.
p19
asS'input'
p20
(lp21
VInput
p22
aVFirst line contains a single integer T - the total number of testcases.
p23
aV
p24
aVT testcases follow. For each testcase:
p25
ag24
aVThe first line contains 2 space-separated integers N and M - the total number of employees working under Chef Shifu and the number of friendship relations.
p26
ag24
aVM lines follow - each line contains 2 space-separated integers u and v, indicating that employee u is a friend of employee v and vice-versa.
p27
ag24
aVThe employees are numbered from 1 to N, and each employee is assigned a distinct integer.
p28
ag24
ag24
ag24
aVOutput
p29
aVFor each testcase, print the minimum number of employees to be informed on a new line.
p30
asS'constraints'
p31
(lp32
VConstraints
p33
aVSubtask 1: 5 points
p34
ag24
aV1 \u2264 T \u2264 5
p35
ag24
aV1 \u2264 N \u2264 4
p36
ag24
aV0 \u2264 M \u2264 N*(N-1)/2
p37
ag24
ag24
ag24
ag24
aVSubtask 2: 35 points
p38
ag24
aV1 \u2264 T \u2264 5
p39
ag24
aV1 \u2264 N \u2264 15
p40
ag24
aV0 \u2264 M \u2264 N*(N-1)/2
p41
ag24
ag24
ag24
ag24
aVSubtask 3: 60 points
p42
ag24
aV1 \u2264 T \u2264 5
p43
ag24
aV1 \u2264 N \u2264 20
p44
ag24
aV0 \u2264 M \u2264 N*(N-1)/2
p45
ag24
ag24
asS'id'
p46
c__builtin__
id
p47
sS'name'
p48
VCHSHIFU
p49
sb.