(iproblems
Problem
p0
(dp1
S'time_limit'
p2
(lp3
VTime Limit: 3 sec
p4
asS'source_limit'
p5
(lp6
VSource Limit: 50000 Bytes
p7
asS'description'
p8
V All submissions for this problem are available.\u000aGiven an integer N. Integers A and B are chosen randomly in the range [1..N]. Calculate the probability that the Greatest Common Divisor(GCD) of A and B equals to B.\u000aInput\u000aThe first line of the input contains an integer T denoting the number of test cases. The description of T test cases follows. Each test case consists of a single integer N on a separate line.\u000aOutput\u000aFor each test case, output a single line containing probability as an irreducible fraction.\u000aExample\u000aInput:\u000a3\u000a1\u000a2\u000a3\u000a\u000aOutput:\u000a1/1\u000a3/4\u000a5/9\u000aConstraints\u000a1<=T<=103\u000a\u000a1<=N<=109\u000aAuthor: Rubanenko\u000aTester: xcwgf666\u000aEditorial: http://discuss.codechef.com/problems/COOLGUYS\u000aTags: Rubanenko easy number-theory sept13\u000aDate Added: 1-05-2013\u000aTime Limit: 3 sec\u000aSource Limit: 50000 Bytes\u000aLanguages: ADA, ASM, BASH, BF, C, C99 strict, CAML, CLOJ, CLPS, CPP 4.3.2, CPP 4.9.2, CPP14, CS2, D, ERL, FORT, FS, GO, HASK, ICK, ICON, JAVA, JS, LISP clisp, LISP sbcl, LUA, NEM, NICE, NODEJS, PAS fpc, PAS gpc, PERL, PERL6, PHP, PIKE, PRLG, PYTH, PYTH 3.4, RUBY, SCALA, SCM guile, SCM qobi, ST, TCL, TEXT, WSPC\u000aSUBMIT All submissions for this problem are available.\u000aGiven an integer N. Integers A and B are chosen randomly in the range [1..N]. Calculate the probability that the Greatest Common Divisor(GCD) of A and B equals to B.\u000aInput\u000aThe first line of the input contains an integer T denoting the number of test cases. The description of T test cases follows. Each test case consists of a single integer N on a separate line.\u000aOutput\u000aFor each test case, output a single line containing probability as an irreducible fraction.\u000aExample\u000aInput:\u000a3\u000a1\u000a2\u000a3\u000a\u000aOutput:\u000a1/1\u000a3/4\u000a5/9\u000aConstraints\u000a1<=T<=103\u000a\u000a1<=N<=109\u000aAuthor: Rubanenko\u000aTester: xcwgf666\u000aEditorial: http://discuss.codechef.com/problems/COOLGUYS\u000aTags: Rubanenko easy number-theory sept13\u000aDate Added: 1-05-2013\u000aTime Limit: 3 sec\u000aSource Limit: 50000 Bytes\u000aLanguages: ADA, ASM, BASH, BF, C, C99 strict, CAML, CLOJ, CLPS, CPP 4.3.2, CPP 4.9.2, CPP14, CS2, D, ERL, FORT, FS, GO, HASK, ICK, ICON, JAVA, JS, LISP clisp, LISP sbcl, LUA, NEM, NICE, NODEJS, PAS fpc, PAS gpc, PERL, PERL6, PHP, PIKE, PRLG, PYTH, PYTH 3.4, RUBY, SCALA, SCM guile, SCM qobi, ST, TCL, TEXT, WSPC All submissions for this problem are available. Given an integer N. Integers A and B are chosen randomly in the range [1..N]. Calculate the probability that the Greatest Common Divisor(GCD) of A and B equals to B. N A B [1..N] A B B Input The first line of the input contains an integer T denoting the number of test cases. The description of T test cases follows. Each test case consists of a single integer N on a separate line. T T N Output For each test case, output a single line containing probability as an irreducible fraction. Example Input:\u000a3\u000a1\u000a2\u000a3\u000a\u000aOutput:\u000a1/1\u000a3/4\u000a5/9 Input: Output: Constraints 1<=T<=103\u000a\u000a1<=N<=109 T 3   N 9  Author: Rubanenko\u000aTester: xcwgf666\u000aEditorial: http://discuss.codechef.com/problems/COOLGUYS\u000aTags: Rubanenko easy number-theory sept13\u000aDate Added: 1-05-2013\u000aTime Limit: 3 sec\u000aSource Limit: 50000 Bytes\u000aLanguages: ADA, ASM, BASH, BF, C, C99 strict, CAML, CLOJ, CLPS, CPP 4.3.2, CPP 4.9.2, CPP14, CS2, D, ERL, FORT, FS, GO, HASK, ICK, ICON, JAVA, JS, LISP clisp, LISP sbcl, LUA, NEM, NICE, NODEJS, PAS fpc, PAS gpc, PERL, PERL6, PHP, PIKE, PRLG, PYTH, PYTH 3.4, RUBY, SCALA, SCM guile, SCM qobi, ST, TCL, TEXT, WSPC Author: Rubanenko\u000aTester: xcwgf666\u000aEditorial: http://discuss.codechef.com/problems/COOLGUYS\u000aTags: Rubanenko easy number-theory sept13\u000aDate Added: 1-05-2013\u000aTime Limit: 3 sec\u000aSource Limit: 50000 Bytes\u000aLanguages: ADA, ASM, BASH, BF, C, C99 strict, CAML, CLOJ, CLPS, CPP 4.3.2, CPP 4.9.2, CPP14, CS2, D, ERL, FORT, FS, GO, HASK, ICK, ICON, JAVA, JS, LISP clisp, LISP sbcl, LUA, NEM, NICE, NODEJS, PAS fpc, PAS gpc, PERL, PERL6, PHP, PIKE, PRLG, PYTH, PYTH 3.4, RUBY, SCALA, SCM guile, SCM qobi, ST, TCL, TEXT, WSPC Author: Rubanenko Author: Rubanenko Rubanenko Tester: xcwgf666 Tester: xcwgf666 xcwgf666 Editorial: http://discuss.codechef.com/problems/COOLGUYS Editorial: http://discuss.codechef.com/problems/COOLGUYS http://discuss.codechef.com/problems/COOLGUYS Tags: Rubanenko easy number-theory sept13 Tags: Rubanenko easy number-theory sept13 Rubanenko easy number-theory sept13 Date Added: 1-05-2013 Date Added: 1-05-2013 Time Limit: 3 sec Time Limit: 3 sec Source Limit: 50000 Bytes Source Limit: 50000 Bytes Languages: ADA, ASM, BASH, BF, C, C99 strict, CAML, CLOJ, CLPS, CPP 4.3.2, CPP 4.9.2, CPP14, CS2, D, ERL, FORT, FS, GO, HASK, ICK, ICON, JAVA, JS, LISP clisp, LISP sbcl, LUA, NEM, NICE, NODEJS, PAS fpc, PAS gpc, PERL, PERL6, PHP, PIKE, PRLG, PYTH, PYTH 3.4, RUBY, SCALA, SCM guile, SCM qobi, ST, TCL, TEXT, WSPC Languages: ADA, ASM, BASH, BF, C, C99 strict, CAML, CLOJ, CLPS, CPP 4.3.2, CPP 4.9.2, CPP14, CS2, D, ERL, FORT, FS, GO, HASK, ICK, ICON, JAVA, JS, LISP clisp, LISP sbcl, LUA, NEM, NICE, NODEJS, PAS fpc, PAS gpc, PERL, PERL6, PHP, PIKE, PRLG, PYTH, PYTH 3.4, RUBY, SCALA, SCM guile, SCM qobi, ST, TCL, TEXT, WSPC SUBMIT  SUBMIT SUBMIT SUCCESSFUL SUBMISSIONS SUCCESSFUL SUBMISSIONS SUCCESSFUL SUBMISSIONS SUCCESSFUL SUBMISSIONS SUCCESSFUL SUBMISSIONS  
p9
sS'tags'
p10
V Rubanenko easy number-theory sept13
p11
sS'url'
p12
Vhttps://www.codechef.com/problems/COOLGUYS
p13
sS'statement'
p14
(lp15
V All submissions for this problem are available.
p16
aVGiven an integer N. Integers A and B are chosen randomly in the range [1..N]. Calculate the probability that the Greatest Common Divisor(GCD) of A and B equals to B.
p17
asS'input'
p18
(lp19
VInput
p20
aVThe first line of the input contains an integer T denoting the number of test cases. The description of T test cases follows. Each test case consists of a single integer N on a separate line.
p21
aVOutput
p22
aVFor each test case, output a single line containing probability as an irreducible fraction.
p23
aVExample
p24
aVInput:
p25
aV3
p26
aV1
p27
aV2
p28
ag26
aV
p29
aVOutput:
p30
aV1/1
p31
aV3/4
p32
aV5/9
p33
asS'constraints'
p34
(lp35
sS'id'
p36
c__builtin__
id
p37
sS'name'
p38
VCOOLGUYS
p39
sb.