(iproblems
Problem
p0
(dp1
S'time_limit'
p2
(lp3
VTime Limit: 1 sec
p4
asS'source_limit'
p5
(lp6
VSource Limit: 50000 Bytes
p7
asS'description'
p8
V All submissions for this problem are available.\u000aRead problems statements in Mandarin Chinese and Russian.\u000aChef and his friend Yurii decided to meet in the cafe. As they are very busy one would not wait for another too long. Namely, after arriving, Chef will spend at most t1 seconds waiting for Yurii while Yurii will wait no more than t2 seconds.\u000aChef can arrive at any moment within [0..T1] with equal probability. Similarly Yurii can arrive at any moment within [0..T2].\u000aArrival time may be any real number from the interval.\u000aChef asks you to calculate the probability of meeting his friend Yurii in the cafe.\u000aInput\u000aFirst line of the input contains an integer T denoting the number of test cases. First and the only line of each test case contains four space-separated integers \u2013 T1, T2, t1 and t2.\u000aOutput\u000aFor each test case, output one the single real number - probability of meeting Chef and his friend Yurii. The answer will be considered correct if its absolute or relative error doesn't exceed 10-6.\u000aConstraints\u000a1 \u2264 T \u2264 105\u000a1 \u2264 T1, T2 \u2264 109\u000a0 \u2264 t1, t2 \u2264 109\u000aSubtask 1: (5 points)\u000at1 = 0 and t2 = 0\u000aSubtask 2: (15 points)\u000at1 = 0 or t2 = 0\u000aSubtask 3: (25 points)\u000a1 \u2264 T \u2264 5\u000a1 \u2264 T1, T2 \u2264 10\u000aThe answer will be considered correct if its absolute or relative error doesn't exceed 10-2\u000aSubtask 4: (55 points)\u000aOriginal constraints\u000aExample\u000aInput:\u000a2\u000a2 2 1 1\u000a1 1 1 1\u000aOutput:\u000a0.750000\u000a1.000000\u000aAuthor: antoniuk1\u000aEditorial: http://discuss.codechef.com/problems/FRNDMTNG\u000aTags: antoniuk1 easy frndmting june15 maths probability\u000aDate Added: 5-02-2015\u000aTime Limit: 1 sec\u000aSource Limit: 50000 Bytes\u000aLanguages: ADA, ASM, BASH, BF, C, C99 strict, CAML, CLOJ, CLPS, CPP 4.3.2, CPP 4.9.2, CPP14, CS2, D, ERL, FORT, FS, GO, HASK, ICK, ICON, JAVA, JS, LISP clisp, LISP sbcl, LUA, NEM, NICE, NODEJS, PAS fpc, PAS gpc, PERL, PERL6, PHP, PIKE, PRLG, PYPY, PYTH, PYTH 3.4, RUBY, SCALA, SCM chicken, SCM guile, SCM qobi, ST, TCL, TEXT, WSPC\u000aSUBMIT All submissions for this problem are available.\u000aRead problems statements in Mandarin Chinese and Russian.\u000aChef and his friend Yurii decided to meet in the cafe. As they are very busy one would not wait for another too long. Namely, after arriving, Chef will spend at most t1 seconds waiting for Yurii while Yurii will wait no more than t2 seconds.\u000aChef can arrive at any moment within [0..T1] with equal probability. Similarly Yurii can arrive at any moment within [0..T2].\u000aArrival time may be any real number from the interval.\u000aChef asks you to calculate the probability of meeting his friend Yurii in the cafe.\u000aInput\u000aFirst line of the input contains an integer T denoting the number of test cases. First and the only line of each test case contains four space-separated integers \u2013 T1, T2, t1 and t2.\u000aOutput\u000aFor each test case, output one the single real number - probability of meeting Chef and his friend Yurii. The answer will be considered correct if its absolute or relative error doesn't exceed 10-6.\u000aConstraints\u000a1 \u2264 T \u2264 105\u000a1 \u2264 T1, T2 \u2264 109\u000a0 \u2264 t1, t2 \u2264 109\u000aSubtask 1: (5 points)\u000at1 = 0 and t2 = 0\u000aSubtask 2: (15 points)\u000at1 = 0 or t2 = 0\u000aSubtask 3: (25 points)\u000a1 \u2264 T \u2264 5\u000a1 \u2264 T1, T2 \u2264 10\u000aThe answer will be considered correct if its absolute or relative error doesn't exceed 10-2\u000aSubtask 4: (55 points)\u000aOriginal constraints\u000aExample\u000aInput:\u000a2\u000a2 2 1 1\u000a1 1 1 1\u000aOutput:\u000a0.750000\u000a1.000000\u000aAuthor: antoniuk1\u000aEditorial: http://discuss.codechef.com/problems/FRNDMTNG\u000aTags: antoniuk1 easy frndmting june15 maths probability\u000aDate Added: 5-02-2015\u000aTime Limit: 1 sec\u000aSource Limit: 50000 Bytes\u000aLanguages: ADA, ASM, BASH, BF, C, C99 strict, CAML, CLOJ, CLPS, CPP 4.3.2, CPP 4.9.2, CPP14, CS2, D, ERL, FORT, FS, GO, HASK, ICK, ICON, JAVA, JS, LISP clisp, LISP sbcl, LUA, NEM, NICE, NODEJS, PAS fpc, PAS gpc, PERL, PERL6, PHP, PIKE, PRLG, PYPY, PYTH, PYTH 3.4, RUBY, SCALA, SCM chicken, SCM guile, SCM qobi, ST, TCL, TEXT, WSPC All submissions for this problem are available. Read problems statements in Mandarin Chinese and Russian. Mandarin Chinese Russian Chef and his friend Yurii decided to meet in the cafe. As they are very busy one would not wait for another too long. Namely, after arriving, Chef will spend at most t1 seconds waiting for Yurii while Yurii will wait no more than t2 seconds. t1 1 t2 2 Chef can arrive at any moment within [0..T1] with equal probability. Similarly Yurii can arrive at any moment within [0..T2]. [0..T1] 1 [0..T2] 2 Arrival time may be any real number from the interval. Arrival time may be any real number from the interval. Chef asks you to calculate the probability of meeting his friend Yurii in the cafe. probability Input First line of the input contains an integer T denoting the number of test cases. First and the only line of each test case contains four space-separated integers \u2013 T1, T2, t1 and t2. T T1 1 T2 2 t1 1 t2 2 Output For each test case, output one the single real number - probability of meeting Chef and his friend Yurii. The answer will be considered correct if its absolute or relative error doesn't exceed 10-6. 10-6 -6 Constraints 1 \u2264 T \u2264 105\u000a1 \u2264 T1, T2 \u2264 109\u000a0 \u2264 t1, t2 \u2264 109 1 \u2264 T \u2264 105 1 \u2264 T \u2264 105 5 1 \u2264 T1, T2 \u2264 109 1 \u2264 T1, T2 \u2264 109 1 2 9 0 \u2264 t1, t2 \u2264 109 0 \u2264 t1, t2 \u2264 109 1 2 9  Subtask 1: (5 points) Subtask 1: (5 points) t1 = 0 and t2 = 0 t1 = 0 and t2 = 0 t1 = 0 1 t2 = 0 2  Subtask 2: (15 points) Subtask 2: (15 points) t1 = 0 or t2 = 0 t1 = 0 or t2 = 0 t1 = 0 1 t2 = 0 2  Subtask 3: (25 points) Subtask 3: (25 points) 1 \u2264 T \u2264 5\u000a1 \u2264 T1, T2 \u2264 10\u000aThe answer will be considered correct if its absolute or relative error doesn't exceed 10-2 1 \u2264 T \u2264 5 1 \u2264 T \u2264 5 1 \u2264 T1, T2 \u2264 10 1 \u2264 T1, T2 \u2264 10 1 2 The answer will be considered correct if its absolute or relative error doesn't exceed 10-2 10-2 -2  Subtask 4: (55 points) Subtask 4: (55 points) Original constraints Original constraints  Example Input:\u000a2\u000a2 2 1 1\u000a1 1 1 1\u000aOutput:\u000a0.750000\u000a1.000000 Input: Output:  Author: antoniuk1\u000aEditorial: http://discuss.codechef.com/problems/FRNDMTNG\u000aTags: antoniuk1 easy frndmting june15 maths probability\u000aDate Added: 5-02-2015\u000aTime Limit: 1 sec\u000aSource Limit: 50000 Bytes\u000aLanguages: ADA, ASM, BASH, BF, C, C99 strict, CAML, CLOJ, CLPS, CPP 4.3.2, CPP 4.9.2, CPP14, CS2, D, ERL, FORT, FS, GO, HASK, ICK, ICON, JAVA, JS, LISP clisp, LISP sbcl, LUA, NEM, NICE, NODEJS, PAS fpc, PAS gpc, PERL, PERL6, PHP, PIKE, PRLG, PYPY, PYTH, PYTH 3.4, RUBY, SCALA, SCM chicken, SCM guile, SCM qobi, ST, TCL, TEXT, WSPC Author: antoniuk1\u000aEditorial: http://discuss.codechef.com/problems/FRNDMTNG\u000aTags: antoniuk1 easy frndmting june15 maths probability\u000aDate Added: 5-02-2015\u000aTime Limit: 1 sec\u000aSource Limit: 50000 Bytes\u000aLanguages: ADA, ASM, BASH, BF, C, C99 strict, CAML, CLOJ, CLPS, CPP 4.3.2, CPP 4.9.2, CPP14, CS2, D, ERL, FORT, FS, GO, HASK, ICK, ICON, JAVA, JS, LISP clisp, LISP sbcl, LUA, NEM, NICE, NODEJS, PAS fpc, PAS gpc, PERL, PERL6, PHP, PIKE, PRLG, PYPY, PYTH, PYTH 3.4, RUBY, SCALA, SCM chicken, SCM guile, SCM qobi, ST, TCL, TEXT, WSPC Author: antoniuk1 Author: antoniuk1 antoniuk1 Editorial: http://discuss.codechef.com/problems/FRNDMTNG Editorial: http://discuss.codechef.com/problems/FRNDMTNG http://discuss.codechef.com/problems/FRNDMTNG Tags: antoniuk1 easy frndmting june15 maths probability Tags: antoniuk1 easy frndmting june15 maths probability antoniuk1 easy frndmting june15 maths probability Date Added: 5-02-2015 Date Added: 5-02-2015 Time Limit: 1 sec Time Limit: 1 sec Source Limit: 50000 Bytes Source Limit: 50000 Bytes Languages: ADA, ASM, BASH, BF, C, C99 strict, CAML, CLOJ, CLPS, CPP 4.3.2, CPP 4.9.2, CPP14, CS2, D, ERL, FORT, FS, GO, HASK, ICK, ICON, JAVA, JS, LISP clisp, LISP sbcl, LUA, NEM, NICE, NODEJS, PAS fpc, PAS gpc, PERL, PERL6, PHP, PIKE, PRLG, PYPY, PYTH, PYTH 3.4, RUBY, SCALA, SCM chicken, SCM guile, SCM qobi, ST, TCL, TEXT, WSPC Languages: ADA, ASM, BASH, BF, C, C99 strict, CAML, CLOJ, CLPS, CPP 4.3.2, CPP 4.9.2, CPP14, CS2, D, ERL, FORT, FS, GO, HASK, ICK, ICON, JAVA, JS, LISP clisp, LISP sbcl, LUA, NEM, NICE, NODEJS, PAS fpc, PAS gpc, PERL, PERL6, PHP, PIKE, PRLG, PYPY, PYTH, PYTH 3.4, RUBY, SCALA, SCM chicken, SCM guile, SCM qobi, ST, TCL, TEXT, WSPC SUBMIT  SUBMIT SUBMIT SUCCESSFUL SUBMISSIONS SUCCESSFUL SUBMISSIONS SUCCESSFUL SUBMISSIONS SUCCESSFUL SUBMISSIONS SUCCESSFUL SUBMISSIONS  
p9
sS'tags'
p10
V antoniuk1 easy frndmting june15 maths probability
p11
sS'url'
p12
Vhttps://www.codechef.com/problems/FRNDMTNG
p13
sS'statement'
p14
(lp15
VAll submissions for this problem are available.
p16
aVRead problems statements in Mandarin Chinese and Russian.
p17
aVChef and his friend Yurii decided to meet in the cafe. As they are very busy one would not wait for another too long. Namely, after arriving, Chef will spend at most t1 seconds waiting for Yurii while Yurii will wait no more than t2 seconds.
p18
aVChef can arrive at any moment within [0..T1] with equal probability. Similarly Yurii can arrive at any moment within [0..T2].
p19
aVArrival time may be any real number from the interval.
p20
aVChef asks you to calculate the probability of meeting his friend Yurii in the cafe.
p21
asS'input'
p22
(lp23
VInput
p24
aVFirst line of the input contains an integer T denoting the number of test cases. First and the only line of each test case contains four space-separated integers \u2013 T1, T2, t1 and t2.
p25
aVOutput
p26
aVFor each test case, output one the single real number - probability of meeting Chef and his friend Yurii. The answer will be considered correct if its absolute or relative error doesn't exceed 10-6.
p27
asS'constraints'
p28
(lp29
VConstraints
p30
aV1 \u2264 T \u2264 105
p31
aV1 \u2264 T1, T2 \u2264 109
p32
aV0 \u2264 t1, t2 \u2264 109
p33
aVSubtask 1: (5 points)
p34
aVt1 = 0 and t2 = 0
p35
aVSubtask 2: (15 points)
p36
aVt1 = 0 or t2 = 0
p37
aVSubtask 3: (25 points)
p38
aV1 \u2264 T \u2264 5
p39
aV1 \u2264 T1, T2 \u2264 10
p40
aVThe answer will be considered correct if its absolute or relative error doesn't exceed 10-2
p41
aVSubtask 4: (55 points)
p42
aVOriginal constraints
p43
asS'id'
p44
c__builtin__
id
p45
sS'name'
p46
VFRNDMTNG
p47
sb.