(iproblems
Problem
p0
(dp1
S'time_limit'
p2
(lp3
VTime Limit: 1 sec
p4
asS'source_limit'
p5
(lp6
VSource Limit: 50000 Bytes
p7
asS'description'
p8
V All submissions for this problem are available.\u000aCodeChef has been very busy with his christmas preparations and he doesn't have time to look after Samosa Bhai and Jalebi Bai. To keep them busy, CodeChef has given them an array A of size N. He has asked them to plant trees at the points with Cartesian coordinates (A[ i ], A[ j ]), such that i < j.\u000aThere are a lot of giraffes nearby. To save the trees from the giraffes, they decide to build a fence around the trees. Moreover, they want to use the minimum length of fencing for this task. Find the value equal to twice the area covered by the fence using the minimum length of fencing.\u000aInput\u000aThe first line contains T, the number of test cases to follow.\u000aThe first line of each test case contains an integer N, the size of the array.\u000aThe second line of the test case contains N space-separated integers.\u000aOutput\u000aFor each test case, output the value equal to two times the area, rounded to the nearest integer, surrounded by the fence when using the minimum length of net to surround all the trees.\u000aConstraints\u000a1 \u2264 T \u2264 40000\u000a2 \u2264 N \u2264 105\u000a1 \u2264 Value of the array elements \u2264 108\u000a1 \u2264 Sum of N over all cases \u2264 2*105\u000aExample\u000aInput:\u000a2\u000a3\u000a2 4 1\u000a4\u000a2 4 1 3\u000a\u000aOutput:\u000a6\u000a13\u000aExplanation\u000aExample case 1.\u000aCovered portion is a right angled triangle with vertices (2,4), (2,1) and (4,1).\u000aArea = (1/2)*2*3 = 3.\u000aExample case 2.\u000a\u000a\u000aA, B, C, D, E, and F denote the trees.\u000a\u000aThe above image denotes the situation.\u000a\u000aArea of the figure = 6.5\u000a\u000a2*(Area of Triangle ABC + Area of Triangle BFE + Area of Square EFCD) is the answer.\u000a\u000aArea of Triangle ABC = 1.5\u000a\u000aArea of Triangle BFE = 1\u000a\u000aArea of Square EFCD = 2*2 = 4\u000a\u000a\u000a\u000a\u000a\u000a\u000a\u000a\u000aAuthor: devuy11\u000aEditorial: http://discuss.codechef.com/problems/KOL1509\u000aTags: acm15kol convex-hull devuy11\u000aDate Added: 18-12-2015\u000aTime Limit: 1 sec\u000aSource Limit: 50000 Bytes\u000aLanguages: C, CPP14, JAVA\u000aSUBMIT All submissions for this problem are available.\u000aCodeChef has been very busy with his christmas preparations and he doesn't have time to look after Samosa Bhai and Jalebi Bai. To keep them busy, CodeChef has given them an array A of size N. He has asked them to plant trees at the points with Cartesian coordinates (A[ i ], A[ j ]), such that i < j.\u000aThere are a lot of giraffes nearby. To save the trees from the giraffes, they decide to build a fence around the trees. Moreover, they want to use the minimum length of fencing for this task. Find the value equal to twice the area covered by the fence using the minimum length of fencing.\u000aInput\u000aThe first line contains T, the number of test cases to follow.\u000aThe first line of each test case contains an integer N, the size of the array.\u000aThe second line of the test case contains N space-separated integers.\u000aOutput\u000aFor each test case, output the value equal to two times the area, rounded to the nearest integer, surrounded by the fence when using the minimum length of net to surround all the trees.\u000aConstraints\u000a1 \u2264 T \u2264 40000\u000a2 \u2264 N \u2264 105\u000a1 \u2264 Value of the array elements \u2264 108\u000a1 \u2264 Sum of N over all cases \u2264 2*105\u000aExample\u000aInput:\u000a2\u000a3\u000a2 4 1\u000a4\u000a2 4 1 3\u000a\u000aOutput:\u000a6\u000a13\u000aExplanation\u000aExample case 1.\u000aCovered portion is a right angled triangle with vertices (2,4), (2,1) and (4,1).\u000aArea = (1/2)*2*3 = 3.\u000aExample case 2.\u000a\u000a\u000aA, B, C, D, E, and F denote the trees.\u000a\u000aThe above image denotes the situation.\u000a\u000aArea of the figure = 6.5\u000a\u000a2*(Area of Triangle ABC + Area of Triangle BFE + Area of Square EFCD) is the answer.\u000a\u000aArea of Triangle ABC = 1.5\u000a\u000aArea of Triangle BFE = 1\u000a\u000aArea of Square EFCD = 2*2 = 4\u000a\u000a\u000a\u000a\u000a\u000a\u000a\u000a\u000aAuthor: devuy11\u000aEditorial: http://discuss.codechef.com/problems/KOL1509\u000aTags: acm15kol convex-hull devuy11\u000aDate Added: 18-12-2015\u000aTime Limit: 1 sec\u000aSource Limit: 50000 Bytes\u000aLanguages: C, CPP14, JAVA All submissions for this problem are available. CodeChef has been very busy with his christmas preparations and he doesn't have time to look after Samosa Bhai and Jalebi Bai. To keep them busy, CodeChef has given them an array A of size N. He has asked them to plant trees at the points with Cartesian coordinates (A[ i ], A[ j ]), such that i < j. A N A[ i ] A[ j ] i j There are a lot of giraffes nearby. To save the trees from the giraffes, they decide to build a fence around the trees. Moreover, they want to use the minimum length of fencing for this task. Find the value equal to twice the area covered by the fence using the minimum length of fencing. twice the area Input The first line contains T, the number of test cases to follow. T The first line of each test case contains an integer N, the size of the array. N The second line of the test case contains N space-separated integers. N Output For each test case, output the value equal to two times the area, rounded to the nearest integer, surrounded by the fence when using the minimum length of net to surround all the trees. two times the area Constraints 1 \u2264 T \u2264 40000\u000a2 \u2264 N \u2264 105\u000a1 \u2264 Value of the array elements \u2264 108\u000a1 \u2264 Sum of N over all cases \u2264 2*105 1 \u2264 T \u2264 40000 1 T 40000 2 \u2264 N \u2264 105 2 N 105 5 1 \u2264 Value of the array elements \u2264 108 1 Value of the array elements 108 8 1 \u2264 Sum of N over all cases \u2264 2*105 1 Sum of N over all cases 2*105 5 Example Input:\u000a2\u000a3\u000a2 4 1\u000a4\u000a2 4 1 3\u000a\u000aOutput:\u000a6\u000a13 Input: Output: Explanation Example case 1.\u000aCovered portion is a right angled triangle with vertices (2,4), (2,1) and (4,1).\u000aArea = (1/2)*2*3 = 3. Example case 1.   Example case 2.\u000a\u000a\u000aA, B, C, D, E, and F denote the trees.\u000a\u000aThe above image denotes the situation.\u000a\u000aArea of the figure = 6.5\u000a\u000a2*(Area of Triangle ABC + Area of Triangle BFE + Area of Square EFCD) is the answer.\u000a\u000aArea of Triangle ABC = 1.5\u000a\u000aArea of Triangle BFE = 1\u000a\u000aArea of Square EFCD = 2*2 = 4 Example case 2.                           Author: devuy11\u000aEditorial: http://discuss.codechef.com/problems/KOL1509\u000aTags: acm15kol convex-hull devuy11\u000aDate Added: 18-12-2015\u000aTime Limit: 1 sec\u000aSource Limit: 50000 Bytes\u000aLanguages: C, CPP14, JAVA Author: devuy11\u000aEditorial: http://discuss.codechef.com/problems/KOL1509\u000aTags: acm15kol convex-hull devuy11\u000aDate Added: 18-12-2015\u000aTime Limit: 1 sec\u000aSource Limit: 50000 Bytes\u000aLanguages: C, CPP14, JAVA Author: devuy11 Author: devuy11 devuy11 Editorial: http://discuss.codechef.com/problems/KOL1509 Editorial: http://discuss.codechef.com/problems/KOL1509 http://discuss.codechef.com/problems/KOL1509 Tags: acm15kol convex-hull devuy11 Tags: acm15kol convex-hull devuy11 acm15kol convex-hull devuy11 Date Added: 18-12-2015 Date Added: 18-12-2015 Time Limit: 1 sec Time Limit: 1 sec Source Limit: 50000 Bytes Source Limit: 50000 Bytes Languages: C, CPP14, JAVA Languages: C, CPP14, JAVA SUBMIT  SUBMIT SUBMIT SUCCESSFUL SUBMISSIONS SUCCESSFUL SUBMISSIONS SUCCESSFUL SUBMISSIONS SUCCESSFUL SUBMISSIONS SUCCESSFUL SUBMISSIONS  
p9
sS'tags'
p10
V acm15kol convex-hull devuy11
p11
sS'url'
p12
Vhttps://www.codechef.com/problems/KOL1509
p13
sS'statement'
p14
(lp15
V All submissions for this problem are available.
p16
aVCodeChef has been very busy with his christmas preparations and he doesn't have time to look after Samosa Bhai and Jalebi Bai. To keep them busy, CodeChef has given them an array A of size N. He has asked them to plant trees at the points with Cartesian coordinates (A[ i ], A[ j ]), such that i < j.
p17
aVThere are a lot of giraffes nearby. To save the trees from the giraffes, they decide to build a fence around the trees. Moreover, they want to use the minimum length of fencing for this task. Find the value equal to twice the area covered by the fence using the minimum length of fencing.
p18
asS'input'
p19
(lp20
VInput
p21
aVThe first line contains T, the number of test cases to follow.
p22
aVThe first line of each test case contains an integer N, the size of the array.
p23
aVThe second line of the test case contains N space-separated integers.
p24
aVOutput
p25
aVFor each test case, output the value equal to two times the area, rounded to the nearest integer, surrounded by the fence when using the minimum length of net to surround all the trees.
p26
asS'constraints'
p27
(lp28
VConstraints
p29
aV1 \u2264 T \u2264 40000
p30
aV2 \u2264 N \u2264 105
p31
aV1 \u2264 Value of the array elements \u2264 108
p32
aV1 \u2264 Sum of N over all cases \u2264 2*105
p33
asS'id'
p34
c__builtin__
id
p35
sS'name'
p36
VKOL1509
p37
sb.