(iproblems
Problem
p0
(dp1
S'time_limit'
p2
(lp3
VTime Limit: 0.5 sec
p4
asS'source_limit'
p5
(lp6
VSource Limit: 50000 Bytes
p7
asS'description'
p8
V All submissions for this problem are available.\u000aRead problems statements in Mandarin Chinese and Russian\u000aEugene has a sequence of upper hemispheres and another of lower hemispheres. The first set consists of N upper hemispheres indexed 1 to N and the second has M lower hemispheres indexed 1 to M. The hemispheres in any sequence can have different radii.\u000aHe is now set out on building spheres using them. To build a sphere of radius R, he must take one upper half of the radius R and one lower half of the radius R. Also, he can put a sphere into a bigger one and create a sequence of nested concentric spheres. But he can't put two or more spheres directly into another one.\u000aExamples:\u000a\u000aIf there is a sequence of (D+1) nested spheres, we can call this sequence as a D-sequence.\u000a\u000aEugene has to find out how many different X-sequence are possible (1 <= X <= C). An X sequence is different from another if the index of any of the hemisphere used in one X-sequence is different from the other. Eugene doesn't know how to do it, so Chef agreed to help him. Of course, Chef is too busy now and he asks you to help him.\u000aInput\u000aThe first line contains a three integers: N denoting the number of upper sphere halves, M denoting the number of lower sphere halves and C.\u000aThe second line contains N space-separated integers U1, U2, ..., UN denoting the radii of upper hemispheres.\u000aThe third line contains M space-separated integers L1, L2, ..., LM denoting the radii of lower hemispheres.\u000aOutput\u000aOutput a single line containing C space-separated integers D1, D2, ..., DC, where Di is the number of ways there are to build i-sequence in modulo 109+7.\u000aConstraints\u000a1 \u2264 N \u2264 105\u000a1 \u2264 M \u2264 105\u000a1 \u2264 C \u2264 103\u000a1 \u2264 Ui \u2264 C\u000a1 \u2264 Li \u2264 C\u000aSubtasks\u000aSubtask 1: 1 \u2264 N, M, C \u2264 10 - 15 points\u000aSubtask 2: 1 \u2264 N, M, C \u2264 100 - 25 points\u000aSubtask 3: Original constraints - 60 points\u000aExample\u000aInput:\u000a3 4 3\u000a1 2 3\u000a1 1 3 2\u000a\u000aOutput:\u000a5 2 0\u000aExplanation\u000aWe can build spheres with such radii:\u000aR=1 and there are 2 ways to do it. (We can choose any of 2 lower hemispheres with R=1)\u000aR=2 and there is 1 way to do it.\u000aR=3 and there is 1 way to do it.\u000aWe can build these 1-sequences:\u000a1->2 and there are 2 ways to do it. ( sphere with radius 1 is inside sphere with radius 2, we can choose any of 2 ways of building sphere with radius 1)\u000a1->3 and there are 2 ways to do it.\u000a2->3 and there is 1 way to do it.\u000a2 + 2 + 1 = 5\u000aWe can build these 2-sequences:\u000a1->2->3 and there are 2 ways to do it.\u000aWe can't build 3-sequences, because we don't have 4 spheres of different radii.\u000aAuthor: aangairbender\u000aEditorial: http://discuss.codechef.com/problems/KSPHERES\u000aTags: aangairbender dp easy oct15\u000aDate Added: 29-07-2015\u000aTime Limit: 0.5 sec\u000aSource Limit: 50000 Bytes\u000aLanguages: ADA, ASM, BASH, BF, C, C99 strict, CAML, CLOJ, CLPS, CPP 4.3.2, CPP 4.9.2, CPP14, CS2, D, ERL, FORT, FS, GO, HASK, ICK, ICON, JAVA, JS, LISP clisp, LISP sbcl, LUA, NEM, NICE, NODEJS, PAS fpc, PAS gpc, PERL, PERL6, PHP, PIKE, PRLG, PYPY, PYTH, PYTH 3.4, RUBY, SCALA, SCM chicken, SCM guile, SCM qobi, ST, TCL, TEXT, WSPC\u000aSUBMIT All submissions for this problem are available.\u000aRead problems statements in Mandarin Chinese and Russian\u000aEugene has a sequence of upper hemispheres and another of lower hemispheres. The first set consists of N upper hemispheres indexed 1 to N and the second has M lower hemispheres indexed 1 to M. The hemispheres in any sequence can have different radii.\u000aHe is now set out on building spheres using them. To build a sphere of radius R, he must take one upper half of the radius R and one lower half of the radius R. Also, he can put a sphere into a bigger one and create a sequence of nested concentric spheres. But he can't put two or more spheres directly into another one.\u000aExamples:\u000a\u000aIf there is a sequence of (D+1) nested spheres, we can call this sequence as a D-sequence.\u000a\u000aEugene has to find out how many different X-sequence are possible (1 <= X <= C). An X sequence is different from another if the index of any of the hemisphere used in one X-sequence is different from the other. Eugene doesn't know how to do it, so Chef agreed to help him. Of course, Chef is too busy now and he asks you to help him.\u000aInput\u000aThe first line contains a three integers: N denoting the number of upper sphere halves, M denoting the number of lower sphere halves and C.\u000aThe second line contains N space-separated integers U1, U2, ..., UN denoting the radii of upper hemispheres.\u000aThe third line contains M space-separated integers L1, L2, ..., LM denoting the radii of lower hemispheres.\u000aOutput\u000aOutput a single line containing C space-separated integers D1, D2, ..., DC, where Di is the number of ways there are to build i-sequence in modulo 109+7.\u000aConstraints\u000a1 \u2264 N \u2264 105\u000a1 \u2264 M \u2264 105\u000a1 \u2264 C \u2264 103\u000a1 \u2264 Ui \u2264 C\u000a1 \u2264 Li \u2264 C\u000aSubtasks\u000aSubtask 1: 1 \u2264 N, M, C \u2264 10 - 15 points\u000aSubtask 2: 1 \u2264 N, M, C \u2264 100 - 25 points\u000aSubtask 3: Original constraints - 60 points\u000aExample\u000aInput:\u000a3 4 3\u000a1 2 3\u000a1 1 3 2\u000a\u000aOutput:\u000a5 2 0\u000aExplanation\u000aWe can build spheres with such radii:\u000aR=1 and there are 2 ways to do it. (We can choose any of 2 lower hemispheres with R=1)\u000aR=2 and there is 1 way to do it.\u000aR=3 and there is 1 way to do it.\u000aWe can build these 1-sequences:\u000a1->2 and there are 2 ways to do it. ( sphere with radius 1 is inside sphere with radius 2, we can choose any of 2 ways of building sphere with radius 1)\u000a1->3 and there are 2 ways to do it.\u000a2->3 and there is 1 way to do it.\u000a2 + 2 + 1 = 5\u000aWe can build these 2-sequences:\u000a1->2->3 and there are 2 ways to do it.\u000aWe can't build 3-sequences, because we don't have 4 spheres of different radii.\u000aAuthor: aangairbender\u000aEditorial: http://discuss.codechef.com/problems/KSPHERES\u000aTags: aangairbender dp easy oct15\u000aDate Added: 29-07-2015\u000aTime Limit: 0.5 sec\u000aSource Limit: 50000 Bytes\u000aLanguages: ADA, ASM, BASH, BF, C, C99 strict, CAML, CLOJ, CLPS, CPP 4.3.2, CPP 4.9.2, CPP14, CS2, D, ERL, FORT, FS, GO, HASK, ICK, ICON, JAVA, JS, LISP clisp, LISP sbcl, LUA, NEM, NICE, NODEJS, PAS fpc, PAS gpc, PERL, PERL6, PHP, PIKE, PRLG, PYPY, PYTH, PYTH 3.4, RUBY, SCALA, SCM chicken, SCM guile, SCM qobi, ST, TCL, TEXT, WSPC All submissions for this problem are available. Read problems statements in Mandarin Chinese and Russian Mandarin Chinese Russian Eugene has a sequence of upper hemispheres and another of lower hemispheres. The first set consists of N upper hemispheres indexed 1 to N and the second has M lower hemispheres indexed 1 to M. The hemispheres in any sequence can have different radii. N N M M He is now set out on building spheres using them. To build a sphere of radius R, he must take one upper half of the radius R and one lower half of the radius R. Also, he can put a sphere into a bigger one and create a sequence of nested concentric spheres. But he can't put two or more spheres directly into another one. R R R  Examples:      If there is a sequence of (D+1) nested spheres, we can call this sequence as a D-sequence. D+1 D     Eugene has to find out how many different X-sequence are possible (1 <= X <= C). An X sequence is different from another if the index of any of the hemisphere used in one X-sequence is different from the other. Eugene doesn't know how to do it, so Chef agreed to help him. Of course, Chef is too busy now and he asks you to help him. X 1 X C X X Input The first line contains a three integers: N denoting the number of upper sphere halves, M denoting the number of lower sphere halves and C. N M C The second line contains N space-separated integers U1, U2, ..., UN denoting the radii of upper hemispheres. N U1 1 U2 2 UN N The third line contains M space-separated integers L1, L2, ..., LM denoting the radii of lower hemispheres. M L1 1 L2 2 LM M Output Output a single line containing C space-separated integers D1, D2, ..., DC, where Di is the number of ways there are to build i-sequence in modulo 109+7. C D1 1 D2 2 DC C Di i i 109+7 9 Constraints  1 \u2264 N \u2264 105\u000a1 \u2264 M \u2264 105\u000a1 \u2264 C \u2264 103\u000a1 \u2264 Ui \u2264 C\u000a1 \u2264 Li \u2264 C 1 \u2264 N \u2264 105 1 N 105 5 1 \u2264 M \u2264 105 1 M 105 5 1 \u2264 C \u2264 103 1 C 103 3 1 \u2264 Ui \u2264 C 1 Ui i C 1 \u2264 Li \u2264 C 1 Li i C  Subtasks  Subtask 1: 1 \u2264 N, M, C \u2264 10 - 15 points\u000aSubtask 2: 1 \u2264 N, M, C \u2264 100 - 25 points\u000aSubtask 3: Original constraints - 60 points Subtask 1: 1 \u2264 N, M, C \u2264 10 - 15 points Subtask 1: N, M, C 10 15 points Subtask 2: 1 \u2264 N, M, C \u2264 100 - 25 points Subtask 2: N, M, C 100 25 points Subtask 3: Original constraints - 60 points Subtask 3: Original constraints 60 points  Example Input:\u000a3 4 3\u000a1 2 3\u000a1 1 3 2\u000a\u000aOutput:\u000a5 2 0 Input: 3 4 3\u000a1 2 3\u000a1 1 3 2 Output: 5 2 0 Explanation  We can build spheres with such radii: R=1 and there are 2 ways to do it. (We can choose any of 2 lower hemispheres with R=1) R R R=2 and there is 1 way to do it. R R=3 and there is 1 way to do it. R We can build these 1-sequences: 1 1->2 and there are 2 ways to do it. ( sphere with radius 1 is inside sphere with radius 2, we can choose any of 2 ways of building sphere with radius 1) 1->3 and there are 2 ways to do it. 2->3 and there is 1 way to do it. 2 + 2 + 1 = 5 2 + 2 + 1 = 5 We can build these 2-sequences: 2 1->2->3 and there are 2 ways to do it. We can't build 3-sequences, because we don't have 4 spheres of different radii. 3  Author: aangairbender\u000aEditorial: http://discuss.codechef.com/problems/KSPHERES\u000aTags: aangairbender dp easy oct15\u000aDate Added: 29-07-2015\u000aTime Limit: 0.5 sec\u000aSource Limit: 50000 Bytes\u000aLanguages: ADA, ASM, BASH, BF, C, C99 strict, CAML, CLOJ, CLPS, CPP 4.3.2, CPP 4.9.2, CPP14, CS2, D, ERL, FORT, FS, GO, HASK, ICK, ICON, JAVA, JS, LISP clisp, LISP sbcl, LUA, NEM, NICE, NODEJS, PAS fpc, PAS gpc, PERL, PERL6, PHP, PIKE, PRLG, PYPY, PYTH, PYTH 3.4, RUBY, SCALA, SCM chicken, SCM guile, SCM qobi, ST, TCL, TEXT, WSPC Author: aangairbender\u000aEditorial: http://discuss.codechef.com/problems/KSPHERES\u000aTags: aangairbender dp easy oct15\u000aDate Added: 29-07-2015\u000aTime Limit: 0.5 sec\u000aSource Limit: 50000 Bytes\u000aLanguages: ADA, ASM, BASH, BF, C, C99 strict, CAML, CLOJ, CLPS, CPP 4.3.2, CPP 4.9.2, CPP14, CS2, D, ERL, FORT, FS, GO, HASK, ICK, ICON, JAVA, JS, LISP clisp, LISP sbcl, LUA, NEM, NICE, NODEJS, PAS fpc, PAS gpc, PERL, PERL6, PHP, PIKE, PRLG, PYPY, PYTH, PYTH 3.4, RUBY, SCALA, SCM chicken, SCM guile, SCM qobi, ST, TCL, TEXT, WSPC Author: aangairbender Author: aangairbender aangairbender Editorial: http://discuss.codechef.com/problems/KSPHERES Editorial: http://discuss.codechef.com/problems/KSPHERES http://discuss.codechef.com/problems/KSPHERES Tags: aangairbender dp easy oct15 Tags: aangairbender dp easy oct15 aangairbender dp easy oct15 Date Added: 29-07-2015 Date Added: 29-07-2015 Time Limit: 0.5 sec Time Limit: 0.5 sec Source Limit: 50000 Bytes Source Limit: 50000 Bytes Languages: ADA, ASM, BASH, BF, C, C99 strict, CAML, CLOJ, CLPS, CPP 4.3.2, CPP 4.9.2, CPP14, CS2, D, ERL, FORT, FS, GO, HASK, ICK, ICON, JAVA, JS, LISP clisp, LISP sbcl, LUA, NEM, NICE, NODEJS, PAS fpc, PAS gpc, PERL, PERL6, PHP, PIKE, PRLG, PYPY, PYTH, PYTH 3.4, RUBY, SCALA, SCM chicken, SCM guile, SCM qobi, ST, TCL, TEXT, WSPC Languages: ADA, ASM, BASH, BF, C, C99 strict, CAML, CLOJ, CLPS, CPP 4.3.2, CPP 4.9.2, CPP14, CS2, D, ERL, FORT, FS, GO, HASK, ICK, ICON, JAVA, JS, LISP clisp, LISP sbcl, LUA, NEM, NICE, NODEJS, PAS fpc, PAS gpc, PERL, PERL6, PHP, PIKE, PRLG, PYPY, PYTH, PYTH 3.4, RUBY, SCALA, SCM chicken, SCM guile, SCM qobi, ST, TCL, TEXT, WSPC SUBMIT  SUBMIT SUBMIT SUCCESSFUL SUBMISSIONS SUCCESSFUL SUBMISSIONS SUCCESSFUL SUBMISSIONS SUCCESSFUL SUBMISSIONS SUCCESSFUL SUBMISSIONS  
p9
sS'tags'
p10
V aangairbender dp easy oct15
p11
sS'url'
p12
Vhttps://www.codechef.com/problems/KSPHERES
p13
sS'statement'
p14
(lp15
V All submissions for this problem are available.
p16
aVRead problems statements in Mandarin Chinese and Russian
p17
aVEugene has a sequence of upper hemispheres and another of lower hemispheres. The first set consists of N upper hemispheres indexed 1 to N and the second has M lower hemispheres indexed 1 to M. The hemispheres in any sequence can have different radii.
p18
aVHe is now set out on building spheres using them. To build a sphere of radius R, he must take one upper half of the radius R and one lower half of the radius R. Also, he can put a sphere into a bigger one and create a sequence of nested concentric spheres. But he can't put two or more spheres directly into another one.
p19
aVExamples:
p20
aV
p21
aVIf there is a sequence of (D+1) nested spheres, we can call this sequence as a D-sequence.
p22
ag21
aVEugene has to find out how many different X-sequence are possible (1 <= X <= C). An X sequence is different from another if the index of any of the hemisphere used in one X-sequence is different from the other. Eugene doesn't know how to do it, so Chef agreed to help him. Of course, Chef is too busy now and he asks you to help him.
p23
asS'input'
p24
(lp25
VInput
p26
aVThe first line contains a three integers: N denoting the number of upper sphere halves, M denoting the number of lower sphere halves and C.
p27
aVThe second line contains N space-separated integers U1, U2, ..., UN denoting the radii of upper hemispheres.
p28
aVThe third line contains M space-separated integers L1, L2, ..., LM denoting the radii of lower hemispheres.
p29
aVOutput
p30
aVOutput a single line containing C space-separated integers D1, D2, ..., DC, where Di is the number of ways there are to build i-sequence in modulo 109+7.
p31
asS'constraints'
p32
(lp33
VConstraints
p34
aV1 \u2264 N \u2264 105
p35
aV1 \u2264 M \u2264 105
p36
aV1 \u2264 C \u2264 103
p37
aV1 \u2264 Ui \u2264 C
p38
aV1 \u2264 Li \u2264 C
p39
aVSubtasks
p40
aVSubtask 1: 1 \u2264 N, M, C \u2264 10 - 15 points
p41
aVSubtask 2: 1 \u2264 N, M, C \u2264 100 - 25 points
p42
aVSubtask 3: Original constraints - 60 points
p43
asS'id'
p44
c__builtin__
id
p45
sS'name'
p46
VKSPHERES
p47
sb.