(iproblems
Problem
p0
(dp1
S'time_limit'
p2
(lp3
VTime Limit: 1 sec
p4
asS'source_limit'
p5
(lp6
VSource Limit: 50000 Bytes
p7
asS'description'
p8
V All submissions for this problem are available.\u000aLittle Elephant from the Zoo of Lviv hates exams. Since Little Elephant lives in Ukraine, he is going to take exams called 'ZNO'. Help him.\u000aThere will be n tickets on the table. Each ticket has a number written on it. The i-th ticket can be numbered Ai with probability Pi percent and with probability 100-Pi percent it can be numbered Bi. It can not have any other number. A numbering of tickets on the table is correct if and only if all tickets have distinct ticket numbers.\u000aHelp Little Elephant find the probability that the numbering will be correct.\u000aInput\u000aThe first line of the input contains a single integer T - the number of test cases. T test cases follow. The first line of each test case contains a single integer n - the number of tickets on the table. n lines will follow. Each of these lines contains three integers: Pi, Ai and Bi.\u000aOutput\u000aOutput T lines, each containing a single real number - answer for the corresponding test case. Rounding errors less than 10-6 will be ignored.\u000aConstraints\u000a1 <= T <= 10\u000a1 <= n <= 50\u000a1 <= Ai, Bi <= 16\u000a0 <= Pi <= 100\u000aExample\u000aInput:\u000a2\u000a2\u000a50 1 2\u000a50 2 1\u000a3\u000a100 1 3\u000a47 2 1\u000a74 3 2\u000a\u000aOutput:\u000a0.500000000\u000a0.347800000\u000aAuthor: witua\u000aTester: xcwgf666\u000aEditorial: http://discuss.codechef.com/problems/LEEXAMS\u000aTags: brute-force easy probability sept13 witua\u000aDate Added: 10-04-2012\u000aTime Limit: 1 sec\u000aSource Limit: 50000 Bytes\u000aLanguages: ADA, ASM, BASH, BF, C, C99 strict, CAML, CLOJ, CLPS, CPP 4.3.2, CPP 4.9.2, CPP14, CS2, D, ERL, FORT, FS, GO, HASK, ICK, ICON, JAVA, JS, LISP clisp, LISP sbcl, LUA, NEM, NICE, NODEJS, PAS fpc, PAS gpc, PERL, PERL6, PHP, PIKE, PRLG, PYTH, PYTH 3.4, RUBY, SCALA, SCM guile, SCM qobi, ST, TCL, TEXT, WSPC\u000aSUBMIT All submissions for this problem are available.\u000aLittle Elephant from the Zoo of Lviv hates exams. Since Little Elephant lives in Ukraine, he is going to take exams called 'ZNO'. Help him.\u000aThere will be n tickets on the table. Each ticket has a number written on it. The i-th ticket can be numbered Ai with probability Pi percent and with probability 100-Pi percent it can be numbered Bi. It can not have any other number. A numbering of tickets on the table is correct if and only if all tickets have distinct ticket numbers.\u000aHelp Little Elephant find the probability that the numbering will be correct.\u000aInput\u000aThe first line of the input contains a single integer T - the number of test cases. T test cases follow. The first line of each test case contains a single integer n - the number of tickets on the table. n lines will follow. Each of these lines contains three integers: Pi, Ai and Bi.\u000aOutput\u000aOutput T lines, each containing a single real number - answer for the corresponding test case. Rounding errors less than 10-6 will be ignored.\u000aConstraints\u000a1 <= T <= 10\u000a1 <= n <= 50\u000a1 <= Ai, Bi <= 16\u000a0 <= Pi <= 100\u000aExample\u000aInput:\u000a2\u000a2\u000a50 1 2\u000a50 2 1\u000a3\u000a100 1 3\u000a47 2 1\u000a74 3 2\u000a\u000aOutput:\u000a0.500000000\u000a0.347800000\u000aAuthor: witua\u000aTester: xcwgf666\u000aEditorial: http://discuss.codechef.com/problems/LEEXAMS\u000aTags: brute-force easy probability sept13 witua\u000aDate Added: 10-04-2012\u000aTime Limit: 1 sec\u000aSource Limit: 50000 Bytes\u000aLanguages: ADA, ASM, BASH, BF, C, C99 strict, CAML, CLOJ, CLPS, CPP 4.3.2, CPP 4.9.2, CPP14, CS2, D, ERL, FORT, FS, GO, HASK, ICK, ICON, JAVA, JS, LISP clisp, LISP sbcl, LUA, NEM, NICE, NODEJS, PAS fpc, PAS gpc, PERL, PERL6, PHP, PIKE, PRLG, PYTH, PYTH 3.4, RUBY, SCALA, SCM guile, SCM qobi, ST, TCL, TEXT, WSPC All submissions for this problem are available. Little Elephant from the Zoo of Lviv hates exams. Since Little Elephant lives in Ukraine, he is going to take exams called 'ZNO'. Help him. There will be n tickets on the table. Each ticket has a number written on it. The i-th ticket can be numbered Ai with probability Pi percent and with probability 100-Pi percent it can be numbered Bi. It can not have any other number. A numbering of tickets on the table is correct if and only if all tickets have distinct ticket numbers. n i Ai i Pi i 100-Pi i Bi i Help Little Elephant find the probability that the numbering will be correct. Input The first line of the input contains a single integer T - the number of test cases. T test cases follow. The first line of each test case contains a single integer n - the number of tickets on the table. n lines will follow. Each of these lines contains three integers: Pi, Ai and Bi. T T n n Pi i Ai i Bi i Output Output T lines, each containing a single real number - answer for the corresponding test case. Rounding errors less than 10-6 will be ignored. T 10-6 -6 Constraints  1 <= T <= 10 T 1 <= n <= 50 n 1 <= Ai, Bi <= 16 Ai, Bi i i 0 <= Pi <= 100 Pi i Example Input:\u000a2\u000a2\u000a50 1 2\u000a50 2 1\u000a3\u000a100 1 3\u000a47 2 1\u000a74 3 2\u000a\u000aOutput:\u000a0.500000000\u000a0.347800000 Input: Output:   Author: witua\u000aTester: xcwgf666\u000aEditorial: http://discuss.codechef.com/problems/LEEXAMS\u000aTags: brute-force easy probability sept13 witua\u000aDate Added: 10-04-2012\u000aTime Limit: 1 sec\u000aSource Limit: 50000 Bytes\u000aLanguages: ADA, ASM, BASH, BF, C, C99 strict, CAML, CLOJ, CLPS, CPP 4.3.2, CPP 4.9.2, CPP14, CS2, D, ERL, FORT, FS, GO, HASK, ICK, ICON, JAVA, JS, LISP clisp, LISP sbcl, LUA, NEM, NICE, NODEJS, PAS fpc, PAS gpc, PERL, PERL6, PHP, PIKE, PRLG, PYTH, PYTH 3.4, RUBY, SCALA, SCM guile, SCM qobi, ST, TCL, TEXT, WSPC Author: witua\u000aTester: xcwgf666\u000aEditorial: http://discuss.codechef.com/problems/LEEXAMS\u000aTags: brute-force easy probability sept13 witua\u000aDate Added: 10-04-2012\u000aTime Limit: 1 sec\u000aSource Limit: 50000 Bytes\u000aLanguages: ADA, ASM, BASH, BF, C, C99 strict, CAML, CLOJ, CLPS, CPP 4.3.2, CPP 4.9.2, CPP14, CS2, D, ERL, FORT, FS, GO, HASK, ICK, ICON, JAVA, JS, LISP clisp, LISP sbcl, LUA, NEM, NICE, NODEJS, PAS fpc, PAS gpc, PERL, PERL6, PHP, PIKE, PRLG, PYTH, PYTH 3.4, RUBY, SCALA, SCM guile, SCM qobi, ST, TCL, TEXT, WSPC Author: witua Author: witua witua Tester: xcwgf666 Tester: xcwgf666 xcwgf666 Editorial: http://discuss.codechef.com/problems/LEEXAMS Editorial: http://discuss.codechef.com/problems/LEEXAMS http://discuss.codechef.com/problems/LEEXAMS Tags: brute-force easy probability sept13 witua Tags: brute-force easy probability sept13 witua brute-force easy probability sept13 witua Date Added: 10-04-2012 Date Added: 10-04-2012 Time Limit: 1 sec Time Limit: 1 sec Source Limit: 50000 Bytes Source Limit: 50000 Bytes Languages: ADA, ASM, BASH, BF, C, C99 strict, CAML, CLOJ, CLPS, CPP 4.3.2, CPP 4.9.2, CPP14, CS2, D, ERL, FORT, FS, GO, HASK, ICK, ICON, JAVA, JS, LISP clisp, LISP sbcl, LUA, NEM, NICE, NODEJS, PAS fpc, PAS gpc, PERL, PERL6, PHP, PIKE, PRLG, PYTH, PYTH 3.4, RUBY, SCALA, SCM guile, SCM qobi, ST, TCL, TEXT, WSPC Languages: ADA, ASM, BASH, BF, C, C99 strict, CAML, CLOJ, CLPS, CPP 4.3.2, CPP 4.9.2, CPP14, CS2, D, ERL, FORT, FS, GO, HASK, ICK, ICON, JAVA, JS, LISP clisp, LISP sbcl, LUA, NEM, NICE, NODEJS, PAS fpc, PAS gpc, PERL, PERL6, PHP, PIKE, PRLG, PYTH, PYTH 3.4, RUBY, SCALA, SCM guile, SCM qobi, ST, TCL, TEXT, WSPC SUBMIT  SUBMIT SUBMIT SUCCESSFUL SUBMISSIONS SUCCESSFUL SUBMISSIONS SUCCESSFUL SUBMISSIONS SUCCESSFUL SUBMISSIONS SUCCESSFUL SUBMISSIONS  
p9
sS'tags'
p10
V brute-force easy probability sept13 witua
p11
sS'url'
p12
Vhttps://www.codechef.com/problems/LEEXAMS
p13
sS'statement'
p14
(lp15
V All submissions for this problem are available.
p16
aVLittle Elephant from the Zoo of Lviv hates exams. Since Little Elephant lives in Ukraine, he is going to take exams called 'ZNO'. Help him.
p17
aVThere will be n tickets on the table. Each ticket has a number written on it. The i-th ticket can be numbered Ai with probability Pi percent and with probability 100-Pi percent it can be numbered Bi. It can not have any other number. A numbering of tickets on the table is correct if and only if all tickets have distinct ticket numbers.
p18
aVHelp Little Elephant find the probability that the numbering will be correct.
p19
asS'input'
p20
(lp21
VInput
p22
aVThe first line of the input contains a single integer T - the number of test cases. T test cases follow. The first line of each test case contains a single integer n - the number of tickets on the table. n lines will follow. Each of these lines contains three integers: Pi, Ai and Bi.
p23
aVOutput
p24
aVOutput T lines, each containing a single real number - answer for the corresponding test case. Rounding errors less than 10-6 will be ignored.
p25
asS'constraints'
p26
(lp27
VConstraints
p28
aV1 <= T <= 10
p29
aV1 <= n <= 50
p30
aV1 <= Ai, Bi <= 16
p31
aV0 <= Pi <= 100
p32
asS'id'
p33
c__builtin__
id
p34
sS'name'
p35
VLEEXAMS
p36
sb.