(iproblems
Problem
p0
(dp1
S'time_limit'
p2
(lp3
VTime Limit: 1 sec
p4
asS'source_limit'
p5
(lp6
VSource Limit: 50000 Bytes
p7
asS'description'
p8
V All submissions for this problem are available.\u000aRead problems statements in Mandarin Chinese, Russian and Vietnamese as well.\u000aChef likes strings a lot but he likes palindromic strings even more. Today he found an old string s in his garage. The string is so old that some of its characters have faded and are unidentifiable now. Faded characters in the string are represented by '.' whereas other characters are lower case Latin alphabets i.e ['a'-'z'].\u000aChef being the palindrome lover decided to construct the lexicographically smallest palindrome by filling each of the faded character ('.') with a lower case Latin alphabet. Can you please help him completing the task?\u000aInput\u000aFirst line of input contains a single integer T denoting the number of test cases. T test cases follow.\u000aFirst and the only line of each case contains string s denoting the old string that chef has found in his garage.\u000aOutput\u000aFor each test case, print lexicographically smallest palindrome after filling each faded character - if it possible to construct one. Print -1 otherwise.\u000aConstraints\u000a1 \u2264 T \u2264 50\u000a1 \u2264 |s| \u2264 12345\u000aString s consists of ['a'-'z'] and '.' only.\u000aSubtasks\u000aSubtask #1 (47 points)\u000a1 \u2264 T \u2264 50, 1 \u2264 |S| \u2264 123\u000a\u000aSubtask #2 (53 points)\u000a1 \u2264 T \u2264 50, 1 \u2264 |S| \u2264 12345\u000aExample\u000aInput\u000a3\u000aa.ba\u000acb.bc\u000aa.b\u000aOutput\u000aabba\u000acbabc\u000a-1\u000aExplanation\u000aIn example 1, you can create a palindrome by filling the faded character by 'b'.\u000aIn example 2, you can replace the faded character by any character from 'a' to 'z'. We fill it by 'a', as it will generate the lexicographically smallest palindrome.\u000aIn example 3, it is not possible to make the string s a palindrome.\u000aAuthor: ma5termind\u000aTester: dpraveen\u000aEditorial: http://discuss.codechef.com/problems/LEXOPAL\u000aTags: ad-hoc easy ma5termind sept16 string\u000aDate Added: 4-02-2016\u000aTime Limit: 1 sec\u000aSource Limit: 50000 Bytes\u000aLanguages: ADA, ASM, BASH, BF, C, C99 strict, CAML, CLOJ, CLPS, CPP 4.3.2, CPP 4.9.2, CPP14, CS2, D, ERL, FORT, FS, GO, HASK, ICK, ICON, JAVA, JS, LISP clisp, LISP sbcl, LUA, NEM, NICE, NODEJS, PAS fpc, PAS gpc, PERL, PERL6, PHP, PIKE, PRLG, PYPY, PYTH, PYTH 3.4, RUBY, SCALA, SCM chicken, SCM guile, SCM qobi, ST, TCL, TEXT, WSPC\u000aSUBMIT All submissions for this problem are available.\u000aRead problems statements in Mandarin Chinese, Russian and Vietnamese as well.\u000aChef likes strings a lot but he likes palindromic strings even more. Today he found an old string s in his garage. The string is so old that some of its characters have faded and are unidentifiable now. Faded characters in the string are represented by '.' whereas other characters are lower case Latin alphabets i.e ['a'-'z'].\u000aChef being the palindrome lover decided to construct the lexicographically smallest palindrome by filling each of the faded character ('.') with a lower case Latin alphabet. Can you please help him completing the task?\u000aInput\u000aFirst line of input contains a single integer T denoting the number of test cases. T test cases follow.\u000aFirst and the only line of each case contains string s denoting the old string that chef has found in his garage.\u000aOutput\u000aFor each test case, print lexicographically smallest palindrome after filling each faded character - if it possible to construct one. Print -1 otherwise.\u000aConstraints\u000a1 \u2264 T \u2264 50\u000a1 \u2264 |s| \u2264 12345\u000aString s consists of ['a'-'z'] and '.' only.\u000aSubtasks\u000aSubtask #1 (47 points)\u000a1 \u2264 T \u2264 50, 1 \u2264 |S| \u2264 123\u000a\u000aSubtask #2 (53 points)\u000a1 \u2264 T \u2264 50, 1 \u2264 |S| \u2264 12345\u000aExample\u000aInput\u000a3\u000aa.ba\u000acb.bc\u000aa.b\u000aOutput\u000aabba\u000acbabc\u000a-1\u000aExplanation\u000aIn example 1, you can create a palindrome by filling the faded character by 'b'.\u000aIn example 2, you can replace the faded character by any character from 'a' to 'z'. We fill it by 'a', as it will generate the lexicographically smallest palindrome.\u000aIn example 3, it is not possible to make the string s a palindrome.\u000aAuthor: ma5termind\u000aTester: dpraveen\u000aEditorial: http://discuss.codechef.com/problems/LEXOPAL\u000aTags: ad-hoc easy ma5termind sept16 string\u000aDate Added: 4-02-2016\u000aTime Limit: 1 sec\u000aSource Limit: 50000 Bytes\u000aLanguages: ADA, ASM, BASH, BF, C, C99 strict, CAML, CLOJ, CLPS, CPP 4.3.2, CPP 4.9.2, CPP14, CS2, D, ERL, FORT, FS, GO, HASK, ICK, ICON, JAVA, JS, LISP clisp, LISP sbcl, LUA, NEM, NICE, NODEJS, PAS fpc, PAS gpc, PERL, PERL6, PHP, PIKE, PRLG, PYPY, PYTH, PYTH 3.4, RUBY, SCALA, SCM chicken, SCM guile, SCM qobi, ST, TCL, TEXT, WSPC All submissions for this problem are available. Read problems statements in Mandarin Chinese, Russian and Vietnamese as well. Mandarin Chinese Russian Vietnamese Chef likes strings a lot but he likes palindromic strings even more. Today he found an old string s in his garage. The string is so old that some of its characters have faded and are unidentifiable now. Faded characters in the string are represented by '.' whereas other characters are lower case Latin alphabets i.e ['a'-'z']. s  Chef being the palindrome lover decided to construct the lexicographically smallest palindrome by filling each of the faded character ('.') with a lower case Latin alphabet. Can you please help him completing the task? Input First line of input contains a single integer T denoting the number of test cases. T test cases follow. T T First and the only line of each case contains string s denoting the old string that chef has found in his garage. s Output For each test case, print lexicographically smallest palindrome after filling each faded character - if it possible to construct one. Print -1 otherwise. Constraints 1 \u2264 T \u2264 50\u000a1 \u2264 |s| \u2264 12345\u000aString s consists of ['a'-'z'] and '.' only. 1 \u2264 T \u2264 50 1 \u2264 T \u2264 50 1 \u2264 |s| \u2264 12345 1 \u2264 |s| \u2264 12345 String s consists of ['a'-'z'] and '.' only. s Subtasks Subtask #1 (47 points) 1 \u2264 T \u2264 50, 1 \u2264 |S| \u2264 123 1 \u2264 T \u2264 50, 1 \u2264 |S| \u2264 123 1 \u2264 T \u2264 50, 1 \u2264 |S| \u2264 123  Subtask #2 (53 points) 1 \u2264 T \u2264 50, 1 \u2264 |S| \u2264 12345 1 \u2264 T \u2264 50, 1 \u2264 |S| \u2264 12345 1 \u2264 T \u2264 50, 1 \u2264 |S| \u2264 12345 Example Input 3\u000aa.ba\u000acb.bc\u000aa.b Output abba\u000acbabc\u000a-1 Explanation In example 1, you can create a palindrome by filling the faded character by 'b'. In example 1 In example 2, you can replace the faded character by any character from 'a' to 'z'. We fill it by 'a', as it will generate the lexicographically smallest palindrome. In example 2 In example 3, it is not possible to make the string s a palindrome. In example 3 s  Author: ma5termind\u000aTester: dpraveen\u000aEditorial: http://discuss.codechef.com/problems/LEXOPAL\u000aTags: ad-hoc easy ma5termind sept16 string\u000aDate Added: 4-02-2016\u000aTime Limit: 1 sec\u000aSource Limit: 50000 Bytes\u000aLanguages: ADA, ASM, BASH, BF, C, C99 strict, CAML, CLOJ, CLPS, CPP 4.3.2, CPP 4.9.2, CPP14, CS2, D, ERL, FORT, FS, GO, HASK, ICK, ICON, JAVA, JS, LISP clisp, LISP sbcl, LUA, NEM, NICE, NODEJS, PAS fpc, PAS gpc, PERL, PERL6, PHP, PIKE, PRLG, PYPY, PYTH, PYTH 3.4, RUBY, SCALA, SCM chicken, SCM guile, SCM qobi, ST, TCL, TEXT, WSPC Author: ma5termind\u000aTester: dpraveen\u000aEditorial: http://discuss.codechef.com/problems/LEXOPAL\u000aTags: ad-hoc easy ma5termind sept16 string\u000aDate Added: 4-02-2016\u000aTime Limit: 1 sec\u000aSource Limit: 50000 Bytes\u000aLanguages: ADA, ASM, BASH, BF, C, C99 strict, CAML, CLOJ, CLPS, CPP 4.3.2, CPP 4.9.2, CPP14, CS2, D, ERL, FORT, FS, GO, HASK, ICK, ICON, JAVA, JS, LISP clisp, LISP sbcl, LUA, NEM, NICE, NODEJS, PAS fpc, PAS gpc, PERL, PERL6, PHP, PIKE, PRLG, PYPY, PYTH, PYTH 3.4, RUBY, SCALA, SCM chicken, SCM guile, SCM qobi, ST, TCL, TEXT, WSPC Author: ma5termind Author: ma5termind ma5termind Tester: dpraveen Tester: dpraveen dpraveen Editorial: http://discuss.codechef.com/problems/LEXOPAL Editorial: http://discuss.codechef.com/problems/LEXOPAL http://discuss.codechef.com/problems/LEXOPAL Tags: ad-hoc easy ma5termind sept16 string Tags: ad-hoc easy ma5termind sept16 string ad-hoc easy ma5termind sept16 string Date Added: 4-02-2016 Date Added: 4-02-2016 Time Limit: 1 sec Time Limit: 1 sec Source Limit: 50000 Bytes Source Limit: 50000 Bytes Languages: ADA, ASM, BASH, BF, C, C99 strict, CAML, CLOJ, CLPS, CPP 4.3.2, CPP 4.9.2, CPP14, CS2, D, ERL, FORT, FS, GO, HASK, ICK, ICON, JAVA, JS, LISP clisp, LISP sbcl, LUA, NEM, NICE, NODEJS, PAS fpc, PAS gpc, PERL, PERL6, PHP, PIKE, PRLG, PYPY, PYTH, PYTH 3.4, RUBY, SCALA, SCM chicken, SCM guile, SCM qobi, ST, TCL, TEXT, WSPC Languages: ADA, ASM, BASH, BF, C, C99 strict, CAML, CLOJ, CLPS, CPP 4.3.2, CPP 4.9.2, CPP14, CS2, D, ERL, FORT, FS, GO, HASK, ICK, ICON, JAVA, JS, LISP clisp, LISP sbcl, LUA, NEM, NICE, NODEJS, PAS fpc, PAS gpc, PERL, PERL6, PHP, PIKE, PRLG, PYPY, PYTH, PYTH 3.4, RUBY, SCALA, SCM chicken, SCM guile, SCM qobi, ST, TCL, TEXT, WSPC SUBMIT  SUBMIT SUBMIT SUCCESSFUL SUBMISSIONS SUCCESSFUL SUBMISSIONS SUCCESSFUL SUBMISSIONS SUCCESSFUL SUBMISSIONS SUCCESSFUL SUBMISSIONS  
p9
sS'tags'
p10
V ad-hoc easy ma5termind sept16 string
p11
sS'url'
p12
Vhttps://www.codechef.com/problems/LEXOPAL
p13
sS'statement'
p14
(lp15
VAll submissions for this problem are available.
p16
aVRead problems statements in Mandarin Chinese, Russian and Vietnamese as well.
p17
aVChef likes strings a lot but he likes palindromic strings even more. Today he found an old string s in his garage. The string is so old that some of its characters have faded and are unidentifiable now. Faded characters in the string are represented by '.' whereas other characters are lower case Latin alphabets i.e ['a'-'z'].
p18
aVChef being the palindrome lover decided to construct the lexicographically smallest palindrome by filling each of the faded character ('.') with a lower case Latin alphabet. Can you please help him completing the task?
p19
asS'input'
p20
(lp21
VInput
p22
aVFirst line of input contains a single integer T denoting the number of test cases. T test cases follow.
p23
aVFirst and the only line of each case contains string s denoting the old string that chef has found in his garage.
p24
aVOutput
p25
aVFor each test case, print lexicographically smallest palindrome after filling each faded character - if it possible to construct one. Print -1 otherwise.
p26
asS'constraints'
p27
(lp28
VConstraints
p29
aV1 \u2264 T \u2264 50
p30
aV1 \u2264 |s| \u2264 12345
p31
aVString s consists of ['a'-'z'] and '.' only.
p32
aVSubtasks
p33
aVSubtask #1 (47 points)
p34
aV1 \u2264 T \u2264 50, 1 \u2264 |S| \u2264 123
p35
aV
p36
aVSubtask #2 (53 points)
p37
aV1 \u2264 T \u2264 50, 1 \u2264 |S| \u2264 12345
p38
asS'id'
p39
c__builtin__
id
p40
sS'name'
p41
VLEXOPAL
p42
sb.