(iproblems
Problem
p0
(dp1
S'time_limit'
p2
(lp3
VTime Limit: 1 sec
p4
asS'source_limit'
p5
(lp6
VSource Limit: 50000 Bytes
p7
asS'description'
p8
V All submissions for this problem are available.\u000aRead problems statements in Mandarin Chinese , Russian and Vietnamese as well.\u000aRead problems statements in Mandarin Chinese , Russian and Vietnamese\u000aThere is a N*N square matrix. You have been given N specifications, one per row of the matrix. The ith specifications is represented by a pair of integers L[i] and R[i], denoting that all element belonging to columns between L[i] and R[i] (both inclusive) in row i are 1, while the rest of the elements of the ith row are 0.\u000aNow you will be given an integer Q, followed by Q operations: Each query is described by two integers x and y, which asks what will be the parity of the sum of the matrix if the xth row and the yth column are removed from the matrix.\u000aInput\u000aFirst line of the input contains an integer N, followed by N lines: each containing a pair of integers. ith pair of integers denotes the value of L[i] and R[i].\u000aThe next line contains the value of Q, and the following Q lines contain the queries.\u000aOutput\u000aQ lines, each containing a single character "E" or "O" (no quotes needed), indicating whether the sum is even or odd.\u000aConstraints\u000aSubtask #1: 20 points\u000a1 \u2264 N,Q \u2264 1000, 1 \u2264 L[i] \u2264 R[i] \u2264 N,1 \u2264 x,y \u2264 N\u000aSubtask #2: 80 points\u000a1 \u2264 N,Q \u2264 105, 1 \u2264 L[i] \u2264 R[i] \u2264 N, 1 \u2264 x,y \u2264 N\u000aExample\u000aInput:\u000a3\u000a1 3\u000a2 2\u000a1 3\u000a2\u000a2 2\u000a3 2\u000a\u000aOutput:\u000aE\u000aE\u000aExplanation\u000aThe given array is:\u000a1 1 1\u000a0 1 0\u000a1 1 1\u000aIt's easy to see that the sum is even in both the queries.\u000aAuthor: amitpandeykgp\u000aTester: pushkarmishra\u000aEditorial: http://discuss.codechef.com/problems/QMAXTRIX\u000aTags: amitpandeykgp implementation ltime30 precomputation\u000aDate Added: 3-11-2015\u000aTime Limit: 1 sec\u000aSource Limit: 50000 Bytes\u000aLanguages: ADA, ASM, BASH, BF, C, C99 strict, CAML, CLOJ, CLPS, CPP 4.3.2, CPP 4.9.2, CPP14, CS2, D, ERL, FORT, FS, GO, HASK, ICK, ICON, JAVA, JS, LISP clisp, LISP sbcl, LUA, NEM, NICE, NODEJS, PAS fpc, PAS gpc, PERL, PERL6, PHP, PIKE, PRLG, PYPY, PYTH, PYTH 3.4, RUBY, SCALA, SCM chicken, SCM guile, SCM qobi, ST, TCL, TEXT, WSPC\u000aSUBMIT All submissions for this problem are available.\u000aRead problems statements in Mandarin Chinese , Russian and Vietnamese as well.\u000aRead problems statements in Mandarin Chinese , Russian and Vietnamese\u000aThere is a N*N square matrix. You have been given N specifications, one per row of the matrix. The ith specifications is represented by a pair of integers L[i] and R[i], denoting that all element belonging to columns between L[i] and R[i] (both inclusive) in row i are 1, while the rest of the elements of the ith row are 0.\u000aNow you will be given an integer Q, followed by Q operations: Each query is described by two integers x and y, which asks what will be the parity of the sum of the matrix if the xth row and the yth column are removed from the matrix.\u000aInput\u000aFirst line of the input contains an integer N, followed by N lines: each containing a pair of integers. ith pair of integers denotes the value of L[i] and R[i].\u000aThe next line contains the value of Q, and the following Q lines contain the queries.\u000aOutput\u000aQ lines, each containing a single character "E" or "O" (no quotes needed), indicating whether the sum is even or odd.\u000aConstraints\u000aSubtask #1: 20 points\u000a1 \u2264 N,Q \u2264 1000, 1 \u2264 L[i] \u2264 R[i] \u2264 N,1 \u2264 x,y \u2264 N\u000aSubtask #2: 80 points\u000a1 \u2264 N,Q \u2264 105, 1 \u2264 L[i] \u2264 R[i] \u2264 N, 1 \u2264 x,y \u2264 N\u000aExample\u000aInput:\u000a3\u000a1 3\u000a2 2\u000a1 3\u000a2\u000a2 2\u000a3 2\u000a\u000aOutput:\u000aE\u000aE\u000aExplanation\u000aThe given array is:\u000a1 1 1\u000a0 1 0\u000a1 1 1\u000aIt's easy to see that the sum is even in both the queries.\u000aAuthor: amitpandeykgp\u000aTester: pushkarmishra\u000aEditorial: http://discuss.codechef.com/problems/QMAXTRIX\u000aTags: amitpandeykgp implementation ltime30 precomputation\u000aDate Added: 3-11-2015\u000aTime Limit: 1 sec\u000aSource Limit: 50000 Bytes\u000aLanguages: ADA, ASM, BASH, BF, C, C99 strict, CAML, CLOJ, CLPS, CPP 4.3.2, CPP 4.9.2, CPP14, CS2, D, ERL, FORT, FS, GO, HASK, ICK, ICON, JAVA, JS, LISP clisp, LISP sbcl, LUA, NEM, NICE, NODEJS, PAS fpc, PAS gpc, PERL, PERL6, PHP, PIKE, PRLG, PYPY, PYTH, PYTH 3.4, RUBY, SCALA, SCM chicken, SCM guile, SCM qobi, ST, TCL, TEXT, WSPC All submissions for this problem are available. Read problems statements in Mandarin Chinese , Russian and Vietnamese as well. Mandarin Chinese Russian Vietnamese Read problems statements in Mandarin Chinese , Russian and Vietnamese Mandarin Chinese Russian Vietnamese There is a N*N square matrix. You have been given N specifications, one per row of the matrix. The ith specifications is represented by a pair of integers L[i] and R[i], denoting that all element belonging to columns between L[i] and R[i] (both inclusive) in row i are 1, while the rest of the elements of the ith row are 0. N*N N ith th L[i] R[i] L[i] R[i] i i th  Now you will be given an integer Q, followed by Q operations: Each query is described by two integers x and y, which asks what will be the parity of the sum of the matrix if the xth row and the yth column are removed from the matrix. Q Q x y x th y th Input  First line of the input contains an integer N, followed by N lines: each containing a pair of integers. ith pair of integers denotes the value of L[i] and R[i].\u000aThe next line contains the value of Q, and the following Q lines contain the queries. First line of the input contains an integer N, followed by N lines: each containing a pair of integers. ith pair of integers denotes the value of L[i] and R[i]. N N i th L[i] R[i] The next line contains the value of Q, and the following Q lines contain the queries. Q Q  Output Q lines, each containing a single character "E" or "O" (no quotes needed), indicating whether the sum is even or odd. Q Constraints Subtask #1: 20 points Subtask #1: 20 points 1 \u2264 N,Q \u2264 1000, 1 \u2264 L[i] \u2264 R[i] \u2264 N,1 \u2264 x,y \u2264 N 1 \u2264 N,Q \u2264 1000, 1 \u2264 L[i] \u2264 R[i] \u2264 N,1 \u2264 x,y \u2264 N 1 \u2264 N,Q \u2264 1000, 1 \u2264 L[i] \u2264 R[i] \u2264 N,1 \u2264 x,y \u2264 N  Subtask #2: 80 points Subtask #2: 80 points 1 \u2264 N,Q \u2264 105, 1 \u2264 L[i] \u2264 R[i] \u2264 N, 1 \u2264 x,y \u2264 N 1 \u2264 N,Q \u2264 105, 1 \u2264 L[i] \u2264 R[i] \u2264 N, 1 \u2264 x,y \u2264 N 1 \u2264 N,Q \u2264 105, 1 \u2264 L[i] \u2264 R[i] \u2264 N, 1 \u2264 x,y \u2264 N 5  Example Input:\u000a3\u000a1 3\u000a2 2\u000a1 3\u000a2\u000a2 2\u000a3 2\u000a\u000aOutput:\u000aE\u000aE Input: Output: Explanation The given array is:\u000a1 1 1\u000a0 1 0\u000a1 1 1\u000aIt's easy to see that the sum is even in both the queries.      Author: amitpandeykgp\u000aTester: pushkarmishra\u000aEditorial: http://discuss.codechef.com/problems/QMAXTRIX\u000aTags: amitpandeykgp implementation ltime30 precomputation\u000aDate Added: 3-11-2015\u000aTime Limit: 1 sec\u000aSource Limit: 50000 Bytes\u000aLanguages: ADA, ASM, BASH, BF, C, C99 strict, CAML, CLOJ, CLPS, CPP 4.3.2, CPP 4.9.2, CPP14, CS2, D, ERL, FORT, FS, GO, HASK, ICK, ICON, JAVA, JS, LISP clisp, LISP sbcl, LUA, NEM, NICE, NODEJS, PAS fpc, PAS gpc, PERL, PERL6, PHP, PIKE, PRLG, PYPY, PYTH, PYTH 3.4, RUBY, SCALA, SCM chicken, SCM guile, SCM qobi, ST, TCL, TEXT, WSPC Author: amitpandeykgp\u000aTester: pushkarmishra\u000aEditorial: http://discuss.codechef.com/problems/QMAXTRIX\u000aTags: amitpandeykgp implementation ltime30 precomputation\u000aDate Added: 3-11-2015\u000aTime Limit: 1 sec\u000aSource Limit: 50000 Bytes\u000aLanguages: ADA, ASM, BASH, BF, C, C99 strict, CAML, CLOJ, CLPS, CPP 4.3.2, CPP 4.9.2, CPP14, CS2, D, ERL, FORT, FS, GO, HASK, ICK, ICON, JAVA, JS, LISP clisp, LISP sbcl, LUA, NEM, NICE, NODEJS, PAS fpc, PAS gpc, PERL, PERL6, PHP, PIKE, PRLG, PYPY, PYTH, PYTH 3.4, RUBY, SCALA, SCM chicken, SCM guile, SCM qobi, ST, TCL, TEXT, WSPC Author: amitpandeykgp Author: amitpandeykgp amitpandeykgp Tester: pushkarmishra Tester: pushkarmishra pushkarmishra Editorial: http://discuss.codechef.com/problems/QMAXTRIX Editorial: http://discuss.codechef.com/problems/QMAXTRIX http://discuss.codechef.com/problems/QMAXTRIX Tags: amitpandeykgp implementation ltime30 precomputation Tags: amitpandeykgp implementation ltime30 precomputation amitpandeykgp implementation ltime30 precomputation Date Added: 3-11-2015 Date Added: 3-11-2015 Time Limit: 1 sec Time Limit: 1 sec Source Limit: 50000 Bytes Source Limit: 50000 Bytes Languages: ADA, ASM, BASH, BF, C, C99 strict, CAML, CLOJ, CLPS, CPP 4.3.2, CPP 4.9.2, CPP14, CS2, D, ERL, FORT, FS, GO, HASK, ICK, ICON, JAVA, JS, LISP clisp, LISP sbcl, LUA, NEM, NICE, NODEJS, PAS fpc, PAS gpc, PERL, PERL6, PHP, PIKE, PRLG, PYPY, PYTH, PYTH 3.4, RUBY, SCALA, SCM chicken, SCM guile, SCM qobi, ST, TCL, TEXT, WSPC Languages: ADA, ASM, BASH, BF, C, C99 strict, CAML, CLOJ, CLPS, CPP 4.3.2, CPP 4.9.2, CPP14, CS2, D, ERL, FORT, FS, GO, HASK, ICK, ICON, JAVA, JS, LISP clisp, LISP sbcl, LUA, NEM, NICE, NODEJS, PAS fpc, PAS gpc, PERL, PERL6, PHP, PIKE, PRLG, PYPY, PYTH, PYTH 3.4, RUBY, SCALA, SCM chicken, SCM guile, SCM qobi, ST, TCL, TEXT, WSPC SUBMIT  SUBMIT SUBMIT SUCCESSFUL SUBMISSIONS SUCCESSFUL SUBMISSIONS SUCCESSFUL SUBMISSIONS SUCCESSFUL SUBMISSIONS SUCCESSFUL SUBMISSIONS  
p9
sS'tags'
p10
V amitpandeykgp implementation ltime30 precomputation
p11
sS'url'
p12
Vhttps://www.codechef.com/problems/QMAXTRIX
p13
sS'statement'
p14
(lp15
V All submissions for this problem are available.
p16
aVRead problems statements in Mandarin Chinese , Russian and Vietnamese as well.
p17
aVRead problems statements in Mandarin Chinese , Russian and Vietnamese
p18
aVThere is a N*N square matrix. You have been given N specifications, one per row of the matrix. The ith specifications is represented by a pair of integers L[i] and R[i], denoting that all element belonging to columns between L[i] and R[i] (both inclusive) in row i are 1, while the rest of the elements of the ith row are 0.
p19
aVNow you will be given an integer Q, followed by Q operations: Each query is described by two integers x and y, which asks what will be the parity of the sum of the matrix if the xth row and the yth column are removed from the matrix.
p20
asS'input'
p21
(lp22
VInput
p23
aVFirst line of the input contains an integer N, followed by N lines: each containing a pair of integers. ith pair of integers denotes the value of L[i] and R[i].
p24
aVThe next line contains the value of Q, and the following Q lines contain the queries.
p25
aVOutput
p26
aVQ lines, each containing a single character "E" or "O" (no quotes needed), indicating whether the sum is even or odd.
p27
asS'constraints'
p28
(lp29
VConstraints
p30
aVSubtask #1: 20 points
p31
aV1 \u2264 N,Q \u2264 1000, 1 \u2264 L[i] \u2264 R[i] \u2264 N,1 \u2264 x,y \u2264 N
p32
aVSubtask #2: 80 points
p33
aV1 \u2264 N,Q \u2264 105, 1 \u2264 L[i] \u2264 R[i] \u2264 N, 1 \u2264 x,y \u2264 N
p34
asS'id'
p35
c__builtin__
id
p36
sS'name'
p37
VQMAXTRIX
p38
sb.