(iproblems
Problem
p0
(dp1
S'time_limit'
p2
(lp3
VTime Limit: 1 sec
p4
asS'source_limit'
p5
(lp6
VSource Limit: 50000 Bytes
p7
asS'description'
p8
V Read problems statements in Mandarin Chinese and Russian as well.\u000aCaptain Dehatti from Bawanian village is making strategy to win the Fake Cricket World Cup organised in his village.\u000aHe want his team to score runs only in 4's and 6's because he believes that scoring any runs by running will make them tired.\u000aHe also wants that the team does not loose more than L wickets.\u000aHe now wonders in how many ways his team can score exactly R runs in B balls. Ofcourse, he assumes that the opponent bowling is awesome and will not concede any extra runs.\u000aFormally, He wonders how many ways can his team score exactly R runs in B balls, given that each ball can result in 4, 6, 0 , or W(wicket wont add anything to score). Atmost L wicktes are allowed [i.e. Atmost L 'W' can be there in B balls ].\u000aNote: His batting order is fixed i.e. After each wicket , next player to come is fixed.\u000aInput\u000aFirst line contains T, the number of test cases.\u000aEach test case contains 3 space separated integers, R, B and L\u000aOutput\u000aFor each test cases output the number of ways modulo 1e9+7 (i.e. 1000000007)\u000aConstraints\u000a1 \u2264 T \u2264 25000\u000a0 \u2264 R \u2264 109\u000a1 \u2264 B \u2264 300\u000a0 \u2264 L \u2264 9\u000aExample\u000aInput:\u000a6\u000a10 2 9\u000a6 2 9\u000a6 1 9\u000a4 1 9\u000a5 1 9\u000a10 3 9\u000aOutput:\u000a2\u000a4\u000a1\u000a1\u000a0\u000a12\u000aExplanation\u000aExplanation for the sample input 1:\u000a\u000aAll possible ways to face 2 deliveries:\u000a\u000a00\u000a04\u000a06\u000a0W\u000aW0\u000aW4\u000aW6\u000aWW\u000a40\u000a44\u000a46\u000a4W\u000a60\u000a64\u000a66\u000a6W\u000a\u000aOnly possible ways to win the match are 46 and 64. Hence answer is 2.\u000a\u000aYou need to consider all sample space i.e. 4^B\u000a\u000aNote that the answer to R = 0 , B = 2 , W =1 is 3  [ 00 , 0W , W0 ]\u000aAuthor: devuy11\u000aTester: anudeep2011\u000aEditorial: http://discuss.codechef.com/problems/WORLDCUP\u000aTags: combinatorics cook55 devuy11 dynamic-prog maths simple\u000aDate Added: 4-02-2015\u000aTime Limit: 1 sec\u000aSource Limit: 50000 Bytes\u000aLanguages: ADA, ASM, BASH, BF, C, C99 strict, CAML, CLOJ, CLPS, CPP 4.3.2, CPP 4.9.2, CPP14, CS2, D, ERL, FORT, FS, GO, HASK, ICK, ICON, JAVA, JS, LISP clisp, LISP sbcl, LUA, NEM, NICE, NODEJS, PAS fpc, PAS gpc, PERL, PERL6, PHP, PIKE, PRLG, PYPY, PYTH, PYTH 3.4, RUBY, SCALA, SCM chicken, SCM guile, SCM qobi, ST, TCL, TEXT, WSPC\u000aSUBMIT Read problems statements in Mandarin Chinese and Russian as well.\u000aCaptain Dehatti from Bawanian village is making strategy to win the Fake Cricket World Cup organised in his village.\u000aHe want his team to score runs only in 4's and 6's because he believes that scoring any runs by running will make them tired.\u000aHe also wants that the team does not loose more than L wickets.\u000aHe now wonders in how many ways his team can score exactly R runs in B balls. Ofcourse, he assumes that the opponent bowling is awesome and will not concede any extra runs.\u000aFormally, He wonders how many ways can his team score exactly R runs in B balls, given that each ball can result in 4, 6, 0 , or W(wicket wont add anything to score). Atmost L wicktes are allowed [i.e. Atmost L 'W' can be there in B balls ].\u000aNote: His batting order is fixed i.e. After each wicket , next player to come is fixed.\u000aInput\u000aFirst line contains T, the number of test cases.\u000aEach test case contains 3 space separated integers, R, B and L\u000aOutput\u000aFor each test cases output the number of ways modulo 1e9+7 (i.e. 1000000007)\u000aConstraints\u000a1 \u2264 T \u2264 25000\u000a0 \u2264 R \u2264 109\u000a1 \u2264 B \u2264 300\u000a0 \u2264 L \u2264 9\u000aExample\u000aInput:\u000a6\u000a10 2 9\u000a6 2 9\u000a6 1 9\u000a4 1 9\u000a5 1 9\u000a10 3 9\u000aOutput:\u000a2\u000a4\u000a1\u000a1\u000a0\u000a12\u000aExplanation\u000aExplanation for the sample input 1:\u000a\u000aAll possible ways to face 2 deliveries:\u000a\u000a00\u000a04\u000a06\u000a0W\u000aW0\u000aW4\u000aW6\u000aWW\u000a40\u000a44\u000a46\u000a4W\u000a60\u000a64\u000a66\u000a6W\u000a\u000aOnly possible ways to win the match are 46 and 64. Hence answer is 2.\u000a\u000aYou need to consider all sample space i.e. 4^B\u000a\u000aNote that the answer to R = 0 , B = 2 , W =1 is 3  [ 00 , 0W , W0 ]\u000aAuthor: devuy11\u000aTester: anudeep2011\u000aEditorial: http://discuss.codechef.com/problems/WORLDCUP\u000aTags: combinatorics cook55 devuy11 dynamic-prog maths simple\u000aDate Added: 4-02-2015\u000aTime Limit: 1 sec\u000aSource Limit: 50000 Bytes\u000aLanguages: ADA, ASM, BASH, BF, C, C99 strict, CAML, CLOJ, CLPS, CPP 4.3.2, CPP 4.9.2, CPP14, CS2, D, ERL, FORT, FS, GO, HASK, ICK, ICON, JAVA, JS, LISP clisp, LISP sbcl, LUA, NEM, NICE, NODEJS, PAS fpc, PAS gpc, PERL, PERL6, PHP, PIKE, PRLG, PYPY, PYTH, PYTH 3.4, RUBY, SCALA, SCM chicken, SCM guile, SCM qobi, ST, TCL, TEXT, WSPC Read problems statements in Mandarin Chinese and Russian as well. Mandarin Chinese Russian Captain Dehatti from Bawanian village is making strategy to win the Fake Cricket World Cup organised in his village. He want his team to score runs only in 4's and 6's because he believes that scoring any runs by running will make them tired. He also wants that the team does not loose more than L wickets. L He now wonders in how many ways his team can score exactly R runs in B balls. Ofcourse, he assumes that the opponent bowling is awesome and will not concede any extra runs. R B Formally, He wonders how many ways can his team score exactly R runs in B balls, given that each ball can result in 4, 6, 0 , or W(wicket wont add anything to score). Atmost L wicktes are allowed [i.e. Atmost L 'W' can be there in B balls ]. R B L L Note: His batting order is fixed i.e. After each wicket , next player to come is fixed. Note: Input First line contains T, the number of test cases. T Each test case contains 3 space separated integers, R, B and L R, B and L Output For each test cases output the number of ways modulo 1e9+7 (i.e. 1000000007) Constraints 1 \u2264 T \u2264 25000\u000a0 \u2264 R \u2264 109\u000a1 \u2264 B \u2264 300\u000a0 \u2264 L \u2264 9 1 \u2264 T \u2264 25000 1 \u2264 T \u2264 25000 0 \u2264 R \u2264 109 0 \u2264 R \u2264 109 9 1 \u2264 B \u2264 300 1 \u2264 B \u2264 300 0 \u2264 L \u2264 9 0 \u2264 L \u2264 9 Example Input:\u000a6\u000a10 2 9\u000a6 2 9\u000a6 1 9\u000a4 1 9\u000a5 1 9\u000a10 3 9\u000aOutput:\u000a2\u000a4\u000a1\u000a1\u000a0\u000a12 Input:   Output:  Explanation Explanation for the sample input 1:\u000a\u000aAll possible ways to face 2 deliveries:\u000a\u000a00\u000a04\u000a06\u000a0W\u000aW0\u000aW4\u000aW6\u000aWW\u000a40\u000a44\u000a46\u000a4W\u000a60\u000a64\u000a66\u000a6W\u000a\u000aOnly possible ways to win the match are 46 and 64. Hence answer is 2.\u000a\u000aYou need to consider all sample space i.e. 4^B\u000a\u000aNote that the answer to R = 0 , B = 2 , W =1 is 3  [ 00 , 0W , W0 ]  Author: devuy11\u000aTester: anudeep2011\u000aEditorial: http://discuss.codechef.com/problems/WORLDCUP\u000aTags: combinatorics cook55 devuy11 dynamic-prog maths simple\u000aDate Added: 4-02-2015\u000aTime Limit: 1 sec\u000aSource Limit: 50000 Bytes\u000aLanguages: ADA, ASM, BASH, BF, C, C99 strict, CAML, CLOJ, CLPS, CPP 4.3.2, CPP 4.9.2, CPP14, CS2, D, ERL, FORT, FS, GO, HASK, ICK, ICON, JAVA, JS, LISP clisp, LISP sbcl, LUA, NEM, NICE, NODEJS, PAS fpc, PAS gpc, PERL, PERL6, PHP, PIKE, PRLG, PYPY, PYTH, PYTH 3.4, RUBY, SCALA, SCM chicken, SCM guile, SCM qobi, ST, TCL, TEXT, WSPC Author: devuy11\u000aTester: anudeep2011\u000aEditorial: http://discuss.codechef.com/problems/WORLDCUP\u000aTags: combinatorics cook55 devuy11 dynamic-prog maths simple\u000aDate Added: 4-02-2015\u000aTime Limit: 1 sec\u000aSource Limit: 50000 Bytes\u000aLanguages: ADA, ASM, BASH, BF, C, C99 strict, CAML, CLOJ, CLPS, CPP 4.3.2, CPP 4.9.2, CPP14, CS2, D, ERL, FORT, FS, GO, HASK, ICK, ICON, JAVA, JS, LISP clisp, LISP sbcl, LUA, NEM, NICE, NODEJS, PAS fpc, PAS gpc, PERL, PERL6, PHP, PIKE, PRLG, PYPY, PYTH, PYTH 3.4, RUBY, SCALA, SCM chicken, SCM guile, SCM qobi, ST, TCL, TEXT, WSPC Author: devuy11 Author: devuy11 devuy11 Tester: anudeep2011 Tester: anudeep2011 anudeep2011 Editorial: http://discuss.codechef.com/problems/WORLDCUP Editorial: http://discuss.codechef.com/problems/WORLDCUP http://discuss.codechef.com/problems/WORLDCUP Tags: combinatorics cook55 devuy11 dynamic-prog maths simple Tags: combinatorics cook55 devuy11 dynamic-prog maths simple combinatorics cook55 devuy11 dynamic-prog maths simple Date Added: 4-02-2015 Date Added: 4-02-2015 Time Limit: 1 sec Time Limit: 1 sec Source Limit: 50000 Bytes Source Limit: 50000 Bytes Languages: ADA, ASM, BASH, BF, C, C99 strict, CAML, CLOJ, CLPS, CPP 4.3.2, CPP 4.9.2, CPP14, CS2, D, ERL, FORT, FS, GO, HASK, ICK, ICON, JAVA, JS, LISP clisp, LISP sbcl, LUA, NEM, NICE, NODEJS, PAS fpc, PAS gpc, PERL, PERL6, PHP, PIKE, PRLG, PYPY, PYTH, PYTH 3.4, RUBY, SCALA, SCM chicken, SCM guile, SCM qobi, ST, TCL, TEXT, WSPC Languages: ADA, ASM, BASH, BF, C, C99 strict, CAML, CLOJ, CLPS, CPP 4.3.2, CPP 4.9.2, CPP14, CS2, D, ERL, FORT, FS, GO, HASK, ICK, ICON, JAVA, JS, LISP clisp, LISP sbcl, LUA, NEM, NICE, NODEJS, PAS fpc, PAS gpc, PERL, PERL6, PHP, PIKE, PRLG, PYPY, PYTH, PYTH 3.4, RUBY, SCALA, SCM chicken, SCM guile, SCM qobi, ST, TCL, TEXT, WSPC SUBMIT  SUBMIT SUBMIT SUCCESSFUL SUBMISSIONS SUCCESSFUL SUBMISSIONS SUCCESSFUL SUBMISSIONS SUCCESSFUL SUBMISSIONS SUCCESSFUL SUBMISSIONS  
p9
sS'tags'
p10
V combinatorics cook55 devuy11 dynamic-prog maths simple
p11
sS'url'
p12
Vhttps://www.codechef.com/problems/WORLDCUP
p13
sS'statement'
p14
(lp15
V Read problems statements in Mandarin Chinese and Russian as well.
p16
aVCaptain Dehatti from Bawanian village is making strategy to win the Fake Cricket World Cup organised in his village.
p17
aVHe want his team to score runs only in 4's and 6's because he believes that scoring any runs by running will make them tired.
p18
aVHe also wants that the team does not loose more than L wickets.
p19
aVHe now wonders in how many ways his team can score exactly R runs in B balls. Ofcourse, he assumes that the opponent bowling is awesome and will not concede any extra runs.
p20
aVFormally, He wonders how many ways can his team score exactly R runs in B balls, given that each ball can result in 4, 6, 0 , or W(wicket wont add anything to score). Atmost L wicktes are allowed [i.e. Atmost L 'W' can be there in B balls ].
p21
aVNote: His batting order is fixed i.e. After each wicket , next player to come is fixed.
p22
asS'input'
p23
(lp24
VInput
p25
aVFirst line contains T, the number of test cases.
p26
aVEach test case contains 3 space separated integers, R, B and L
p27
aVOutput
p28
aVFor each test cases output the number of ways modulo 1e9+7 (i.e. 1000000007)
p29
asS'constraints'
p30
(lp31
VConstraints
p32
aV1 \u2264 T \u2264 25000
p33
aV0 \u2264 R \u2264 109
p34
aV1 \u2264 B \u2264 300
p35
aV0 \u2264 L \u2264 9
p36
asS'id'
p37
c__builtin__
id
p38
sS'name'
p39
VWORLDCUP
p40
sb.