(iuser
User
p0
(dp1
S'city'
p2
VBucharest
p3
sS'ratings'
p4
(dp5
S'LTime'
p6
V2417.21 
p7
sS'Short'
p8
V7231.99 
p9
sS'Long'
p10
V91220.13 
p11
ssS'url'
p12
S'https://www.codechef.com/users/mugurelionut'
p13
sS'country'
p14
VRomania
p15
sS'isStudent'
p16
I00
sS'uname'
p17
S'mugurelionut'
p18
sS'ranks'
p19
(dp20
g6
V269 / 2
p21
sg8
V16 / 1
p22
sg10
V1 / 1
p23
ssS'prefLang'
p24
VC++14
p25
sS'probs'
p26
(lp27
VTEST
p28
aVHS08TEST
p29
aVCOINS
p30
aVMARBLES
p31
aVEQUALIZ
p32
aVAMBALLS
p33
aVCHALENGE
p34
aVROUTES
p35
aVSEAVEC
p36
aVSMPAINT
p37
aVDELIVERY
p38
aVTOURBUS
p39
aVSEAPERM
p40
aVLMATRIX3
p41
aVDARTS
p42
aVSPLIT
p43
aVSIGFIB
p44
aVFACTORIZ
p45
aVBTREE
p46
aVTRIPS
p47
aVEMBED
p48
aVSEADIVM
p49
aVCOOKMACH
p50
aVGRGUY
p51
aVWOUT
p52
aVADMAG
p53
aVSTETSKLX
p54
aVDISTNUM
p55
aVCLOWAY
p56
aVDCGAME
p57
aVCHINSM
p58
aVCHTTRS
p59
aVEFFDELIV
p60
aVEGRCAKE
p61
aVKFUNC
p62
aVCHSTAMP
p63
aVCHEFSHOP
p64
aVSMPLSUM
p65
aVSCRABBLE
p66
aVSNAKGAME
p67
aVCLUSSCHE
p68
aVCHEFPOL
p69
aVALLPOLY
p70
aVCHCHCL
p71
aVCHEFRRUN
p72
aVSHAIKHGN
p73
aVMAXGRID
p74
aVCHMTDV
p75
aVCHEFKC
p76
aVCARVANS
p77
aVCOALSCAM
p78
aVPPERM
p79
aVRRECIPE
p80
aVPTOSS
p81
aVMAXCOMP
p82
aVNEWSCH
p83
aVDRGNBOOL
p84
aVDIAMOND
p85
aVLUCKY10
p86
aVBMASTER
p87
aVTEAMSIZE
p88
aVMAXRECT
p89
aVBUYING2
p90
aVTOURNAM
p91
aVCONFLIP
p92
aVTOURMAP
p93
aVCANDYGAM
p94
aVCBARS
p95
aVDDISH
p96
aVJABO
p97
aVCOUNTARI
p98
aVLUCKY9
p99
aVMARTARTS
p100
aVMANYLEFT
p101
aVLEDIV
p102
aVLEPERMUT
p103
aVLEMAGIC
p104
aVGRANAMA
p105
aVMGCRNK
p106
aVDBOY
p107
aVBEX
p108
aVSEREJA
p109
aVCNTWAYS
p110
aVARIGEOM
p111
aVDIFTRIP
p112
aVWORDNINJ
p113
aVDIRECTI
p114
aVMUFFINS3
p115
aVDIVPRO
p116
aVSALARY
p117
aVCVOTE
p118
aVLEALCO
p119
aVCHEFHACK
p120
aVANDOOR
p121
aVTHREEDIF
p122
aVHOB
p123
aVCUCUMBER
p124
aVKILOWHAT
p125
aVMSTRINGS
p126
aVLIGHTS
p127
aVATKCTR
p128
aVCBLOCKS
p129
aVRNEST
p130
aVPSTRINGS
p131
aVFSSYNC
p132
aVBALL
p133
aVFINDHOLE
p134
aVMINMAX
p135
aVDQPERMS
p136
aVBUY1GET1
p137
aVCLMBSTRS
p138
aVLECARDS
p139
aVMBOARD
p140
aVTRIQUERY
p141
aVWPLAY
p142
aVTESTERS
p143
aVQUERY
p144
aVROC
p145
aVEFFPAINT
p146
aVROWCOLOP
p147
aVNOLOGIC
p148
aVHOB2
p149
aVAPPROX
p150
aVTOTR
p151
aVFIRESC
p152
aVRDF
p153
aVLONGART
p154
aVSUBTREE
p155
aVZENCALC
p156
aVLECOINS
p157
aVCHANGE
p158
aVMINESWPR
p159
aVTAPALIN
p160
aVTAVISUAL
p161
aVTASTR
p162
aVTABUS
p163
aVMAXDIFF
p164
aVLEVY
p165
aVFCBARCA
p166
aVLEMUSIC
p167
aVKINGCON
p168
aVCHEFGAME
p169
aVSTRQUERY
p170
aVCYLINDER
p171
aVINVBINCF
p172
aVFAULT
p173
aVWITMATH
p174
aVFTRIP
p175
aVMSTICK
p176
aVNAME2
p177
aVNAME1
p178
aVJUNONGF
p179
aVQTREE
p180
aVCPP
p181
aVTREE
p182
aVCHALENGE
p183
aVAMSGAME1
p184
aVAMSGAME2
p185
aVAMSEQT
p186
aVAMXOR
p187
aVLAPIN
p188
aVWSTRING
p189
aVPREDICT
p190
aVDELISH
p191
aVLEMOUSE
p192
aVCOLLECT
p193
aVTKCONVEX
p194
aVPERMUTE
p195
aVSPMATRIX
p196
aVCHAORNOT
p197
aVKPRIME
p198
aVCHRECT
p199
aVCIRKILL
p200
aVMOU1H
p201
aVGALACTIK
p202
aVRIVPILE
p203
aVPROB
p204
aVFARASA
p205
aVNPIN
p206
aVSEASOR
p207
aVTACHSTCK
p208
aVTAAPLUSB
p209
aVTACHEMIS
p210
aVTAACUTE
p211
aVSPCANDY
p212
aVSHIRO
p213
aVLELEMON
p214
aVCNTSOLS
p215
aVCHMOD
p216
aVHELLO
p217
aVLYRC
p218
aVSEABAL
p219
aVPRIMEDST
p220
aVDELNMS
p221
aVCAOS1
p222
aVCAOS2
p223
aVSPOONS
p224
aVINTEG
p225
aVLEEXAMS
p226
aVMLCHEF
p227
aVCOOLGUYS
p228
aVTWOROADS
p229
aVTMP01
p230
aVSEASNAKE
p231
aVPPTEST
p232
aVPPNUM
p233
aVPPXOR
p234
aVPPLUCKY
p235
aVPPTREE
p236
aVCHGLSTGT
p237
aVEXPGAME
p238
aVCHFQUEUE
p239
aVCNR
p240
aVJOHNY
p241
aVMCHAIRS
p242
aVSDSQUARE
p243
aVSPOTWO
p244
aVPRETNUM
p245
aVCHEFGM
p246
aVGERALD2
p247
aVMONOPLOY
p248
aVQPOINT
p249
aVSEAVEC
p250
aVCUBE
p251
aVALEXNUMB
p252
aVCHODE
p253
aVMARBLEGF
p254
aVRECTQUER
p255
aVREIGN
p256
aVDECORATE
p257
aVQTREE6
p258
aVREALSET
p259
aVSMPAINT
p260
aVCAKE1AM
p261
aVGAMEAAM
p262
aVGANGAAM
p263
aVORDERAAM
p264
aVCHRL1
p265
aVCHRL2
p266
aVCHRL3
p267
aVCHRL4
p268
aVCHSEQ22
p269
aVLCPESY
p270
aVSUBMIN
p271
aVTWODOGS
p272
aVCOLARR
p273
aVDRGHTS
p274
aVLEMOVIE
p275
aVCOT5
p276
aVDAGCH
p277
aVLMATRIX2
p278
aVREMISS
p279
aVKINGSHIP
p280
aVLPAIR
p281
aVUNIQUE
p282
aVCOTA
p283
aVWALK
p284
aVPROSUM
p285
aVTMSLT
p286
aVMIKE3
p287
aVBINTOUR
p288
aVGERALD07
p289
aVANUGCD
p290
aVSTREETTA
p291
aVSSTORY
p292
aVSEASORT2
p293
aVDIVIDING
p294
aVABCSTR
p295
aVDIVGAME
p296
aVPALIN3
p297
aVMINXOR
p298
aVPOTATOES
p299
aVBINTREE
p300
aVADIGIT
p301
aVCNPIIM
p302
aVTANGDIV
p303
aVANUCBC
p304
aVFBCHEF
p305
aVGERALD08
p306
aVLMATRIX3
p307
aVSEAPERM
p308
aVSNAPE
p309
aVBICO
p310
aVTCP
p311
aVDIREL
p312
aVLEBALONS
p313
aVSEAGM
p314
aVSEINC
p315
aVFUNAGP
p316
aVCHEFBM
p317
aVCOMPILER
p318
aVRRSTONE
p319
aVOJUMPS
p320
aVANUDTQ
p321
aVANUMFS
p322
aVANUUND
p323
aVANUBGC
p324
aVANUDTC
p325
aVANUSAR
p326
aVTWOCOMP
p327
aVLEBLOCKS
p328
aVMAXPR
p329
aVCHEFZOT
p330
aVGUESS
p331
aVFORGETPW
p332
aVDIGJUMP
p333
aVFUNC
p334
aVSEAARC
p335
aVDARTS
p336
aVFLAGS
p337
aVPNTNG
p338
aVWTHINGS
p339
aVKNPSK
p340
aVIDOLS
p341
aVLUCKG
p342
aVCSUB
p343
aVRETPO
p344
aVFROGV
p345
aVSGARDEN
p346
aVDISHOWN
p347
aVLEPAINT
p348
aVSEAEQ
p349
aVGNUM
p350
aVGERALD09
p351
aVRRFRNDS
p352
aVRRCOPY
p353
aVRRSUM
p354
aVRRDAG
p355
aVRRTREE2
p356
aVPRGIFT
p357
aVMOU2H
p358
aVREVERSE
p359
aVCLETAB
p360
aVCRAWA
p361
aVEQUAKE
p362
aVTSHIRTS
p363
aVSIGFIB
p364
aVPUSHFLOW
p365
aVSEASHUF
p366
aVPERMSUFF
p367
aVSHOOTING
p368
aVTREEGAME
p369
aVSEABUB
p370
aVCHEFLR
p371
aVROTATION
p372
aVRAINBOWB
p373
aVQRECT
p374
aVCHEFINV
p375
aVUASEQ
p376
aVFLOORI4
p377
aVFIBTREE
p378
aVFACTORIZ
p379
aVANUMLA
p380
aVANUWTA
p381
aVANUARM
p382
aVANUTDP
p383
aVSEAORD
p384
aVSEAPERM2
p385
aVCHEFWORD
p386
aVRBTREE
p387
aVDISCHAR
p388
aVPRPALN
p389
aVCHEFSEG
p390
aVFNCS
p391
aVPOWERMUL
p392
aVSPELL
p393
aVBRACKETS
p394
aVMOSTDIST
p395
aVPETERSEN
p396
aVLSTGRPH
p397
aVRIN
p398
aVCAPPLE
p399
aVXORSUB
p400
aVSEAGCD
p401
aVCHEFPRES
p402
aVCHEFBR
p403
aVDIVIDEN
p404
aVGOODGAL
p405
aVSANSKAR
p406
aVKALKI
p407
aVRRJOKE
p408
aVRRMTRX2
p409
aVRRPLAYER
p410
aVRRSERVER
p411
aVRRJAM
p412
aVCHEFSTON
p413
aVGCDQ
p414
aVSEAVOTE
p415
aVONEKING
p416
aVCLPERM
p417
aVQSET
p418
aVSEALCM
p419
aVXRQRS
p420
aVRANKA
p421
aVSEAND2
p422
aVANUBTG
p423
aVANUTHM
p424
aVANURRZ
p425
aVANUAHR
p426
aVCHEFCH
p427
aVCHEFEQ
p428
aVRANKLIST
p429
aVSTFM
p430
aVSTRQ
p431
aVXRMTRX
p432
aVCHEFGRPH
p433
aVDEVLOCK
p434
aVCUSTPRIM
p435
aVCHPUZZLE
p436
aVRNG
p437
aVCNOTE
p438
aVSTRSUB
p439
aVDEVCLASS
p440
aVMTRWY
p441
aVQCHEF
p442
aVSEAPROAR
p443
aVSIGNWAVE
p444
aVTREECNT2
p445
aVEMBED
p446
aVCBAL
p447
aVDEVHAND
p448
aVCHEFRP
p449
aVSETDIFF
p450
aVDEVSTR
p451
aVCHEFCK
p452
aVCHAPD
p453
aVGRAPHCNT
p454
aVSEZ
p455
aVSHOPPING
p456
aVANCOIMP
p457
aVCBARG
p458
aVFRNDMTNG
p459
aVCHPLGNS
p460
aVSTDYTAB
p461
aVCHSTR
p462
aVMOREFB
p463
aVCHEFBOOK
p464
aVCONPOIN
p465
aVSEADIVM
p466
aVTHEGAME
p467
aVTERVEC
p468
aVMSTEP
p469
aVDONUTS
p470
aVBANROB
p471
aVREBXOR
p472
aVLIGHTHSE
p473
aVMGCH3D
p474
aVCODECRCK
p475
aVCHTTRS
p476
aVLOTERY
p477
aVMGCHGYM
p478
aVJUMP
p479
aVSUBINC
p480
aVWDTBAM
p481
aVTIMEASR
p482
aVKSPHERES
p483
aVADTRI
p484
aVPERSHFTS
p485
aVEFFDELIV
p486
aVCHEFST
p487
aVPLANEDIV
p488
aVORACLCS
p489
aVCHEFFILT
p490
aVCHCINEMA
p491
aVCHEFGIRL
p492
aVSEADIV
p493
aVWAYPA
p494
aVMGCHPERM
p495
aVTANKS
p496
aVWRDSUM
p497
aVCHEFDETE
p498
aVSTROPR
p499
aVDEVLDISC
p500
aVSEATL
p501
aVSEAPERMS
p502
aVRECTLOVE
p503
aVCALLSCHE
p504
aVMTMXSUM
p505
aVCHEFJR
p506
aVTULIPS
p507
aVSEATSTR2
p508
aVSTRPALIN
p509
aVMAXISUM
p510
aVCHEFSPL
p511
aVFLOORDIS
p512
aVPARITREE
p513
aVHBIRD
p514
aVCHEFPC
p515
aVCHNGSS
p516
aVMGCHGEOM
p517
aVFRJUMP
p518
aVDEVARRAY
p519
aVCHCOINSG
p520
aVBINOP
p521
aVCHEARMY
p522
aVCHEFARK
p523
aVCHSQARR
p524
aVSADPAIRS
p525
aVCHNWGM
p526
aVROUTES
p527
aVSTETSKLX
p528
aVDISTNUM
p529
aVCLOWAY
p530
aVSMPLSUM
p531
aVCOOKFOOD
p532
aVCOINCHNG
p533
aVTRIPCOST
p534
aVTANGLED
p535
aVAND
p536
aVMATRIX2
p537
aVSORTING
p538
aVROUTES
p539
asb.