(icodeforcesuser
CodeForcesUser
p0
(dp1
S'city'
p2
S'Moscow'
p3
sS'name'
p4
S'Petr Mitrichev'
p5
sS'ratings'
p6
S'3277'
p7
sS'url'
p8
S'http://codeforces.com/profile/Petr'
p9
sS'country'
p10
S'Russia'
p11
sS'rank'
p12
S'legendary grandmaster'
p13
sS'uname'
p14
S'Petr'
p15
sS'organization'
p16
S'Google'
p17
sS'submissions'
p18
(lp19
(dp20
S'submissionCount'
p21
S'7'
p22
sS'submissionDate'
p23
S'2010-02-25 18:40:13'
p24
sS'problemId'
p25
S'1/A'
p26
sa(dp27
g21
S'1'
p28
sg23
S'2010-02-25 22:35:28'
p29
sg25
S'2/A'
p30
sa(dp31
g21
g28
sg23
S'2010-02-25 23:59:22'
p32
sg25
S'2/B'
p33
sa(dp34
g21
S'3'
p35
sg23
S'2010-02-25 23:36:10'
p36
sg25
S'2/C'
p37
sa(dp38
g21
g28
sg23
S'2010-03-07 17:35:07'
p39
sg25
S'3/A'
p40
sa(dp41
g21
S'5'
p42
sg23
S'2010-03-07 17:44:01'
p43
sg25
S'3/B'
p44
sa(dp45
g21
g28
sg23
S'2010-03-07 17:53:30'
p46
sg25
S'3/C'
p47
sa(dp48
g21
g28
sg23
S'2010-03-07 18:09:08'
p49
sg25
S'3/D'
p50
sa(dp51
g21
g28
sg23
S'2010-03-20 21:34:03'
p52
sg25
S'5/A'
p53
sa(dp54
g21
g28
sg23
S'2010-03-20 21:40:30'
p55
sg25
S'5/B'
p56
sa(dp57
g21
g28
sg23
S'2010-03-20 21:49:41'
p58
sg25
S'5/C'
p59
sa(dp60
g21
g28
sg23
S'2010-03-20 22:06:05'
p61
sg25
S'5/D'
p62
sa(dp63
g21
g28
sg23
S'2010-03-20 22:36:44'
p64
sg25
S'5/E'
p65
sa(dp66
g21
g28
sg23
S'2010-04-01 21:18:26'
p67
sg25
S'7/A'
p68
sa(dp69
g21
g28
sg23
S'2010-04-01 21:24:12'
p70
sg25
S'7/B'
p71
sa(dp72
g21
S'2'
p73
sg23
S'2010-04-01 21:33:03'
p74
sg25
S'7/C'
p75
sa(dp76
g21
g28
sg23
S'2010-04-01 21:38:38'
p77
sg25
S'7/D'
p78
sa(dp79
g21
g28
sg23
S'2010-04-01 22:13:56'
p80
sg25
S'7/E'
p81
sa(dp82
g21
g28
sg23
S'2010-04-08 21:22:09'
p83
sg25
S'8/A'
p84
sa(dp85
g21
g28
sg23
S'2010-04-08 21:28:00'
p86
sg25
S'8/B'
p87
sa(dp88
g21
g28
sg23
S'2010-04-08 21:37:07'
p89
sg25
S'8/C'
p90
sa(dp91
g21
g73
sg23
S'2010-04-08 22:46:18'
p92
sg25
S'8/D'
p93
sa(dp94
g21
g28
sg23
S'2010-04-08 22:24:08'
p95
sg25
S'8/E'
p96
sa(dp97
g21
g28
sg23
S'2010-04-15 21:18:13'
p98
sg25
S'10/A'
p99
sa(dp100
g21
g28
sg23
S'2010-04-15 21:23:33'
p101
sg25
S'10/B'
p102
sa(dp103
g21
g28
sg23
S'2010-04-15 21:28:28'
p104
sg25
S'10/C'
p105
sa(dp106
g21
g73
sg23
S'2010-04-15 21:52:34'
p107
sg25
S'10/E'
p108
sa(dp109
g21
g28
sg23
S'2010-04-26 20:34:45'
p110
sg25
S'11/A'
p111
sa(dp112
g21
g28
sg23
S'2010-04-26 20:37:45'
p113
sg25
S'11/B'
p114
sa(dp115
g21
g28
sg23
S'2010-04-26 21:06:17'
p116
sg25
S'11/C'
p117
sa(dp118
g21
g35
sg23
S'2010-04-26 21:28:13'
p119
sg25
S'11/D'
p120
sa(dp121
g21
g35
sg23
S'2010-04-26 22:32:19'
p122
sg25
S'11/E'
p123
sa(dp124
g21
g28
sg23
S'2010-05-29 20:36:50'
p125
sg25
S'15/A'
p126
sa(dp127
g21
g28
sg23
S'2010-05-29 20:59:03'
p128
sg25
S'15/B'
p129
sa(dp130
g21
g35
sg23
S'2010-05-29 22:24:56'
p131
sg25
S'15/C'
p132
sa(dp133
g21
g28
sg23
S'2010-05-29 22:26:44'
p134
sg25
S'15/E'
p135
sa(dp136
g21
g28
sg23
S'2010-06-28 19:10:18'
p137
sg25
S'21/A'
p138
sa(dp139
g21
g28
sg23
S'2010-06-28 19:00:00'
p140
sg25
S'21/B'
p141
sa(dp142
g21
g28
sg23
S'2010-06-28 18:55:03'
p143
sg25
S'21/C'
p144
sa(dp145
g21
g73
sg23
S'2010-06-28 18:47:27'
p146
sg25
S'21/D'
p147
sa(dp148
g21
g28
sg23
S'2010-10-19 17:15:14'
p149
sg25
S'36/A'
p150
sa(dp151
g21
g28
sg23
S'2010-10-19 17:11:59'
p152
sg25
S'36/B'
p153
sa(dp154
g21
g28
sg23
S'2010-10-19 17:04:06'
p155
sg25
S'36/C'
p156
sa(dp157
g21
g73
sg23
S'2010-10-19 16:53:06'
p158
sg25
S'36/D'
p159
sa(dp160
g21
g28
sg23
S'2010-10-19 16:24:42'
p161
sg25
S'36/E'
p162
sa(dp163
g21
g28
sg23
S'2010-11-05 21:33:25'
p164
sg25
S'40/A'
p165
sa(dp166
g21
g28
sg23
S'2010-11-05 21:39:08'
p167
sg25
S'40/B'
p168
sa(dp169
g21
S'4'
p170
sg23
S'2010-11-05 22:55:35'
p171
sg25
S'40/C'
p172
sa(dp173
g21
g28
sg23
S'2010-11-05 22:25:55'
p174
sg25
S'40/D'
p175
sa(dp176
g21
g28
sg23
S'2010-11-05 22:38:37'
p177
sg25
S'40/E'
p178
sa(dp179
g21
g28
sg23
S'2010-12-05 13:32:26'
p180
sg25
S'46/A'
p181
sa(dp182
g21
g28
sg23
S'2010-12-05 13:36:41'
p183
sg25
S'46/B'
p184
sa(dp185
g21
g28
sg23
S'2010-12-05 13:40:34'
p186
sg25
S'46/C'
p187
sa(dp188
g21
g73
sg23
S'2010-12-05 13:50:03'
p189
sg25
S'46/D'
p190
sa(dp191
g21
g28
sg23
S'2010-12-05 13:56:55'
p192
sg25
S'46/E'
p193
sa(dp194
g21
g28
sg23
S'2010-12-05 14:33:20'
p195
sg25
S'46/F'
p196
sa(dp197
g21
g73
sg23
S'2010-12-05 17:45:33'
p198
sg25
S'46/G'
p199
sa(dp200
g21
g28
sg23
S'2010-12-20 21:51:51'
p201
sg25
S'50/A'
p202
sa(dp203
g21
g28
sg23
S'2010-12-20 21:53:27'
p204
sg25
S'50/B'
p205
sa(dp206
g21
g28
sg23
S'2010-12-20 22:38:49'
p207
sg25
S'50/C'
p208
sa(dp209
g21
g28
sg23
S'2010-12-20 22:11:11'
p210
sg25
S'50/D'
p211
sa(dp212
g21
g28
sg23
S'2010-12-20 22:29:33'
p213
sg25
S'50/E'
p214
sa(dp215
g21
g28
sg23
S'2010-12-28 21:34:06'
p216
sg25
S'51/A'
p217
sa(dp218
g21
g28
sg23
S'2010-12-28 21:42:47'
p219
sg25
S'51/B'
p220
sa(dp221
g21
g28
sg23
S'2010-12-28 22:08:21'
p222
sg25
S'51/D'
p223
sa(dp224
g21
g28
sg23
S'2010-12-28 23:08:33'
p225
sg25
S'51/E'
p226
sa(dp227
g21
g28
sg23
S'2011-01-11 13:47:40'
p228
sg25
S'54/A'
p229
sa(dp230
g21
g73
sg23
S'2011-01-11 16:23:29'
p231
sg25
S'54/B'
p232
sa(dp233
g21
g28
sg23
S'2011-01-11 14:28:55'
p234
sg25
S'54/C'
p235
sa(dp236
g21
g73
sg23
S'2011-01-11 14:41:01'
p237
sg25
S'54/D'
p238
sa(dp239
g21
g73
sg23
S'2011-01-11 16:23:10'
p240
sg25
S'54/E'
p241
sa(dp242
g21
g28
sg23
S'2011-01-14 13:33:37'
p243
sg25
S'55/A'
p244
sa(dp245
g21
g28
sg23
S'2011-01-14 13:39:28'
p246
sg25
S'55/B'
p247
sa(dp248
g21
g28
sg23
S'2011-01-14 13:47:47'
p249
sg25
S'55/C'
p250
sa(dp251
g21
g28
sg23
S'2011-01-14 14:50:05'
p252
sg25
S'55/E'
p253
sa(dp254
g21
g28
sg23
S'2011-03-18 21:33:39'
p255
sg25
S'68/A'
p256
sa(dp257
g21
g28
sg23
S'2011-03-18 21:41:46'
p258
sg25
S'68/B'
p259
sa(dp260
g21
g28
sg23
S'2011-03-18 22:14:44'
p261
sg25
S'68/D'
p262
sa(dp263
g21
g28
sg23
S'2011-03-26 21:32:46'
p264
sg25
S'70/A'
p265
sa(dp266
g21
g28
sg23
S'2011-03-26 21:38:02'
p267
sg25
S'70/B'
p268
sa(dp269
g21
g28
sg23
S'2011-03-26 23:13:50'
p270
sg25
S'70/C'
p271
sa(dp272
g21
g28
sg23
S'2011-03-26 22:05:04'
p273
sg25
S'70/D'
p274
sa(dp275
g21
g28
sg23
S'2011-03-26 22:55:47'
p276
sg25
S'70/E'
p277
sa(dp278
g21
g28
sg23
S'2011-04-10 13:34:36'
p279
sg25
S'73/A'
p280
sa(dp281
g21
g35
sg23
S'2011-04-10 14:42:17'
p282
sg25
S'73/B'
p283
sa(dp284
g21
g73
sg23
S'2011-04-11 00:19:53'
p285
sg25
S'73/C'
p286
sa(dp287
g21
g28
sg23
S'2011-04-10 14:12:14'
p288
sg25
S'73/D'
p289
sa(dp290
g21
g73
sg23
S'2011-04-11 00:21:05'
p291
sg25
S'73/E'
p292
sa(dp293
g21
g35
sg23
S'2011-04-11 00:18:51'
p294
sg25
S'73/F'
p295
sa(dp296
g21
g28
sg23
S'2011-04-30 20:36:42'
p297
sg25
S'79/A'
p298
sa(dp299
g21
g28
sg23
S'2011-04-30 20:43:02'
p300
sg25
S'79/B'
p301
sa(dp302
g21
g28
sg23
S'2011-04-30 21:05:38'
p303
sg25
S'79/C'
p304
sa(dp305
g21
g28
sg23
S'2011-04-30 21:58:53'
p306
sg25
S'79/E'
p307
sa(dp308
g21
g28
sg23
S'2011-05-04 10:56:53'
p309
sg25
S'81/A'
p310
sa(dp311
g21
g28
sg23
S'2011-05-04 11:04:26'
p312
sg25
S'81/B'
p313
sa(dp314
g21
g28
sg23
S'2011-05-04 10:43:32'
p315
sg25
S'81/D'
p316
sa(dp317
g21
g28
sg23
S'2011-05-04 12:00:08'
p318
sg25
S'81/E'
p319
sa(dp320
g21
g73
sg23
S'2011-05-20 20:39:56'
p321
sg25
S'85/A'
p322
sa(dp323
g21
g28
sg23
S'2011-05-20 21:14:48'
p324
sg25
S'85/B'
p325
sa(dp326
g21
g73
sg23
S'2011-05-20 21:53:51'
p327
sg25
S'85/C'
p328
sa(dp329
g21
g28
sg23
S'2011-05-20 21:04:06'
p330
sg25
S'85/D'
p331
sa(dp332
g21
g28
sg23
S'2011-05-20 22:17:00'
p333
sg25
S'85/E'
p334
sa(dp335
g21
g28
sg23
S'2011-05-22 20:45:18'
p336
sg25
S'86/A'
p337
sa(dp338
g21
g28
sg23
S'2011-05-22 21:49:03'
p339
sg25
S'86/C'
p340
sa(dp341
g21
g28
sg23
S'2011-05-22 22:28:44'
p342
sg25
S'86/D'
p343
sa(dp344
g21
g28
sg23
S'2011-05-22 21:30:00'
p345
sg25
S'86/E'
p346
sa(dp347
g21
g28
sg23
S'2011-06-07 22:25:26'
p348
sg25
S'87/A'
p349
sa(dp350
g21
g28
sg23
S'2011-06-07 22:20:26'
p351
sg25
S'87/B'
p352
sa(dp353
g21
g28
sg23
S'2011-06-07 20:56:01'
p354
sg25
S'87/C'
p355
sa(dp356
g21
g73
sg23
S'2011-06-07 21:39:34'
p357
sg25
S'87/D'
p358
sa(dp359
g21
g28
sg23
S'2011-06-07 22:10:20'
p360
sg25
S'87/E'
p361
sa(dp362
g21
g28
sg23
S'2011-07-08 20:37:00'
p363
sg25
S'95/A'
p364
sa(dp365
g21
g28
sg23
S'2011-07-08 20:53:34'
p366
sg25
S'95/B'
p367
sa(dp368
g21
g28
sg23
S'2011-07-08 21:57:46'
p369
sg25
S'95/C'
p370
sa(dp371
g21
g28
sg23
S'2011-07-08 22:14:25'
p372
sg25
S'95/D'
p373
sa(dp374
g21
g73
sg23
S'2011-07-08 23:10:30'
p375
sg25
S'95/E'
p376
sa(dp377
g21
S'6'
p378
sg23
S'2011-07-16 11:11:47'
p379
sg25
S'97/A'
p380
sa(dp381
g21
g28
sg23
S'2011-07-15 17:40:28'
p382
sg25
S'97/B'
p383
sa(dp384
g21
g28
sg23
S'2011-07-15 17:59:21'
p385
sg25
S'97/C'
p386
sa(dp387
g21
g28
sg23
S'2011-07-15 18:49:31'
p388
sg25
S'97/D'
p389
sa(dp390
g21
g28
sg23
S'2011-07-22 22:27:29'
p391
sg25
S'98/A'
p392
sa(dp393
g21
g73
sg23
S'2011-07-22 21:50:58'
p394
sg25
S'98/C'
p395
sa(dp396
g21
g28
sg23
S'2011-07-22 20:53:17'
p397
sg25
S'98/D'
p398
sa(dp399
g21
g28
sg23
S'2011-07-22 22:16:24'
p400
sg25
S'98/E'
p401
sa(dp402
g21
g28
sg23
S'2011-08-29 22:14:19'
p403
sg25
S'109/A'
p404
sa(dp405
g21
g28
sg23
S'2011-08-29 22:50:06'
p406
sg25
S'109/B'
p407
sa(dp408
g21
g28
sg23
S'2011-08-29 23:08:30'
p409
sg25
S'109/C'
p410
sa(dp411
g21
g28
sg23
S'2011-08-29 22:36:07'
p412
sg25
S'109/D'
p413
sa(dp414
g21
g28
sg23
S'2011-08-29 22:11:10'
p415
sg25
S'109/E'
p416
sa(dp417
g21
g28
sg23
S'2011-09-15 20:33:43'
p418
sg25
S'115/A'
p419
sa(dp420
g21
g28
sg23
S'2011-09-15 20:39:19'
p421
sg25
S'115/B'
p422
sa(dp423
g21
g28
sg23
S'2011-09-15 22:04:46'
p424
sg25
S'115/C'
p425
sa(dp426
g21
g28
sg23
S'2011-09-15 21:33:18'
p427
sg25
S'115/D'
p428
sa(dp429
g21
g28
sg23
S'2011-09-15 21:50:57'
p430
sg25
S'115/E'
p431
sa(dp432
g21
g28
sg23
S'2011-10-27 20:33:36'
p433
sg25
S'121/A'
p434
sa(dp435
g21
g28
sg23
S'2011-10-27 20:52:47'
p436
sg25
S'121/B'
p437
sa(dp438
g21
g73
sg23
S'2011-10-27 20:47:10'
p439
sg25
S'121/C'
p440
sa(dp441
g21
g28
sg23
S'2011-10-27 21:47:45'
p442
sg25
S'121/D'
p443
sa(dp444
g21
g73
sg23
S'2011-10-27 22:21:24'
p445
sg25
S'121/E'
p446
sa(dp447
g21
g28
sg23
S'2011-11-03 20:49:49'
p448
sg25
S'123/A'
p449
sa(dp450
g21
g28
sg23
S'2011-11-03 20:54:01'
p451
sg25
S'123/B'
p452
sa(dp453
g21
g28
sg23
S'2011-11-03 21:55:23'
p454
sg25
S'123/C'
p455
sa(dp456
g21
g28
sg23
S'2011-11-03 21:41:16'
p457
sg25
S'123/D'
p458
sa(dp459
g21
g73
sg23
S'2011-11-04 00:31:38'
p460
sg25
S'123/E'
p461
sa(dp462
g21
g28
sg23
S'2012-01-04 20:33:48'
p463
sg25
S'140/A'
p464
sa(dp465
g21
g28
sg23
S'2012-01-04 20:42:57'
p466
sg25
S'140/B'
p467
sa(dp468
g21
g28
sg23
S'2012-01-04 21:04:05'
p469
sg25
S'140/C'
p470
sa(dp471
g21
g28
sg23
S'2012-01-04 21:07:47'
p472
sg25
S'140/D'
p473
sa(dp474
g21
g28
sg23
S'2012-01-04 22:27:17'
p475
sg25
S'140/E'
p476
sa(dp477
g21
g73
sg23
S'2012-01-04 21:42:10'
p478
sg25
S'140/F'
p479
sa(dp480
g21
g28
sg23
S'2012-02-17 20:33:44'
p481
sg25
S'150/A'
p482
sa(dp483
g21
g28
sg23
S'2012-02-17 20:37:19'
p484
sg25
S'150/B'
p485
sa(dp486
g21
g28
sg23
S'2012-02-17 21:21:31'
p487
sg25
S'150/C'
p488
sa(dp489
g21
g73
sg23
S'2012-02-17 21:53:20'
p490
sg25
S'150/D'
p491
sa(dp492
g21
g28
sg23
S'2012-04-04 09:34:05'
p493
sg25
S'172/A'
p494
sa(dp495
g21
g28
sg23
S'2012-04-04 09:39:15'
p496
sg25
S'172/B'
p497
sa(dp498
g21
g28
sg23
S'2012-04-04 09:51:54'
p499
sg25
S'172/C'
p500
sa(dp501
g21
g28
sg23
S'2012-04-04 09:59:21'
p502
sg25
S'172/D'
p503
sa(dp504
g21
g28
sg23
S'2012-04-04 10:20:50'
p505
sg25
S'172/E'
p506
sa(dp507
g21
g28
sg23
S'2012-04-06 20:35:56'
p508
sg25
S'173/A'
p509
sa(dp510
g21
g28
sg23
S'2012-04-06 20:48:10'
p511
sg25
S'173/B'
p512
sa(dp513
g21
g73
sg23
S'2012-04-06 21:12:46'
p514
sg25
S'173/C'
p515
sa(dp516
g21
g28
sg23
S'2012-04-06 22:28:47'
p517
sg25
S'173/D'
p518
sa(dp519
g21
g28
sg23
S'2012-04-06 21:53:43'
p520
sg25
S'173/E'
p521
sa(dp522
g21
g28
sg23
S'2012-05-25 21:06:23'
p523
sg25
S'188/A'
p524
sa(dp525
g21
g73
sg23
S'2012-05-25 21:15:01'
p526
sg25
S'188/B'
p527
sa(dp528
g21
g28
sg23
S'2012-05-25 21:17:13'
p529
sg25
S'188/C'
p530
sa(dp531
g21
g28
sg23
S'2012-05-25 21:20:34'
p532
sg25
S'188/D'
p533
sa(dp534
g21
g28
sg23
S'2012-05-25 21:29:03'
p535
sg25
S'188/E'
p536
sa(dp537
g21
g28
sg23
S'2012-05-25 21:24:01'
p538
sg25
S'188/F'
p539
sa(dp540
g21
g28
sg23
S'2012-05-25 21:36:18'
p541
sg25
S'188/G'
p542
sa(dp543
g21
g28
sg23
S'2012-05-25 21:41:20'
p544
sg25
S'188/H'
p545
sa(dp546
g21
g28
sg23
S'2012-06-03 21:06:29'
p547
sg25
S'193/A'
p548
sa(dp549
g21
g28
sg23
S'2012-06-03 21:47:28'
p550
sg25
S'193/B'
p551
sa(dp552
g21
g28
sg23
S'2012-06-03 21:35:46'
p553
sg25
S'193/C'
p554
sa(dp555
g21
g28
sg23
S'2012-06-03 22:56:21'
p556
sg25
S'193/D'
p557
sa(dp558
g21
g28
sg23
S'2012-06-03 22:26:37'
p559
sg25
S'193/E'
p560
sa(dp561
g21
g28
sg23
S'2012-06-12 18:32:20'
p562
sg25
S'196/A'
p563
sa(dp564
g21
g28
sg23
S'2012-06-12 18:42:24'
p565
sg25
S'196/B'
p566
sa(dp567
g21
S'9'
p568
sg23
S'2012-06-12 20:01:09'
p569
sg25
S'196/C'
p570
sa(dp571
g21
g73
sg23
S'2012-06-12 20:52:23'
p572
sg25
S'196/D'
p573
sa(dp574
g21
g22
sg23
S'2012-06-13 18:33:33'
p575
sg25
S'196/E'
p576
sa(dp577
g21
g28
sg23
S'2012-06-22 21:03:51'
p578
sg25
S'198/A'
p579
sa(dp580
g21
g28
sg23
S'2012-06-22 21:10:06'
p581
sg25
S'198/B'
p582
sa(dp583
g21
g28
sg23
S'2012-06-22 22:59:58'
p584
sg25
S'198/C'
p585
sa(dp586
g21
g28
sg23
S'2012-06-22 22:47:24'
p587
sg25
S'198/D'
p588
sa(dp589
g21
g28
sg23
S'2012-06-22 21:56:10'
p590
sg25
S'198/E'
p591
sa(dp592
g21
g28
sg23
S'2012-07-30 22:52:06'
p593
sg25
S'213/A'
p594
sa(dp595
g21
g28
sg23
S'2012-07-30 21:11:58'
p596
sg25
S'213/B'
p597
sa(dp598
g21
g28
sg23
S'2012-07-30 22:02:42'
p599
sg25
S'213/C'
p600
sa(dp601
g21
g170
sg23
S'2012-07-30 21:43:28'
p602
sg25
S'213/D'
p603
sa(dp604
g21
g28
sg23
S'2012-07-30 22:44:12'
p605
sg25
S'213/E'
p606
sa(dp607
g21
g28
sg23
S'2012-08-18 14:33:31'
p608
sg25
S'217/A'
p609
sa(dp610
g21
g73
sg23
S'2012-08-18 12:46:30'
p611
sg25
S'217/B'
p612
sa(dp613
g21
g73
sg23
S'2012-08-18 15:27:24'
p614
sg25
S'217/C'
p615
sa(dp616
g21
g73
sg23
S'2012-08-18 14:29:56'
p617
sg25
S'217/D'
p618
sa(dp619
g21
g73
sg23
S'2012-09-16 21:29:32'
p620
sg25
S'223/A'
p621
sa(dp622
g21
g28
sg23
S'2012-09-16 21:09:46'
p623
sg25
S'223/B'
p624
sa(dp625
g21
g28
sg23
S'2012-09-16 21:16:56'
p626
sg25
S'223/C'
p627
sa(dp628
g21
g73
sg23
S'2012-09-16 23:52:35'
p629
sg25
S'223/D'
p630
sa(dp631
g21
g28
sg23
S'2012-10-21 12:42:50'
p632
sg25
S'235/A'
p633
sa(dp634
g21
g28
sg23
S'2012-10-21 12:47:16'
p635
sg25
S'235/B'
p636
sa(dp637
g21
g28
sg23
S'2012-10-21 14:01:54'
p638
sg25
S'235/D'
p639
sa(dp640
g21
g73
sg23
S'2012-10-21 20:56:08'
p641
sg25
S'235/E'
p642
sa(dp643
g21
g28
sg23
S'2012-11-16 21:30:35'
p644
sg25
S'243/A'
p645
sa(dp646
g21
g28
sg23
S'2012-11-16 21:22:00'
p647
sg25
S'243/C'
p648
sa(dp649
g21
g28
sg23
S'2012-12-06 21:07:55'
p650
sg25
S'251/A'
p651
sa(dp652
g21
g28
sg23
S'2012-12-06 21:17:43'
p653
sg25
S'251/B'
p654
sa(dp655
g21
g28
sg23
S'2012-12-06 21:33:38'
p656
sg25
S'251/C'
p657
sa(dp658
g21
g378
sg23
S'2012-12-07 02:47:24'
p659
sg25
S'251/D'
p660
sa(dp661
g21
g28
sg23
S'2012-12-22 21:02:56'
p662
sg25
S'258/A'
p663
sa(dp664
g21
g73
sg23
S'2012-12-22 22:50:12'
p665
sg25
S'258/B'
p666
sa(dp667
g21
g28
sg23
S'2012-12-22 22:27:01'
p668
sg25
S'258/C'
p669
sa(dp670
g21
g28
sg23
S'2012-12-22 22:41:53'
p671
sg25
S'258/D'
p672
sa(dp673
g21
g28
sg23
S'2012-12-22 21:52:48'
p674
sg25
S'258/E'
p675
sa(dp676
g21
g28
sg23
S'2013-01-13 21:05:21'
p677
sg25
S'261/A'
p678
sa(dp679
g21
g73
sg23
S'2013-01-13 21:17:38'
p680
sg25
S'261/B'
p681
sa(dp682
g21
g28
sg23
S'2013-01-13 21:34:33'
p683
sg25
S'261/C'
p684
sa(dp685
g21
g28
sg23
S'2013-01-20 18:33:34'
p686
sg25
S'264/A'
p687
sa(dp688
g21
g28
sg23
S'2013-01-20 18:38:59'
p689
sg25
S'264/B'
p690
sa(dp691
g21
g35
sg23
S'2013-01-20 19:02:06'
p692
sg25
S'264/C'
p693
sa(dp694
g21
g28
sg23
S'2013-01-20 19:33:27'
p695
sg25
S'264/D'
p696
sa(dp697
g21
g73
sg23
S'2013-02-01 21:12:33'
p698
sg25
S'269/A'
p699
sa(dp700
g21
g28
sg23
S'2013-02-01 22:17:51'
p701
sg25
S'269/B'
p702
sa(dp703
g21
g73
sg23
S'2013-02-01 22:47:54'
p704
sg25
S'269/C'
p705
sa(dp706
g21
g73
sg23
S'2013-02-01 22:41:03'
p707
sg25
S'269/D'
p708
sa(dp709
g21
g28
sg23
S'2013-02-20 21:04:37'
p710
sg25
S'274/A'
p711
sa(dp712
g21
g28
sg23
S'2013-02-20 21:13:49'
p713
sg25
S'274/B'
p714
sa(dp715
g21
g73
sg23
S'2013-02-20 21:59:10'
p716
sg25
S'274/C'
p717
sa(dp718
g21
g28
sg23
S'2013-02-20 22:19:17'
p719
sg25
S'274/D'
p720
sa(dp721
g21
g73
sg23
S'2013-02-20 23:43:44'
p722
sg25
S'274/E'
p723
sa(dp724
g21
g28
sg23
S'2013-02-28 21:05:23'
p725
sg25
S'277/A'
p726
sa(dp727
g21
g35
sg23
S'2013-02-28 21:49:04'
p728
sg25
S'277/C'
p729
sa(dp730
g21
g28
sg23
S'2013-02-28 22:40:16'
p731
sg25
S'277/D'
p732
sa(dp733
g21
g28
sg23
S'2013-02-28 22:12:08'
p734
sg25
S'277/E'
p735
sa(dp736
g21
g28
sg23
S'2013-03-10 22:12:04'
p737
sg25
S'280/A'
p738
sa(dp739
g21
g28
sg23
S'2013-03-10 21:26:38'
p740
sg25
S'280/B'
p741
sa(dp742
g21
g28
sg23
S'2013-03-10 21:10:02'
p743
sg25
S'280/C'
p744
sa(dp745
g21
g28
sg23
S'2013-04-13 09:45:41'
p746
sg25
S'291/A'
p747
sa(dp748
g21
g28
sg23
S'2013-04-13 09:52:32'
p749
sg25
S'291/B'
p750
sa(dp751
g21
g28
sg23
S'2013-04-13 10:02:57'
p752
sg25
S'291/C'
p753
sa(dp754
g21
g28
sg23
S'2013-04-13 10:11:00'
p755
sg25
S'291/D'
p756
sa(dp757
g21
g28
sg23
S'2013-04-13 10:34:59'
p758
sg25
S'291/E'
p759
sa(dp760
g21
g28
sg23
S'2013-04-15 21:14:58'
p761
sg25
S'292/A'
p762
sa(dp763
g21
g28
sg23
S'2013-04-15 21:11:08'
p764
sg25
S'292/B'
p765
sa(dp766
g21
g28
sg23
S'2013-04-15 21:32:14'
p767
sg25
S'292/C'
p768
sa(dp769
g21
g28
sg23
S'2013-04-15 21:53:16'
p770
sg25
S'292/D'
p771
sa(dp772
g21
g28
sg23
S'2013-04-15 21:44:33'
p773
sg25
S'292/E'
p774
sa(dp775
g21
g28
sg23
S'2013-04-22 23:13:32'
p776
sg25
S'293/A'
p777
sa(dp778
g21
g28
sg23
S'2013-05-12 18:34:30'
p779
sg25
S'303/A'
p780
sa(dp781
g21
g28
sg23
S'2013-05-12 18:51:34'
p782
sg25
S'303/B'
p783
sa(dp784
g21
g28
sg23
S'2013-05-12 19:18:35'
p785
sg25
S'303/D'
p786
sa(dp787
g21
g28
sg23
S'2013-06-12 18:37:09'
p788
sg25
S'316/A1'
p789
sa(dp790
g21
g28
sg23
S'2013-06-12 18:37:34'
p791
sg25
S'316/A2'
p792
sa(dp793
g21
g28
sg23
S'2013-06-12 19:16:13'
p794
sg25
S'316/B1'
p795
sa(dp796
g21
g28
sg23
S'2013-06-12 19:16:35'
p797
sg25
S'316/B2'
p798
sa(dp799
g21
g42
sg23
S'2013-06-12 19:29:06'
p800
sg25
S'316/C1'
p801
sa(dp802
g21
g28
sg23
S'2013-06-12 19:08:14'
p803
sg25
S'316/D1'
p804
sa(dp805
g21
g28
sg23
S'2013-06-12 19:19:36'
p806
sg25
S'316/D2'
p807
sa(dp808
g21
g28
sg23
S'2013-06-12 19:19:47'
p809
sg25
S'316/D3'
p810
sa(dp811
g21
g73
sg23
S'2013-06-12 20:14:01'
p812
sg25
S'316/E1'
p813
sa(dp814
g21
g28
sg23
S'2013-06-12 20:51:41'
p815
sg25
S'316/E2'
p816
sa(dp817
g21
g28
sg23
S'2013-06-12 21:09:15'
p818
sg25
S'316/E3'
p819
sa(dp820
g21
g35
sg23
S'2013-06-12 20:21:42'
p821
sg25
S'316/F1'
p822
sa(dp823
g21
g28
sg23
S'2013-06-12 20:22:01'
p824
sg25
S'316/F2'
p825
sa(dp826
g21
g35
sg23
S'2013-06-12 20:24:54'
p827
sg25
S'316/F3'
p828
sa(dp829
g21
g28
sg23
S'2013-06-12 21:39:26'
p830
sg25
S'316/G1'
p831
sa(dp832
g21
g28
sg23
S'2013-06-12 21:39:46'
p833
sg25
S'316/G2'
p834
sa(dp835
g21
g28
sg23
S'2013-06-23 18:34:21'
p836
sg25
S'319/A'
p837
sa(dp838
g21
g28
sg23
S'2013-06-23 19:16:17'
p839
sg25
S'319/B'
p840
sa(dp841
g21
g378
sg23
S'2013-06-23 19:58:35'
p842
sg25
S'319/C'
p843
sa(dp844
g21
g42
sg23
S'2013-06-23 21:41:26'
p845
sg25
S'319/E'
p846
sa(dp847
g21
g28
sg23
S'2013-07-17 12:54:39'
p848
sg25
S'324/A1'
p849
sa(dp850
g21
g28
sg23
S'2013-07-17 12:55:32'
p851
sg25
S'324/A2'
p852
sa(dp853
g21
g28
sg23
S'2013-07-17 13:05:25'
p854
sg25
S'324/B1'
p855
sa(dp856
g21
g28
sg23
S'2013-07-17 13:05:41'
p857
sg25
S'324/B2'
p858
sa(dp859
g21
g28
sg23
S'2013-07-17 12:15:11'
p860
sg25
S'324/C1'
p861
sa(dp862
g21
g28
sg23
S'2013-07-17 12:45:49'
p863
sg25
S'324/C2'
p864
sa(dp865
g21
g28
sg23
S'2013-07-17 12:48:20'
p866
sg25
S'324/C3'
p867
sa(dp868
g21
g28
sg23
S'2013-07-13 22:33:29'
p869
sg25
S'325/A'
p870
sa(dp871
g21
g28
sg23
S'2013-07-13 22:42:19'
p872
sg25
S'325/B'
p873
sa(dp874
g21
g73
sg23
S'2013-07-13 23:46:18'
p875
sg25
S'325/C'
p876
sa(dp877
g21
g35
sg23
S'2013-07-14 03:20:14'
p878
sg25
S'325/D'
p879
sa(dp880
g21
g28
sg23
S'2013-08-03 22:35:28'
p881
sg25
S'326/A'
p882
sa(dp883
g21
g35
sg23
S'2013-08-03 22:53:55'
p884
sg25
S'326/B'
p885
sa(dp886
g21
g28
sg23
S'2013-08-04 00:57:58'
p887
sg25
S'326/C'
p888
sa(dp889
g21
g73
sg23
S'2013-08-04 00:41:21'
p890
sg25
S'326/D'
p891
sa(dp892
g21
g28
sg23
S'2013-08-03 23:51:47'
p893
sg25
S'326/E'
p894
sa(dp895
g21
g28
sg23
S'2013-07-20 19:08:18'
p896
sg25
S'329/A'
p897
sa(dp898
g21
g28
sg23
S'2013-07-20 19:54:09'
p899
sg25
S'329/B'
p900
sa(dp901
g21
g170
sg23
S'2013-07-20 19:42:22'
p902
sg25
S'329/C'
p903
sa(dp904
g21
g73
sg23
S'2013-07-20 20:14:49'
p905
sg25
S'329/D'
p906
sa(dp907
g21
g28
sg23
S'2013-07-17 23:58:53'
p908
sg25
S'331/D1'
p909
sa(dp910
g21
g28
sg23
S'2013-07-17 23:57:59'
p911
sg25
S'331/D2'
p912
sa(dp913
g21
g28
sg23
S'2013-07-17 23:58:20'
p914
sg25
S'331/D3'
p915
sa(dp916
g21
g28
sg23
S'2013-09-14 21:01:56'
p917
sg25
S'343/A'
p918
sa(dp919
g21
g28
sg23
S'2013-09-14 21:07:00'
p920
sg25
S'343/B'
p921
sa(dp922
g21
g73
sg23
S'2013-09-14 21:15:46'
p923
sg25
S'343/C'
p924
sa(dp925
g21
g73
sg23
S'2013-09-14 21:38:37'
p926
sg25
S'343/D'
p927
sa(dp928
g21
g170
sg23
S'2013-09-15 19:53:08'
p929
sg25
S'343/E'
p930
sa(dp931
g21
g28
sg23
S'2013-09-20 21:02:14'
p932
sg25
S'346/A'
p933
sa(dp934
g21
g28
sg23
S'2013-09-20 21:17:18'
p935
sg25
S'346/B'
p936
sa(dp937
g21
g28
sg23
S'2013-09-20 22:04:52'
p938
sg25
S'346/D'
p939
sa(dp940
g21
g35
sg23
S'2013-09-20 23:48:05'
p941
sg25
S'346/E'
p942
sa(dp943
g21
g28
sg23
S'2013-10-04 21:08:02'
p944
sg25
S'351/B'
p945
sa(dp946
g21
g28
sg23
S'2013-10-04 21:26:57'
p947
sg25
S'351/C'
p948
sa(dp949
g21
g35
sg23
S'2013-10-04 23:18:14'
p950
sg25
S'351/D'
p951
sa(dp952
g21
g28
sg23
S'2013-11-19 22:00:39'
p953
sg25
S'364/A'
p954
sa(dp955
g21
g28
sg23
S'2013-11-19 21:55:32'
p956
sg25
S'364/B'
p957
sa(dp958
g21
g28
sg23
S'2013-11-19 21:50:09'
p959
sg25
S'364/C'
p960
sa(dp961
g21
g22
sg23
S'2013-11-20 03:36:46'
p962
sg25
S'364/D'
p963
sa(dp964
g21
g28
sg23
S'2013-11-26 21:05:44'
p965
sg25
S'367/A'
p966
sa(dp967
g21
g28
sg23
S'2013-11-26 21:21:30'
p968
sg25
S'367/B'
p969
sa(dp970
g21
g28
sg23
S'2013-11-26 21:30:20'
p971
sg25
S'367/C'
p972
sa(dp973
g21
g28
sg23
S'2013-11-26 21:55:30'
p974
sg25
S'367/D'
p975
sa(dp976
g21
g28
sg23
S'2013-11-26 21:47:55'
p977
sg25
S'367/E'
p978
sa(dp979
g21
g28
sg23
S'2013-12-13 19:40:04'
p980
sg25
S'372/A'
p981
sa(dp982
g21
g28
sg23
S'2013-12-13 19:56:22'
p983
sg25
S'372/B'
p984
sa(dp985
g21
g28
sg23
S'2013-12-13 21:14:49'
p986
sg25
S'372/C'
p987
sa(dp988
g21
g28
sg23
S'2013-12-29 21:06:37'
p989
sg25
S'377/A'
p990
sa(dp991
g21
g28
sg23
S'2013-12-29 21:19:18'
p992
sg25
S'377/B'
p993
sa(dp994
g21
g35
sg23
S'2013-12-29 22:58:56'
p995
sg25
S'377/C'
p996
sa(dp997
g21
g28
sg23
S'2013-12-29 22:44:21'
p998
sg25
S'377/D'
p999
sa(dp1000
g21
g73
sg23
S'2013-12-29 22:20:46'
p1001
sg25
S'377/E'
p1002
sa(dp1003
g21
g28
sg23
S'2013-12-30 21:02:21'
p1004
sg25
S'379/A'
p1005
sa(dp1006
g21
g28
sg23
S'2013-12-30 21:05:27'
p1007
sg25
S'379/B'
p1008
sa(dp1009
g21
g28
sg23
S'2013-12-30 21:08:37'
p1010
sg25
S'379/C'
p1011
sa(dp1012
g21
g28
sg23
S'2013-12-30 21:22:16'
p1013
sg25
S'379/D'
p1014
sa(dp1015
g21
g28
sg23
S'2013-12-30 21:53:20'
p1016
sg25
S'379/E'
p1017
sa(dp1018
g21
g28
sg23
S'2013-12-31 01:15:28'
p1019
sg25
S'379/F'
p1020
sa(dp1021
g21
g28
sg23
S'2013-12-31 02:15:50'
p1022
sg25
S'379/G'
p1023
sa(dp1024
g21
g28
sg23
S'2014-01-12 22:57:28'
p1025
sg25
S'380/A'
p1026
sa(dp1027
g21
g28
sg23
S'2014-01-12 22:44:23'
p1028
sg25
S'380/B'
p1029
sa(dp1030
g21
g28
sg23
S'2014-01-12 21:09:52'
p1031
sg25
S'380/C'
p1032
sa(dp1033
g21
g28
sg23
S'2014-01-12 21:29:33'
p1034
sg25
S'380/D'
p1035
sa(dp1036
g21
g28
sg23
S'2014-01-12 22:07:09'
p1037
sg25
S'380/E'
p1038
sa(dp1039
g21
g28
sg23
S'2014-02-03 21:12:58'
p1040
sg25
S'388/A'
p1041
sa(dp1042
g21
g28
sg23
S'2014-02-03 21:20:55'
p1043
sg25
S'388/B'
p1044
sa(dp1045
g21
g28
sg23
S'2014-02-03 21:26:45'
p1046
sg25
S'388/C'
p1047
sa(dp1048
g21
g35
sg23
S'2014-02-03 23:02:26'
p1049
sg25
S'388/D'
p1050
sa(dp1051
g21
g73
sg23
S'2014-02-04 00:09:17'
p1052
sg25
S'388/E'
p1053
sa(dp1054
g21
g28
sg23
S'2014-03-16 21:53:43'
p1055
sg25
S'403/A'
p1056
sa(dp1057
g21
g28
sg23
S'2014-03-16 21:41:05'
p1058
sg25
S'403/B'
p1059
sa(dp1060
g21
g73
sg23
S'2014-03-16 23:30:09'
p1061
sg25
S'403/C'
p1062
sa(dp1063
g21
g28
sg23
S'2014-03-16 21:18:03'
p1064
sg25
S'403/D'
p1065
sa(dp1066
g21
g170
sg23
S'2014-03-16 23:57:47'
p1067
sg25
S'403/E'
p1068
sa(dp1069
g21
g28
sg23
S'2014-03-30 12:42:23'
p1070
sg25
S'407/A'
p1071
sa(dp1072
g21
g28
sg23
S'2014-03-30 12:48:05'
p1073
sg25
S'407/B'
p1074
sa(dp1075
g21
g28
sg23
S'2014-03-30 13:26:35'
p1076
sg25
S'407/C'
p1077
sa(dp1078
g21
g170
sg23
S'2014-03-30 16:34:39'
p1079
sg25
S'407/D'
p1080
sa(dp1081
g21
g73
sg23
S'2014-04-01 22:32:38'
p1082
sg25
S'409/A'
p1083
sa(dp1084
g21
g35
sg23
S'2014-04-01 21:56:05'
p1085
sg25
S'409/B'
p1086
sa(dp1087
g21
g28
sg23
S'2014-04-01 21:04:29'
p1088
sg25
S'409/C'
p1089
sa(dp1090
g21
S'12'
p1091
sg23
S'2014-04-01 22:27:46'
p1092
sg25
S'409/D'
p1093
sa(dp1094
g21
g28
sg23
S'2014-04-01 21:43:40'
p1095
sg25
S'409/E'
p1096
sa(dp1097
g21
S'23'
p1098
sg23
S'2014-04-01 22:37:56'
p1099
sg25
S'409/F'
p1100
sa(dp1101
g21
g378
sg23
S'2014-04-01 22:40:25'
p1102
sg25
S'409/H'
p1103
sa(dp1104
g21
g28
sg23
S'2014-04-27 21:08:39'
p1105
sg25
S'425/A'
p1106
sa(dp1107
g21
g28
sg23
S'2014-04-27 21:18:56'
p1108
sg25
S'425/B'
p1109
sa(dp1110
g21
g73
sg23
S'2014-04-27 22:30:21'
p1111
sg25
S'425/C'
p1112
sa(dp1113
g21
g35
sg23
S'2014-04-27 21:58:31'
p1114
sg25
S'425/D'
p1115
sa(dp1116
g21
g28
sg23
S'2014-04-27 22:47:12'
p1117
sg25
S'425/E'
p1118
sa(dp1119
g21
g28
sg23
S'2014-06-13 21:04:14'
p1120
sg25
S'436/A'
p1121
sa(dp1122
g21
g28
sg23
S'2014-06-13 21:10:02'
p1123
sg25
S'436/B'
p1124
sa(dp1125
g21
g28
sg23
S'2014-06-13 21:21:01'
p1126
sg25
S'436/C'
p1127
sa(dp1128
g21
g73
sg23
S'2014-06-14 00:40:38'
p1129
sg25
S'436/E'
p1130
sa(dp1131
g21
g35
sg23
S'2014-06-14 00:40:04'
p1132
sg25
S'436/F'
p1133
sa(dp1134
g21
g28
sg23
S'2014-06-01 18:40:12'
p1135
sg25
S'438/A'
p1136
sa(dp1137
g21
g28
sg23
S'2014-06-01 18:48:31'
p1138
sg25
S'438/B'
p1139
sa(dp1140
g21
g28
sg23
S'2014-06-01 19:23:36'
p1141
sg25
S'438/C'
p1142
sa(dp1143
g21
g28
sg23
S'2014-06-01 19:35:01'
p1144
sg25
S'438/D'
p1145
sa(dp1146
g21
g73
sg23
S'2014-11-14 08:09:55'
p1147
sg25
S'439/D'
p1148
sa(dp1149
g21
g28
sg23
S'2014-07-13 18:55:36'
p1150
sg25
S'446/B'
p1151
sa(dp1152
g21
g73
sg23
S'2014-07-13 19:57:37'
p1153
sg25
S'446/C'
p1154
sa(dp1155
g21
g28
sg23
S'2014-07-27 22:33:29'
p1156
sg25
S'452/A'
p1157
sa(dp1158
g21
g28
sg23
S'2014-07-27 22:43:07'
p1159
sg25
S'452/B'
p1160
sa(dp1161
g21
g73
sg23
S'2014-07-28 00:42:30'
p1162
sg25
S'452/C'
p1163
sa(dp1164
g21
g28
sg23
S'2014-07-27 23:02:36'
p1165
sg25
S'452/D'
p1166
sa(dp1167
g21
g170
sg23
S'2014-07-27 23:50:47'
p1168
sg25
S'452/F'
p1169
sa(dp1170
g21
g28
sg23
S'2014-08-01 21:03:02'
p1171
sg25
S'453/A'
p1172
sa(dp1173
g21
g28
sg23
S'2014-08-01 21:17:25'
p1174
sg25
S'453/B'
p1175
sa(dp1176
g21
g28
sg23
S'2014-08-01 21:33:31'
p1177
sg25
S'453/C'
p1178
sa(dp1179
g21
g28
sg23
S'2014-08-01 22:24:30'
p1180
sg25
S'453/D'
p1181
sa(dp1182
g21
g73
sg23
S'2014-08-10 22:54:19'
p1183
sg25
S'458/A'
p1184
sa(dp1185
g21
g73
sg23
S'2014-08-10 23:52:45'
p1186
sg25
S'458/C'
p1187
sa(dp1188
g21
g28
sg23
S'2014-08-10 23:14:18'
p1189
sg25
S'458/D'
p1190
sa(dp1191
g21
g28
sg23
S'2014-09-07 21:11:01'
p1192
sg25
S'464/A'
p1193
sa(dp1194
g21
g28
sg23
S'2014-09-07 21:42:40'
p1195
sg25
S'464/B'
p1196
sa(dp1197
g21
g28
sg23
S'2014-09-07 21:21:09'
p1198
sg25
S'464/C'
p1199
sa(dp1200
g21
g28
sg23
S'2014-09-07 22:08:41'
p1201
sg25
S'464/D'
p1202
sa(dp1203
g21
g28
sg23
S'2014-09-28 21:07:36'
p1204
sg25
S'472/A'
p1205
sa(dp1206
g21
g28
sg23
S'2014-09-28 21:12:19'
p1207
sg25
S'472/B'
p1208
sa(dp1209
g21
g28
sg23
S'2014-09-28 21:17:28'
p1210
sg25
S'472/C'
p1211
sa(dp1212
g21
g28
sg23
S'2014-09-28 21:35:47'
p1213
sg25
S'472/D'
p1214
sa(dp1215
g21
g73
sg23
S'2014-09-28 22:36:10'
p1216
sg25
S'472/E'
p1217
sa(dp1218
g21
g28
sg23
S'2014-09-28 23:20:06'
p1219
sg25
S'472/F'
p1220
sa(dp1221
g21
g28
sg23
S'2014-10-12 19:35:10'
p1222
sg25
S'477/A'
p1223
sa(dp1224
g21
g28
sg23
S'2014-10-12 19:43:45'
p1225
sg25
S'477/B'
p1226
sa(dp1227
g21
g28
sg23
S'2014-10-12 19:54:37'
p1228
sg25
S'477/C'
p1229
sa(dp1230
g21
g28
sg23
S'2014-10-12 20:24:10'
p1231
sg25
S'477/D'
p1232
sa(dp1233
g21
g28
sg23
S'2014-10-24 23:09:18'
p1234
sg25
S'482/A'
p1235
sa(dp1236
g21
g28
sg23
S'2014-10-24 22:45:44'
p1237
sg25
S'482/B'
p1238
sa(dp1239
g21
g28
sg23
S'2014-10-24 23:02:35'
p1240
sg25
S'482/C'
p1241
sa(dp1242
g21
g28
sg23
S'2014-10-24 23:32:01'
p1243
sg25
S'482/D'
p1244
sa(dp1245
g21
g170
sg23
S'2014-10-25 11:57:35'
p1246
sg25
S'482/E'
p1247
sa(dp1248
g21
g28
sg23
S'2014-12-17 22:06:23'
p1249
sg25
S'497/A'
p1250
sa(dp1251
g21
g28
sg23
S'2014-12-17 22:37:51'
p1252
sg25
S'497/B'
p1253
sa(dp1254
g21
g73
sg23
S'2014-12-17 22:27:38'
p1255
sg25
S'497/C'
p1256
sa(dp1257
g21
g73
sg23
S'2014-12-17 23:49:21'
p1258
sg25
S'497/D'
p1259
sa(dp1260
g21
g73
sg23
S'2014-12-17 23:15:57'
p1261
sg25
S'497/E'
p1262
sa(dp1263
g21
g28
sg23
S'2014-12-30 20:45:36'
p1264
sg25
S'500/A'
p1265
sa(dp1266
g21
g28
sg23
S'2014-12-30 20:39:15'
p1267
sg25
S'500/B'
p1268
sa(dp1269
g21
g28
sg23
S'2014-12-30 20:43:10'
p1270
sg25
S'500/C'
p1271
sa(dp1272
g21
g28
sg23
S'2014-12-30 20:55:34'
p1273
sg25
S'500/D'
p1274
sa(dp1275
g21
g28
sg23
S'2014-12-30 21:15:22'
p1276
sg25
S'500/E'
p1277
sa(dp1278
g21
g73
sg23
S'2014-12-30 21:49:42'
p1279
sg25
S'500/F'
p1280
sa(dp1281
g21
g35
sg23
S'2015-01-18 20:18:48'
p1282
sg25
S'506/E'
p1283
sa(dp1284
g21
g28
sg23
S'2015-02-02 22:06:21'
p1285
sg25
S'512/A'
p1286
sa(dp1287
g21
g28
sg23
S'2015-02-02 22:28:04'
p1288
sg25
S'512/B'
p1289
sa(dp1290
g21
g28
sg23
S'2015-02-02 23:41:03'
p1291
sg25
S'512/C'
p1292
sa(dp1293
g21
g28
sg23
S'2015-02-02 22:44:54'
p1294
sg25
S'512/D'
p1295
sa(dp1296
g21
g28
sg23
S'2015-02-02 23:13:59'
p1297
sg25
S'512/E'
p1298
sa(dp1299
g21
g28
sg23
S'2015-02-07 22:32:09'
p1300
sg25
S'513/A'
p1301
sa(dp1302
g21
g28
sg23
S'2015-02-07 22:37:51'
p1303
sg25
S'513/B1'
p1304
sa(dp1305
g21
g28
sg23
S'2015-02-07 22:50:15'
p1306
sg25
S'513/B2'
p1307
sa(dp1308
g21
g28
sg23
S'2015-02-07 23:06:24'
p1309
sg25
S'513/C'
p1310
sa(dp1311
g21
g35
sg23
S'2015-02-08 00:01:03'
p1312
sg25
S'513/D1'
p1313
sa(dp1314
g21
g73
sg23
S'2015-02-08 00:01:18'
p1315
sg25
S'513/D2'
p1316
sa(dp1317
g21
g73
sg23
S'2015-02-08 00:20:24'
p1318
sg25
S'513/E1'
p1319
sa(dp1320
g21
g28
sg23
S'2015-02-08 00:21:02'
p1321
sg25
S'513/E2'
p1322
sa(dp1323
g21
g22
sg23
S'2015-02-08 01:38:41'
p1324
sg25
S'513/F1'
p1325
sa(dp1326
g21
g42
sg23
S'2015-02-08 01:39:01'
p1327
sg25
S'513/F2'
p1328
sa(dp1329
g21
g28
sg23
S'2015-02-07 22:48:38'
p1330
sg25
S'513/G1'
p1331
sa(dp1332
g21
g28
sg23
S'2015-02-07 22:51:15'
p1333
sg25
S'513/G2'
p1334
sa(dp1335
g21
g28
sg23
S'2015-03-02 12:35:01'
p1336
sg25
S'521/A'
p1337
sa(dp1338
g21
g28
sg23
S'2015-03-02 12:48:13'
p1339
sg25
S'521/B'
p1340
sa(dp1341
g21
g28
sg23
S'2015-03-02 13:05:21'
p1342
sg25
S'521/C'
p1343
sa(dp1344
g21
g73
sg23
S'2015-03-02 14:16:44'
p1345
sg25
S'521/E'
p1346
sa(dp1347
g21
g35
sg23
S'2015-03-22 19:44:57'
p1348
sg25
S'524/F'
p1349
sa(dp1350
g21
g28
sg23
S'2015-04-04 22:08:47'
p1351
sg25
S'526/A'
p1352
sa(dp1353
g21
g28
sg23
S'2015-04-04 22:12:27'
p1354
sg25
S'526/B'
p1355
sa(dp1356
g21
g28
sg23
S'2015-04-04 22:33:37'
p1357
sg25
S'526/C'
p1358
sa(dp1359
g21
g28
sg23
S'2015-04-04 22:24:21'
p1360
sg25
S'526/D'
p1361
sa(dp1362
g21
g73
sg23
S'2015-04-04 23:10:10'
p1363
sg25
S'526/E'
p1364
sa(dp1365
g21
g28
sg23
S'2015-04-14 22:14:19'
p1366
sg25
S'536/A'
p1367
sa(dp1368
g21
g28
sg23
S'2015-04-14 22:23:52'
p1369
sg25
S'536/B'
p1370
sa(dp1371
g21
g73
sg23
S'2015-04-15 01:01:16'
p1372
sg25
S'536/C'
p1373
sa(dp1374
g21
g28
sg23
S'2015-04-14 23:28:10'
p1375
sg25
S'536/E'
p1376
sa(dp1377
g21
g28
sg23
S'2015-04-26 21:32:48'
p1378
sg25
S'538/A'
p1379
sa(dp1380
g21
g28
sg23
S'2015-04-26 21:35:11'
p1381
sg25
S'538/B'
p1382
sa(dp1383
g21
g28
sg23
S'2015-04-26 21:38:55'
p1384
sg25
S'538/C'
p1385
sa(dp1386
g21
g73
sg23
S'2015-04-26 21:46:12'
p1387
sg25
S'538/D'
p1388
sa(dp1389
g21
g28
sg23
S'2015-04-26 21:55:42'
p1390
sg25
S'538/E'
p1391
sa(dp1392
g21
g28
sg23
S'2015-04-26 22:07:13'
p1393
sg25
S'538/F'
p1394
sa(dp1395
g21
g35
sg23
S'2015-04-27 00:25:10'
p1396
sg25
S'538/G'
p1397
sa(dp1398
g21
g73
sg23
S'2015-04-26 23:15:27'
p1399
sg25
S'538/H'
p1400
sa(dp1401
g21
g28
sg23
S'2015-05-07 22:07:41'
p1402
sg25
S'543/A'
p1403
sa(dp1404
g21
g28
sg23
S'2015-05-07 22:17:23'
p1405
sg25
S'543/B'
p1406
sa(dp1407
g21
g73
sg23
S'2015-05-07 22:55:49'
p1408
sg25
S'543/C'
p1409
sa(dp1410
g21
g28
sg23
S'2015-05-07 22:35:58'
p1411
sg25
S'543/D'
p1412
sa(dp1413
g21
g28
sg23
S'2015-06-06 18:32:45'
p1414
sg25
S'549/A'
p1415
sa(dp1416
g21
g28
sg23
S'2015-06-06 19:34:46'
p1417
sg25
S'549/B'
p1418
sa(dp1419
g21
g73
sg23
S'2015-06-06 19:11:59'
p1420
sg25
S'549/C'
p1421
sa(dp1422
g21
g28
sg23
S'2015-06-06 18:49:48'
p1423
sg25
S'549/D'
p1424
sa(dp1425
g21
g28
sg23
S'2015-06-06 20:05:43'
p1426
sg25
S'549/F'
p1427
sa(dp1428
g21
g28
sg23
S'2015-06-06 19:19:51'
p1429
sg25
S'549/G'
p1430
sa(dp1431
g21
g28
sg23
S'2015-06-06 18:44:47'
p1432
sg25
S'549/H'
p1433
sa(dp1434
g21
g28
sg23
S'2015-06-27 19:50:14'
p1435
sg25
S'555/A'
p1436
sa(dp1437
g21
g73
sg23
S'2015-06-27 20:01:28'
p1438
sg25
S'555/B'
p1439
sa(dp1440
g21
g73
sg23
S'2015-06-27 21:23:58'
p1441
sg25
S'555/C'
p1442
sa(dp1443
g21
g28
sg23
S'2015-06-27 21:00:08'
p1444
sg25
S'555/D'
p1445
sa(dp1446
g21
g28
sg23
S'2015-06-27 20:39:21'
p1447
sg25
S'555/E'
p1448
sa(dp1449
g21
g28
sg23
S'2015-07-30 23:51:59'
p1450
sg25
S'566/B'
p1451
sa(dp1452
g21
g73
sg23
S'2015-07-30 23:06:14'
p1453
sg25
S'566/D'
p1454
sa(dp1455
g21
g28
sg23
S'2015-07-31 00:18:07'
p1456
sg25
S'566/E'
p1457
sa(dp1458
g21
g73
sg23
S'2015-07-30 21:59:40'
p1459
sg25
S'566/F'
p1460
sa(dp1461
g21
g28
sg23
S'2015-07-30 22:40:34'
p1462
sg25
S'566/G'
p1463
sa(dp1464
g21
g28
sg23
S'2015-08-10 22:09:44'
p1465
sg25
S'568/B'
p1466
sa(dp1467
g21
g28
sg23
S'2015-08-10 22:40:17'
p1468
sg25
S'568/C'
p1469
sa(dp1470
g21
g73
sg23
S'2015-08-11 00:29:26'
p1471
sg25
S'568/D'
p1472
sa(dp1473
g21
g28
sg23
S'2015-08-10 23:56:59'
p1474
sg25
S'568/E'
p1475
sa(dp1476
g21
g28
sg23
S'2015-08-22 22:17:44'
p1477
sg25
S'571/B'
p1478
sa(dp1479
g21
g28
sg23
S'2015-08-22 23:56:59'
p1480
sg25
S'571/C'
p1481
sa(dp1482
g21
g35
sg23
S'2015-08-23 00:35:35'
p1483
sg25
S'571/E'
p1484
sa(dp1485
g21
g28
sg23
S'2015-08-29 22:07:14'
p1486
sg25
S'573/A'
p1487
sa(dp1488
g21
g28
sg23
S'2015-08-29 22:05:29'
p1489
sg25
S'573/B'
p1490
sa(dp1491
g21
g42
sg23
S'2015-09-02 04:35:21'
p1492
sg25
S'573/C'
p1493
sa(dp1494
g21
g28
sg23
S'2015-08-29 23:47:57'
p1495
sg25
S'573/D'
p1496
sa(dp1497
g21
g28
sg23
S'2015-12-01 21:10:18'
p1498
sg25
S'603/A'
p1499
sa(dp1500
g21
g28
sg23
S'2015-12-01 21:16:44'
p1501
sg25
S'603/B'
p1502
sa(dp1503
g21
g28
sg23
S'2015-12-01 21:30:40'
p1504
sg25
S'603/C'
p1505
sa(dp1506
g21
g28
sg23
S'2015-12-01 23:17:13'
p1507
sg25
S'603/E'
p1508
sa(dp1509
g21
g28
sg23
S'2015-12-30 20:56:54'
p1510
sg25
S'611/A'
p1511
sa(dp1512
g21
g28
sg23
S'2015-12-30 20:54:04'
p1513
sg25
S'611/B'
p1514
sa(dp1515
g21
g28
sg23
S'2015-12-30 21:09:40'
p1516
sg25
S'611/C'
p1517
sa(dp1518
g21
g28
sg23
S'2015-12-30 20:49:33'
p1519
sg25
S'611/D'
p1520
sa(dp1521
g21
g35
sg23
S'2015-12-30 21:31:09'
p1522
sg25
S'611/F'
p1523
sa(dp1524
g21
g28
sg23
S'2015-12-30 22:14:01'
p1525
sg25
S'611/G'
p1526
sa(dp1527
g21
g73
sg23
S'2015-12-30 23:18:25'
p1528
sg25
S'611/H'
p1529
sa(dp1530
g21
g28
sg23
S'2016-01-14 23:35:25'
p1531
sg25
S'613/A'
p1532
sa(dp1533
g21
g35
sg23
S'2016-01-14 22:58:34'
p1534
sg25
S'613/B'
p1535
sa(dp1536
g21
g28
sg23
S'2016-01-14 22:36:50'
p1537
sg25
S'613/C'
p1538
sa(dp1539
g21
g35
sg23
S'2016-01-15 01:25:35'
p1540
sg25
S'613/D'
p1541
sa(dp1542
g21
S'8'
p1543
sg23
S'2016-01-15 01:32:16'
p1544
sg25
S'613/E'
p1545
sa(dp1546
g21
g28
sg23
S'2016-01-29 22:55:58'
p1547
sg25
S'618/A'
p1548
sa(dp1549
g21
g28
sg23
S'2016-01-29 22:50:33'
p1550
sg25
S'618/B'
p1551
sa(dp1552
g21
g28
sg23
S'2016-01-29 22:54:15'
p1553
sg25
S'618/C'
p1554
sa(dp1555
g21
g28
sg23
S'2016-01-29 23:28:53'
p1556
sg25
S'618/D'
p1557
sa(dp1558
g21
g73
sg23
S'2016-01-29 23:14:41'
p1559
sg25
S'618/E'
p1560
sa(dp1561
g21
g28
sg23
S'2016-02-13 23:08:03'
p1562
sg25
S'626/A'
p1563
sa(dp1564
g21
g28
sg23
S'2016-02-13 23:14:59'
p1565
sg25
S'626/B'
p1566
sa(dp1567
g21
g28
sg23
S'2016-02-13 23:18:05'
p1568
sg25
S'626/C'
p1569
sa(dp1570
g21
g28
sg23
S'2016-02-13 23:29:15'
p1571
sg25
S'626/D'
p1572
sa(dp1573
g21
g28
sg23
S'2016-02-14 00:00:35'
p1574
sg25
S'626/E'
p1575
sa(dp1576
g21
g28
sg23
S'2016-02-14 00:13:16'
p1577
sg25
S'626/F'
p1578
sa(dp1579
g21
g28
sg23
S'2016-02-14 00:52:28'
p1580
sg25
S'626/G'
p1581
sa(dp1582
g21
g73
sg23
S'2016-02-28 23:46:58'
p1583
sg25
S'627/A'
p1584
sa(dp1585
g21
g28
sg23
S'2016-02-29 00:16:02'
p1586
sg25
S'627/D'
p1587
sa(dp1588
g21
g28
sg23
S'2016-02-29 00:44:01'
p1589
sg25
S'627/E'
p1590
sa(dp1591
g21
g378
sg23
S'2016-02-29 04:13:28'
p1592
sg25
S'627/F'
p1593
sa(dp1594
g21
g28
sg23
S'2016-03-17 15:14:58'
p1595
sg25
S'644/A'
p1596
sa(dp1597
g21
g28
sg23
S'2016-03-18 22:30:49'
p1598
sg25
S'645/A'
p1599
sa(dp1600
g21
g28
sg23
S'2016-03-18 22:09:05'
p1601
sg25
S'645/B'
p1602
sa(dp1603
g21
g28
sg23
S'2016-03-18 22:13:28'
p1604
sg25
S'645/C'
p1605
sa(dp1606
g21
g28
sg23
S'2016-03-18 22:26:52'
p1607
sg25
S'645/D'
p1608
sa(dp1609
g21
g28
sg23
S'2016-03-18 22:20:47'
p1610
sg25
S'645/E'
p1611
sa(dp1612
g21
g28
sg23
S'2016-03-18 22:49:53'
p1613
sg25
S'645/F'
p1614
sa(dp1615
g21
g28
sg23
S'2016-03-19 00:03:01'
p1616
sg25
S'645/G'
p1617
sa(dp1618
g21
g28
sg23
S'2016-04-16 22:13:12'
p1619
sg25
S'663/A'
p1620
sa(dp1621
g21
g28
sg23
S'2016-04-16 22:17:48'
p1622
sg25
S'663/B'
p1623
sa(dp1624
g21
g73
sg23
S'2016-04-16 22:34:59'
p1625
sg25
S'663/C'
p1626
sa(dp1627
g21
g28
sg23
S'2016-04-16 23:45:35'
p1628
sg25
S'663/D'
p1629
sa(dp1630
g21
g35
sg23
S'2016-04-16 23:06:48'
p1631
sg25
S'663/E'
p1632
sa(dp1633
g21
g28
sg23
S'2016-04-29 23:07:19'
p1634
sg25
S'666/A'
p1635
sa(dp1636
g21
g73
sg23
S'2016-04-29 23:29:08'
p1637
sg25
S'666/B'
p1638
sa(dp1639
g21
g28
sg23
S'2016-04-29 22:28:14'
p1640
sg25
S'666/C'
p1641
sa(dp1642
g21
g28
sg23
S'2016-04-29 22:57:12'
p1643
sg25
S'666/D'
p1644
sa(dp1645
g21
g28
sg23
S'2016-04-24 22:16:44'
p1646
sg25
S'668/A'
p1647
sa(dp1648
g21
g28
sg23
S'2016-04-24 22:28:13'
p1649
sg25
S'668/B'
p1650
sa(dp1651
g21
g28
sg23
S'2016-04-24 22:46:06'
p1652
sg25
S'668/C'
p1653
sa(dp1654
g21
g28
sg23
S'2016-04-24 23:00:57'
p1655
sg25
S'668/D'
p1656
sa(dp1657
g21
g28
sg23
S'2016-06-08 22:17:16'
p1658
sg25
S'679/A'
p1659
sa(dp1660
g21
g28
sg23
S'2016-06-08 22:39:30'
p1661
sg25
S'679/B'
p1662
sa(dp1663
g21
g28
sg23
S'2016-06-08 23:13:13'
p1664
sg25
S'679/D'
p1665
sa(dp1666
g21
g73
sg23
S'2016-06-09 00:03:44'
p1667
sg25
S'679/E'
p1668
sa(dp1669
g21
g28
sg23
S'2016-06-23 22:11:37'
p1670
sg25
S'685/A'
p1671
sa(dp1672
g21
g28
sg23
S'2016-06-23 22:20:10'
p1673
sg25
S'685/B'
p1674
sa(dp1675
g21
g73
sg23
S'2016-06-23 23:44:54'
p1676
sg25
S'685/C'
p1677
sa(dp1678
g21
g28
sg23
S'2016-06-23 22:42:49'
p1679
sg25
S'685/D'
p1680
sa(dp1681
g21
g28
sg23
S'2016-06-23 22:58:10'
p1682
sg25
S'685/E'
p1683
sa(dp1684
g21
g28
sg23
S'2016-07-19 18:39:33'
p1685
sg25
S'698/A'
p1686
sa(dp1687
g21
g28
sg23
S'2016-07-19 18:45:27'
p1688
sg25
S'698/B'
p1689
sa(dp1690
g21
g28
sg23
S'2016-07-19 18:58:18'
p1691
sg25
S'698/C'
p1692
sa(dp1693
g21
g28
sg23
S'2016-07-19 20:48:45'
p1694
sg25
S'698/D'
p1695
sa(dp1696
g21
g28
sg23
S'2016-07-19 20:30:53'
p1697
sg25
S'698/E'
p1698
sa(dp1699
g21
g35
sg23
S'2016-07-19 20:03:01'
p1700
sg25
S'698/F'
p1701
sa(dp1702
g21
g28
sg23
S'2016-07-22 22:50:40'
p1703
sg25
S'700/A'
p1704
sa(dp1705
g21
g28
sg23
S'2016-07-22 22:12:59'
p1706
sg25
S'700/B'
p1707
sa(dp1708
g21
g28
sg23
S'2016-07-22 22:37:57'
p1709
sg25
S'700/C'
p1710
sa(dp1711
g21
g28
sg23
S'2016-11-23 22:12:57'
p1712
sg25
S'739/A'
p1713
sa(dp1714
g21
g73
sg23
S'2016-11-23 22:30:35'
p1715
sg25
S'739/B'
p1716
sa(dp1717
g21
g170
sg23
S'2016-11-23 23:54:31'
p1718
sg25
S'739/D'
p1719
sa(dp1720
g21
g28
sg23
S'2014-10-04 19:15:54'
p1721
sg25
S'100501/E'
p1722
sasS'probs'
p1723
(lp1724
S'739/D'
p1725
aS'739/B'
p1726
aS'739/A'
p1727
aS'700/A'
p1728
aS'700/C'
p1729
aS'700/B'
p1730
aS'698/D'
p1731
aS'698/E'
p1732
aS'698/F'
p1733
aS'698/C'
p1734
aS'698/B'
p1735
aS'698/A'
p1736
aS'685/C'
p1737
aS'685/E'
p1738
aS'685/D'
p1739
aS'685/B'
p1740
aS'685/A'
p1741
aS'679/E'
p1742
aS'679/D'
p1743
aS'679/B'
p1744
aS'679/A'
p1745
aS'666/B'
p1746
aS'666/A'
p1747
aS'666/D'
p1748
aS'666/C'
p1749
aS'668/D'
p1750
aS'668/C'
p1751
aS'668/B'
p1752
aS'668/A'
p1753
aS'663/D'
p1754
aS'663/E'
p1755
aS'663/C'
p1756
aS'663/B'
p1757
aS'663/A'
p1758
aS'645/G'
p1759
aS'645/F'
p1760
aS'645/A'
p1761
aS'645/D'
p1762
aS'645/E'
p1763
aS'645/C'
p1764
aS'645/B'
p1765
aS'644/A'
p1766
aS'627/F'
p1767
aS'627/E'
p1768
aS'627/D'
p1769
aS'627/A'
p1770
aS'626/G'
p1771
aS'626/F'
p1772
aS'626/E'
p1773
aS'626/D'
p1774
aS'626/C'
p1775
aS'626/B'
p1776
aS'626/A'
p1777
aS'618/D'
p1778
aS'618/E'
p1779
aS'618/A'
p1780
aS'618/C'
p1781
aS'618/B'
p1782
aS'613/E'
p1783
aS'613/E'
p1784
aS'613/D'
p1785
aS'613/A'
p1786
aS'613/D'
p1787
aS'613/B'
p1788
aS'613/C'
p1789
aS'611/H'
p1790
aS'611/G'
p1791
aS'611/F'
p1792
aS'611/C'
p1793
aS'611/A'
p1794
aS'611/B'
p1795
aS'611/D'
p1796
aS'603/E'
p1797
aS'603/C'
p1798
aS'603/B'
p1799
aS'603/A'
p1800
aS'573/C'
p1801
aS'573/C'
p1802
aS'573/D'
p1803
aS'573/A'
p1804
aS'573/B'
p1805
aS'571/E'
p1806
aS'571/C'
p1807
aS'571/B'
p1808
aS'568/D'
p1809
aS'568/E'
p1810
aS'568/C'
p1811
aS'568/B'
p1812
aS'566/E'
p1813
aS'566/B'
p1814
aS'566/D'
p1815
aS'566/G'
p1816
aS'566/F'
p1817
aS'555/C'
p1818
aS'555/D'
p1819
aS'555/E'
p1820
aS'555/B'
p1821
aS'555/A'
p1822
aS'549/F'
p1823
aS'549/B'
p1824
aS'549/G'
p1825
aS'549/C'
p1826
aS'549/D'
p1827
aS'549/H'
p1828
aS'549/A'
p1829
aS'543/C'
p1830
aS'543/D'
p1831
aS'543/B'
p1832
aS'543/A'
p1833
aS'538/G'
p1834
aS'538/H'
p1835
aS'538/F'
p1836
aS'538/E'
p1837
aS'538/D'
p1838
aS'538/C'
p1839
aS'538/B'
p1840
aS'538/A'
p1841
aS'536/C'
p1842
aS'536/E'
p1843
aS'536/B'
p1844
aS'536/A'
p1845
aS'526/E'
p1846
aS'526/C'
p1847
aS'526/D'
p1848
aS'526/B'
p1849
aS'526/A'
p1850
aS'524/F'
p1851
aS'521/E'
p1852
aS'521/C'
p1853
aS'521/B'
p1854
aS'521/A'
p1855
aS'513/F2'
p1856
aS'513/F1'
p1857
aS'513/F1'
p1858
aS'513/F1'
p1859
aS'513/F1'
p1860
aS'513/F1'
p1861
aS'513/E2'
p1862
aS'513/E1'
p1863
aS'513/E1'
p1864
aS'513/D2'
p1865
aS'513/D1'
p1866
aS'513/D1'
p1867
aS'513/C'
p1868
aS'513/G2'
p1869
aS'513/B2'
p1870
aS'513/G1'
p1871
aS'513/B1'
p1872
aS'513/A'
p1873
aS'512/C'
p1874
aS'512/E'
p1875
aS'512/D'
p1876
aS'512/B'
p1877
aS'512/A'
p1878
aS'506/E'
p1879
aS'500/F'
p1880
aS'500/E'
p1881
aS'500/D'
p1882
aS'500/A'
p1883
aS'500/C'
p1884
aS'500/B'
p1885
aS'497/D'
p1886
aS'497/E'
p1887
aS'497/B'
p1888
aS'497/C'
p1889
aS'497/A'
p1890
aS'439/D'
p1891
aS'482/E'
p1892
aS'482/E'
p1893
aS'482/E'
p1894
aS'482/D'
p1895
aS'482/A'
p1896
aS'482/C'
p1897
aS'482/B'
p1898
aS'477/D'
p1899
aS'477/C'
p1900
aS'477/B'
p1901
aS'477/A'
p1902
aS'100501/E'
p1903
aS'472/F'
p1904
aS'472/E'
p1905
aS'472/D'
p1906
aS'472/C'
p1907
aS'472/B'
p1908
aS'472/A'
p1909
aS'464/D'
p1910
aS'464/B'
p1911
aS'464/C'
p1912
aS'464/A'
p1913
aS'458/C'
p1914
aS'458/D'
p1915
aS'458/A'
p1916
aS'453/D'
p1917
aS'453/C'
p1918
aS'453/B'
p1919
aS'453/A'
p1920
aS'452/C'
p1921
aS'452/F'
p1922
aS'452/D'
p1923
aS'452/B'
p1924
aS'452/A'
p1925
aS'446/C'
p1926
aS'446/B'
p1927
aS'436/E'
p1928
aS'436/F'
p1929
aS'436/C'
p1930
aS'436/B'
p1931
aS'436/A'
p1932
aS'438/D'
p1933
aS'438/C'
p1934
aS'438/B'
p1935
aS'438/A'
p1936
aS'425/E'
p1937
aS'425/C'
p1938
aS'425/D'
p1939
aS'425/B'
p1940
aS'425/A'
p1941
aS'409/H'
p1942
aS'409/F'
p1943
aS'409/A'
p1944
aS'409/D'
p1945
aS'409/B'
p1946
aS'409/E'
p1947
aS'409/C'
p1948
aS'407/D'
p1949
aS'407/C'
p1950
aS'407/B'
p1951
aS'407/A'
p1952
aS'403/E'
p1953
aS'403/C'
p1954
aS'403/A'
p1955
aS'403/B'
p1956
aS'403/D'
p1957
aS'388/E'
p1958
aS'388/D'
p1959
aS'388/C'
p1960
aS'388/B'
p1961
aS'388/A'
p1962
aS'380/A'
p1963
aS'380/B'
p1964
aS'380/E'
p1965
aS'380/D'
p1966
aS'380/C'
p1967
aS'379/G'
p1968
aS'379/F'
p1969
aS'379/E'
p1970
aS'379/D'
p1971
aS'379/C'
p1972
aS'379/B'
p1973
aS'379/A'
p1974
aS'377/C'
p1975
aS'377/D'
p1976
aS'377/E'
p1977
aS'377/B'
p1978
aS'377/A'
p1979
aS'372/C'
p1980
aS'372/B'
p1981
aS'372/A'
p1982
aS'367/D'
p1983
aS'367/E'
p1984
aS'367/C'
p1985
aS'367/B'
p1986
aS'367/A'
p1987
aS'364/D'
p1988
aS'364/A'
p1989
aS'364/B'
p1990
aS'364/C'
p1991
aS'351/D'
p1992
aS'351/C'
p1993
aS'351/B'
p1994
aS'346/E'
p1995
aS'346/D'
p1996
aS'346/B'
p1997
aS'346/A'
p1998
aS'343/E'
p1999
aS'343/D'
p2000
aS'343/C'
p2001
aS'343/B'
p2002
aS'343/A'
p2003
aS'326/C'
p2004
aS'326/D'
p2005
aS'326/E'
p2006
aS'326/B'
p2007
aS'326/A'
p2008
aS'329/D'
p2009
aS'329/B'
p2010
aS'329/C'
p2011
aS'329/A'
p2012
aS'331/D1'
p2013
aS'331/D3'
p2014
aS'331/D2'
p2015
aS'324/B2'
p2016
aS'324/B1'
p2017
aS'324/A2'
p2018
aS'324/A1'
p2019
aS'324/C3'
p2020
aS'324/C2'
p2021
aS'324/C1'
p2022
aS'325/D'
p2023
aS'325/C'
p2024
aS'325/B'
p2025
aS'325/A'
p2026
aS'319/E'
p2027
aS'319/C'
p2028
aS'319/B'
p2029
aS'319/A'
p2030
aS'316/G2'
p2031
aS'316/G1'
p2032
aS'316/E3'
p2033
aS'316/E2'
p2034
aS'316/F3'
p2035
aS'316/F2'
p2036
aS'316/F1'
p2037
aS'316/E1'
p2038
aS'316/C1'
p2039
aS'316/D3'
p2040
aS'316/D2'
p2041
aS'316/B2'
p2042
aS'316/B1'
p2043
aS'316/D1'
p2044
aS'316/A2'
p2045
aS'316/A1'
p2046
aS'303/D'
p2047
aS'303/B'
p2048
aS'303/A'
p2049
aS'293/A'
p2050
aS'292/D'
p2051
aS'292/E'
p2052
aS'292/C'
p2053
aS'292/A'
p2054
aS'292/B'
p2055
aS'291/E'
p2056
aS'291/D'
p2057
aS'291/C'
p2058
aS'291/B'
p2059
aS'291/A'
p2060
aS'280/A'
p2061
aS'280/B'
p2062
aS'280/C'
p2063
aS'277/D'
p2064
aS'277/E'
p2065
aS'277/C'
p2066
aS'277/A'
p2067
aS'274/E'
p2068
aS'274/D'
p2069
aS'274/C'
p2070
aS'274/B'
p2071
aS'274/A'
p2072
aS'269/C'
p2073
aS'269/D'
p2074
aS'269/B'
p2075
aS'269/A'
p2076
aS'264/D'
p2077
aS'264/C'
p2078
aS'264/B'
p2079
aS'264/A'
p2080
aS'261/C'
p2081
aS'261/B'
p2082
aS'261/A'
p2083
aS'258/B'
p2084
aS'258/D'
p2085
aS'258/C'
p2086
aS'258/E'
p2087
aS'258/A'
p2088
aS'251/D'
p2089
aS'251/D'
p2090
aS'251/C'
p2091
aS'251/B'
p2092
aS'251/A'
p2093
aS'243/A'
p2094
aS'243/C'
p2095
aS'235/E'
p2096
aS'235/D'
p2097
aS'235/B'
p2098
aS'235/A'
p2099
aS'223/D'
p2100
aS'223/A'
p2101
aS'223/C'
p2102
aS'223/B'
p2103
aS'217/C'
p2104
aS'217/A'
p2105
aS'217/D'
p2106
aS'217/B'
p2107
aS'213/A'
p2108
aS'213/E'
p2109
aS'213/C'
p2110
aS'213/D'
p2111
aS'213/B'
p2112
aS'198/C'
p2113
aS'198/D'
p2114
aS'198/E'
p2115
aS'198/B'
p2116
aS'198/A'
p2117
aS'196/E'
p2118
aS'196/E'
p2119
aS'196/E'
p2120
aS'196/D'
p2121
aS'196/E'
p2122
aS'196/C'
p2123
aS'196/B'
p2124
aS'196/A'
p2125
aS'193/D'
p2126
aS'193/E'
p2127
aS'193/B'
p2128
aS'193/C'
p2129
aS'193/A'
p2130
aS'188/H'
p2131
aS'188/G'
p2132
aS'188/E'
p2133
aS'188/F'
p2134
aS'188/D'
p2135
aS'188/C'
p2136
aS'188/B'
p2137
aS'188/A'
p2138
aS'173/D'
p2139
aS'173/E'
p2140
aS'173/C'
p2141
aS'173/B'
p2142
aS'173/A'
p2143
aS'172/E'
p2144
aS'172/D'
p2145
aS'172/C'
p2146
aS'172/B'
p2147
aS'172/A'
p2148
aS'150/D'
p2149
aS'150/C'
p2150
aS'150/B'
p2151
aS'150/A'
p2152
aS'140/E'
p2153
aS'140/F'
p2154
aS'140/D'
p2155
aS'140/C'
p2156
aS'140/B'
p2157
aS'140/A'
p2158
aS'123/E'
p2159
aS'123/C'
p2160
aS'123/D'
p2161
aS'123/B'
p2162
aS'123/A'
p2163
aS'121/E'
p2164
aS'121/D'
p2165
aS'121/B'
p2166
aS'121/C'
p2167
aS'121/A'
p2168
aS'115/C'
p2169
aS'115/E'
p2170
aS'115/D'
p2171
aS'115/B'
p2172
aS'115/A'
p2173
aS'109/C'
p2174
aS'109/B'
p2175
aS'109/D'
p2176
aS'109/A'
p2177
aS'109/E'
p2178
aS'98/A'
p2179
aS'98/E'
p2180
aS'98/C'
p2181
aS'98/D'
p2182
aS'97/A'
p2183
aS'97/D'
p2184
aS'97/C'
p2185
aS'97/B'
p2186
aS'95/E'
p2187
aS'95/D'
p2188
aS'95/C'
p2189
aS'95/B'
p2190
aS'95/A'
p2191
aS'87/A'
p2192
aS'87/B'
p2193
aS'87/E'
p2194
aS'87/D'
p2195
aS'87/C'
p2196
aS'86/D'
p2197
aS'86/C'
p2198
aS'86/E'
p2199
aS'86/A'
p2200
aS'85/E'
p2201
aS'85/C'
p2202
aS'85/B'
p2203
aS'85/D'
p2204
aS'85/A'
p2205
aS'81/E'
p2206
aS'81/B'
p2207
aS'81/A'
p2208
aS'81/D'
p2209
aS'79/E'
p2210
aS'79/C'
p2211
aS'79/B'
p2212
aS'79/A'
p2213
aS'73/E'
p2214
aS'73/C'
p2215
aS'73/F'
p2216
aS'73/B'
p2217
aS'73/D'
p2218
aS'73/A'
p2219
aS'70/C'
p2220
aS'70/E'
p2221
aS'70/D'
p2222
aS'70/B'
p2223
aS'70/A'
p2224
aS'68/D'
p2225
aS'68/B'
p2226
aS'68/A'
p2227
aS'55/E'
p2228
aS'55/C'
p2229
aS'55/B'
p2230
aS'55/A'
p2231
aS'54/B'
p2232
aS'54/E'
p2233
aS'54/D'
p2234
aS'54/C'
p2235
aS'54/A'
p2236
aS'51/E'
p2237
aS'51/D'
p2238
aS'51/B'
p2239
aS'51/A'
p2240
aS'50/C'
p2241
aS'50/E'
p2242
aS'50/D'
p2243
aS'50/B'
p2244
aS'50/A'
p2245
aS'46/G'
p2246
aS'46/F'
p2247
aS'46/G'
p2248
aS'46/E'
p2249
aS'46/D'
p2250
aS'46/C'
p2251
aS'46/B'
p2252
aS'46/A'
p2253
aS'40/C'
p2254
aS'40/E'
p2255
aS'40/D'
p2256
aS'40/B'
p2257
aS'40/A'
p2258
aS'36/A'
p2259
aS'36/B'
p2260
aS'36/C'
p2261
aS'36/D'
p2262
aS'36/E'
p2263
aS'21/A'
p2264
aS'21/B'
p2265
aS'21/C'
p2266
aS'21/D'
p2267
aS'15/E'
p2268
aS'15/C'
p2269
aS'15/B'
p2270
aS'15/A'
p2271
aS'11/E'
p2272
aS'11/D'
p2273
aS'11/D'
p2274
aS'11/C'
p2275
aS'11/B'
p2276
aS'11/A'
p2277
aS'10/E'
p2278
aS'10/C'
p2279
aS'10/B'
p2280
aS'10/A'
p2281
aS'8/D'
p2282
aS'8/E'
p2283
aS'8/C'
p2284
aS'8/B'
p2285
aS'8/A'
p2286
aS'7/E'
p2287
aS'7/D'
p2288
aS'7/C'
p2289
aS'7/B'
p2290
aS'7/A'
p2291
aS'5/E'
p2292
aS'5/D'
p2293
aS'5/C'
p2294
aS'5/B'
p2295
aS'5/A'
p2296
aS'3/D'
p2297
aS'3/C'
p2298
aS'3/B'
p2299
aS'3/A'
p2300
aS'2/B'
p2301
aS'2/C'
p2302
aS'2/A'
p2303
aS'1/A'
p2304
asb.