(icodeforcesuser
CodeForcesUser
p0
(dp1
S'city'
p2
S'Moscow'
p3
sS'name'
p4
S'Petr Mitrichev'
p5
sS'ratings'
p6
S'3481'
p7
sS'url'
p8
S'http://codeforces.com/profile/Petr'
p9
sS'country'
p10
S'Russia'
p11
sS'rank'
p12
S'legendary grandmaster'
p13
sS'uname'
p14
S'Petr'
p15
sS'organization'
p16
S'Google'
p17
sS'probs'
p18
(lp19
S'700/A'
p20
aS'700/C'
p21
aS'700/B'
p22
aS'698/D'
p23
aS'698/E'
p24
aS'698/F'
p25
aS'698/C'
p26
aS'698/B'
p27
aS'698/A'
p28
aS'685/C'
p29
aS'685/E'
p30
aS'685/D'
p31
aS'685/B'
p32
aS'685/A'
p33
aS'679/E'
p34
aS'679/D'
p35
aS'679/B'
p36
aS'679/A'
p37
aS'666/B'
p38
aS'666/A'
p39
aS'666/D'
p40
aS'666/C'
p41
aS'668/D'
p42
aS'668/C'
p43
aS'668/B'
p44
aS'668/A'
p45
aS'663/D'
p46
aS'663/E'
p47
aS'663/C'
p48
aS'663/B'
p49
aS'663/A'
p50
aS'645/G'
p51
aS'645/F'
p52
aS'645/A'
p53
aS'645/D'
p54
aS'645/E'
p55
aS'645/C'
p56
aS'645/B'
p57
aS'644/A'
p58
aS'627/F'
p59
aS'627/E'
p60
aS'627/D'
p61
aS'627/A'
p62
aS'626/G'
p63
aS'626/F'
p64
aS'626/E'
p65
aS'626/D'
p66
aS'626/C'
p67
aS'626/B'
p68
aS'626/A'
p69
aS'618/D'
p70
aS'618/E'
p71
aS'618/A'
p72
aS'618/C'
p73
aS'618/B'
p74
aS'613/E'
p75
aS'613/E'
p76
aS'613/D'
p77
aS'613/A'
p78
aS'613/D'
p79
aS'613/B'
p80
aS'613/C'
p81
aS'611/H'
p82
aS'611/G'
p83
aS'611/F'
p84
aS'611/C'
p85
aS'611/A'
p86
aS'611/B'
p87
aS'611/D'
p88
aS'603/E'
p89
aS'603/C'
p90
aS'603/B'
p91
aS'603/A'
p92
aS'573/C'
p93
aS'573/C'
p94
aS'573/D'
p95
aS'573/A'
p96
aS'573/B'
p97
aS'571/E'
p98
aS'571/C'
p99
aS'571/B'
p100
aS'568/D'
p101
aS'568/E'
p102
aS'568/C'
p103
aS'568/B'
p104
aS'566/E'
p105
aS'566/B'
p106
aS'566/D'
p107
aS'566/G'
p108
aS'566/F'
p109
aS'555/C'
p110
aS'555/D'
p111
aS'555/E'
p112
aS'555/B'
p113
aS'555/A'
p114
aS'549/F'
p115
aS'549/B'
p116
aS'549/G'
p117
aS'549/C'
p118
aS'549/D'
p119
aS'549/H'
p120
aS'549/A'
p121
aS'543/C'
p122
aS'543/D'
p123
aS'543/B'
p124
aS'543/A'
p125
aS'538/G'
p126
aS'538/H'
p127
aS'538/F'
p128
aS'538/E'
p129
aS'538/D'
p130
aS'538/C'
p131
aS'538/B'
p132
aS'538/A'
p133
aS'536/C'
p134
aS'536/E'
p135
aS'536/B'
p136
aS'536/A'
p137
aS'526/E'
p138
aS'526/C'
p139
aS'526/D'
p140
aS'526/B'
p141
aS'526/A'
p142
aS'524/F'
p143
aS'521/E'
p144
aS'521/C'
p145
aS'521/B'
p146
aS'521/A'
p147
aS'513/F2'
p148
aS'513/F1'
p149
aS'513/F1'
p150
aS'513/F1'
p151
aS'513/F1'
p152
aS'513/F1'
p153
aS'513/E2'
p154
aS'513/E1'
p155
aS'513/E1'
p156
aS'513/D2'
p157
aS'513/D1'
p158
aS'513/D1'
p159
aS'513/C'
p160
aS'513/G2'
p161
aS'513/B2'
p162
aS'513/G1'
p163
aS'513/B1'
p164
aS'513/A'
p165
aS'512/C'
p166
aS'512/E'
p167
aS'512/D'
p168
aS'512/B'
p169
aS'512/A'
p170
aS'506/E'
p171
aS'500/F'
p172
aS'500/E'
p173
aS'500/D'
p174
aS'500/A'
p175
aS'500/C'
p176
aS'500/B'
p177
aS'497/D'
p178
aS'497/E'
p179
aS'497/B'
p180
aS'497/C'
p181
aS'497/A'
p182
aS'439/D'
p183
aS'482/E'
p184
aS'482/E'
p185
aS'482/E'
p186
aS'482/D'
p187
aS'482/A'
p188
aS'482/C'
p189
aS'482/B'
p190
aS'477/D'
p191
aS'477/C'
p192
aS'477/B'
p193
aS'477/A'
p194
aS'100501/E'
p195
aS'472/F'
p196
aS'472/E'
p197
aS'472/D'
p198
aS'472/C'
p199
aS'472/B'
p200
aS'472/A'
p201
aS'464/D'
p202
aS'464/B'
p203
aS'464/C'
p204
aS'464/A'
p205
aS'458/C'
p206
aS'458/D'
p207
aS'458/A'
p208
aS'453/D'
p209
aS'453/C'
p210
aS'453/B'
p211
aS'453/A'
p212
aS'452/C'
p213
aS'452/F'
p214
aS'452/D'
p215
aS'452/B'
p216
aS'452/A'
p217
aS'446/C'
p218
aS'446/B'
p219
aS'436/E'
p220
aS'436/F'
p221
aS'436/C'
p222
aS'436/B'
p223
aS'436/A'
p224
aS'438/D'
p225
aS'438/C'
p226
aS'438/B'
p227
aS'438/A'
p228
aS'425/E'
p229
aS'425/C'
p230
aS'425/D'
p231
aS'425/B'
p232
aS'425/A'
p233
aS'409/H'
p234
aS'409/F'
p235
aS'409/A'
p236
aS'409/D'
p237
aS'409/B'
p238
aS'409/E'
p239
aS'409/C'
p240
aS'407/D'
p241
aS'407/C'
p242
aS'407/B'
p243
aS'407/A'
p244
aS'403/E'
p245
aS'403/C'
p246
aS'403/A'
p247
aS'403/B'
p248
aS'403/D'
p249
aS'388/E'
p250
aS'388/D'
p251
aS'388/C'
p252
aS'388/B'
p253
aS'388/A'
p254
aS'380/A'
p255
aS'380/B'
p256
aS'380/E'
p257
aS'380/D'
p258
aS'380/C'
p259
aS'379/G'
p260
aS'379/F'
p261
aS'379/E'
p262
aS'379/D'
p263
aS'379/C'
p264
aS'379/B'
p265
aS'379/A'
p266
aS'377/C'
p267
aS'377/D'
p268
aS'377/E'
p269
aS'377/B'
p270
aS'377/A'
p271
aS'372/C'
p272
aS'372/B'
p273
aS'372/A'
p274
aS'367/D'
p275
aS'367/E'
p276
aS'367/C'
p277
aS'367/B'
p278
aS'367/A'
p279
aS'364/D'
p280
aS'364/A'
p281
aS'364/B'
p282
aS'364/C'
p283
aS'351/D'
p284
aS'351/C'
p285
aS'351/B'
p286
aS'346/E'
p287
aS'346/D'
p288
aS'346/B'
p289
aS'346/A'
p290
aS'343/E'
p291
aS'343/D'
p292
aS'343/C'
p293
aS'343/B'
p294
aS'343/A'
p295
aS'326/C'
p296
aS'326/D'
p297
aS'326/E'
p298
aS'326/B'
p299
aS'326/A'
p300
aS'329/D'
p301
aS'329/B'
p302
aS'329/C'
p303
aS'329/A'
p304
aS'331/D1'
p305
aS'331/D3'
p306
aS'331/D2'
p307
aS'324/B2'
p308
aS'324/B1'
p309
aS'324/A2'
p310
aS'324/A1'
p311
aS'324/C3'
p312
aS'324/C2'
p313
aS'324/C1'
p314
aS'325/D'
p315
aS'325/C'
p316
aS'325/B'
p317
aS'325/A'
p318
aS'319/E'
p319
aS'319/C'
p320
aS'319/B'
p321
aS'319/A'
p322
aS'316/G2'
p323
aS'316/G1'
p324
aS'316/E3'
p325
aS'316/E2'
p326
aS'316/F3'
p327
aS'316/F2'
p328
aS'316/F1'
p329
aS'316/E1'
p330
aS'316/C1'
p331
aS'316/D3'
p332
aS'316/D2'
p333
aS'316/B2'
p334
aS'316/B1'
p335
aS'316/D1'
p336
aS'316/A2'
p337
aS'316/A1'
p338
aS'303/D'
p339
aS'303/B'
p340
aS'303/A'
p341
aS'293/A'
p342
aS'292/D'
p343
aS'292/E'
p344
aS'292/C'
p345
aS'292/A'
p346
aS'292/B'
p347
aS'291/E'
p348
aS'291/D'
p349
aS'291/C'
p350
aS'291/B'
p351
aS'291/A'
p352
aS'280/A'
p353
aS'280/B'
p354
aS'280/C'
p355
aS'277/D'
p356
aS'277/E'
p357
aS'277/C'
p358
aS'277/A'
p359
aS'274/E'
p360
aS'274/D'
p361
aS'274/C'
p362
aS'274/B'
p363
aS'274/A'
p364
aS'269/C'
p365
aS'269/D'
p366
aS'269/B'
p367
aS'269/A'
p368
aS'264/D'
p369
aS'264/C'
p370
aS'264/B'
p371
aS'264/A'
p372
aS'261/C'
p373
aS'261/B'
p374
aS'261/A'
p375
aS'258/B'
p376
aS'258/D'
p377
aS'258/C'
p378
aS'258/E'
p379
aS'258/A'
p380
aS'251/D'
p381
aS'251/D'
p382
aS'251/C'
p383
aS'251/B'
p384
aS'251/A'
p385
aS'243/A'
p386
aS'243/C'
p387
aS'235/E'
p388
aS'235/D'
p389
aS'235/B'
p390
aS'235/A'
p391
aS'223/D'
p392
aS'223/A'
p393
aS'223/C'
p394
aS'223/B'
p395
aS'217/C'
p396
aS'217/A'
p397
aS'217/D'
p398
aS'217/B'
p399
aS'213/A'
p400
aS'213/E'
p401
aS'213/C'
p402
aS'213/D'
p403
aS'213/B'
p404
aS'198/C'
p405
aS'198/D'
p406
aS'198/E'
p407
aS'198/B'
p408
aS'198/A'
p409
aS'196/E'
p410
aS'196/E'
p411
aS'196/E'
p412
aS'196/D'
p413
aS'196/E'
p414
aS'196/C'
p415
aS'196/B'
p416
aS'196/A'
p417
aS'193/D'
p418
aS'193/E'
p419
aS'193/B'
p420
aS'193/C'
p421
aS'193/A'
p422
aS'188/H'
p423
aS'188/G'
p424
aS'188/E'
p425
aS'188/F'
p426
aS'188/D'
p427
aS'188/C'
p428
aS'188/B'
p429
aS'188/A'
p430
aS'173/D'
p431
aS'173/E'
p432
aS'173/C'
p433
aS'173/B'
p434
aS'173/A'
p435
aS'172/E'
p436
aS'172/D'
p437
aS'172/C'
p438
aS'172/B'
p439
aS'172/A'
p440
aS'150/D'
p441
aS'150/C'
p442
aS'150/B'
p443
aS'150/A'
p444
aS'140/E'
p445
aS'140/F'
p446
aS'140/D'
p447
aS'140/C'
p448
aS'140/B'
p449
aS'140/A'
p450
aS'123/E'
p451
aS'123/C'
p452
aS'123/D'
p453
aS'123/B'
p454
aS'123/A'
p455
aS'121/E'
p456
aS'121/D'
p457
aS'121/B'
p458
aS'121/C'
p459
aS'121/A'
p460
aS'115/C'
p461
aS'115/E'
p462
aS'115/D'
p463
aS'115/B'
p464
aS'115/A'
p465
aS'109/C'
p466
aS'109/B'
p467
aS'109/D'
p468
aS'109/A'
p469
aS'109/E'
p470
aS'98/A'
p471
aS'98/E'
p472
aS'98/C'
p473
aS'98/D'
p474
aS'97/A'
p475
aS'97/D'
p476
aS'97/C'
p477
aS'97/B'
p478
aS'95/E'
p479
aS'95/D'
p480
aS'95/C'
p481
aS'95/B'
p482
aS'95/A'
p483
aS'87/A'
p484
aS'87/B'
p485
aS'87/E'
p486
aS'87/D'
p487
aS'87/C'
p488
aS'86/D'
p489
aS'86/C'
p490
aS'86/E'
p491
aS'86/A'
p492
aS'85/E'
p493
aS'85/C'
p494
aS'85/B'
p495
aS'85/D'
p496
aS'85/A'
p497
aS'81/E'
p498
aS'81/B'
p499
aS'81/A'
p500
aS'81/D'
p501
aS'79/E'
p502
aS'79/C'
p503
aS'79/B'
p504
aS'79/A'
p505
aS'73/E'
p506
aS'73/C'
p507
aS'73/F'
p508
aS'73/B'
p509
aS'73/D'
p510
aS'73/A'
p511
aS'70/C'
p512
aS'70/E'
p513
aS'70/D'
p514
aS'70/B'
p515
aS'70/A'
p516
aS'68/D'
p517
aS'68/B'
p518
aS'68/A'
p519
aS'55/E'
p520
aS'55/C'
p521
aS'55/B'
p522
aS'55/A'
p523
aS'54/B'
p524
aS'54/E'
p525
aS'54/D'
p526
aS'54/C'
p527
aS'54/A'
p528
aS'51/E'
p529
aS'51/D'
p530
aS'51/B'
p531
aS'51/A'
p532
aS'50/C'
p533
aS'50/E'
p534
aS'50/D'
p535
aS'50/B'
p536
aS'50/A'
p537
aS'46/G'
p538
aS'46/F'
p539
aS'46/G'
p540
aS'46/E'
p541
aS'46/D'
p542
aS'46/C'
p543
aS'46/B'
p544
aS'46/A'
p545
aS'40/C'
p546
aS'40/E'
p547
aS'40/D'
p548
aS'40/B'
p549
aS'40/A'
p550
aS'36/A'
p551
aS'36/B'
p552
aS'36/C'
p553
aS'36/D'
p554
aS'36/E'
p555
aS'21/A'
p556
aS'21/B'
p557
aS'21/C'
p558
aS'21/D'
p559
aS'15/E'
p560
aS'15/C'
p561
aS'15/B'
p562
aS'15/A'
p563
aS'11/E'
p564
aS'11/D'
p565
aS'11/D'
p566
aS'11/C'
p567
aS'11/B'
p568
aS'11/A'
p569
aS'10/E'
p570
aS'10/C'
p571
aS'10/B'
p572
aS'10/A'
p573
aS'8/D'
p574
aS'8/E'
p575
aS'8/C'
p576
aS'8/B'
p577
aS'8/A'
p578
aS'7/E'
p579
aS'7/D'
p580
aS'7/C'
p581
aS'7/B'
p582
aS'7/A'
p583
aS'5/E'
p584
aS'5/D'
p585
aS'5/C'
p586
aS'5/B'
p587
aS'5/A'
p588
aS'3/D'
p589
aS'3/C'
p590
aS'3/B'
p591
aS'3/A'
p592
aS'2/B'
p593
aS'2/C'
p594
aS'2/A'
p595
aS'1/A'
p596
asb.