(icodeforcesuser
CodeForcesUser
p0
(dp1
S'city'
p2
S''
p3
sS'name'
p4
S'Yuhao Du'
p5
sS'ratings'
p6
S'3333'
p7
sS'url'
p8
S'http://codeforces.com/profile/TooDifficuIt'
p9
sS'country'
p10
S'China'
p11
sS'rank'
p12
S'legendary grandmaster'
p13
sS'uname'
p14
S'TooDifficuIt'
p15
sS'organization'
p16
g3
sS'submissions'
p17
(lp18
(dp19
S'submissionCount'
p20
S'1'
p21
sS'submissionDate'
p22
S'2011-05-24 09:29:07'
p23
sS'problemId'
p24
S'1/A'
p25
sa(dp26
g20
g21
sg22
S'2011-08-31 08:16:54'
p27
sg24
S'1/C'
p28
sa(dp29
g20
g21
sg22
S'2011-07-08 20:39:57'
p30
sg24
S'96/A'
p31
sa(dp32
g20
S'3'
p33
sg22
S'2011-07-08 20:59:40'
p34
sg24
S'96/B'
p35
sa(dp36
g20
S'2'
p37
sg22
S'2011-08-07 16:52:13'
p38
sg24
S'104/A'
p39
sa(dp40
g20
g21
sg22
S'2011-08-07 16:59:13'
p41
sg24
S'104/B'
p42
sa(dp43
g20
g33
sg22
S'2011-08-07 17:54:53'
p44
sg24
S'104/E'
p45
sa(dp46
g20
g21
sg22
S'2011-08-23 20:35:23'
p47
sg24
S'108/A'
p48
sa(dp49
g20
S'4'
p50
sg22
S'2011-08-23 21:32:30'
p51
sg24
S'108/C'
p52
sa(dp53
g20
g37
sg22
S'2011-08-23 21:02:52'
p54
sg24
S'108/D'
p55
sa(dp56
g20
g21
sg22
S'2012-01-19 18:14:47'
p57
sg24
S'144/A'
p58
sa(dp59
g20
g21
sg22
S'2012-01-19 18:36:48'
p60
sg24
S'144/B'
p61
sa(dp62
g20
g21
sg22
S'2012-01-19 18:52:55'
p63
sg24
S'144/C'
p64
sa(dp65
g20
g50
sg22
S'2012-12-22 20:46:53'
p66
sg24
S'192/A'
p67
sa(dp68
g20
g37
sg22
S'2012-05-27 21:11:10'
p69
sg24
S'192/B'
p70
sa(dp71
g20
g37
sg22
S'2012-05-27 21:23:44'
p72
sg24
S'192/C'
p73
sa(dp74
g20
g37
sg22
S'2012-05-27 22:45:02'
p75
sg24
S'192/D'
p76
sa(dp77
g20
g50
sg22
S'2012-05-27 22:19:10'
p78
sg24
S'192/E'
p79
sa(dp80
g20
g21
sg22
S'2012-08-18 12:45:19'
p81
sg24
S'217/A'
p82
sa(dp83
g20
g37
sg22
S'2012-08-18 13:31:49'
p84
sg24
S'217/B'
p85
sa(dp86
g20
g37
sg22
S'2012-10-21 17:42:42'
p87
sg24
S'235/A'
p88
sa(dp89
g20
g21
sg22
S'2012-10-21 12:54:16'
p90
sg24
S'235/B'
p91
sa(dp92
g20
g21
sg22
S'2014-09-22 20:07:32'
p93
sg24
S'249/E'
p94
sa(dp95
g20
g37
sg22
S'2012-12-22 23:35:03'
p96
sg24
S'258/A'
p97
sa(dp98
g20
g33
sg22
S'2012-12-22 21:55:21'
p99
sg24
S'258/B'
p100
sa(dp101
g20
g37
sg22
S'2012-12-22 23:35:13'
p102
sg24
S'258/C'
p103
sa(dp104
g20
g21
sg22
S'2013-12-13 19:40:29'
p105
sg24
S'372/A'
p106
sa(dp107
g20
g21
sg22
S'2013-12-13 19:53:42'
p108
sg24
S'372/B'
p109
sa(dp110
g20
g37
sg22
S'2013-12-13 20:14:19'
p111
sg24
S'372/C'
p112
sa(dp113
g20
g21
sg22
S'2013-12-13 20:29:02'
p114
sg24
S'372/D'
p115
sa(dp116
g20
g37
sg22
S'2013-12-30 21:05:15'
p117
sg24
S'379/A'
p118
sa(dp119
g20
g21
sg22
S'2013-12-30 21:13:32'
p120
sg24
S'379/B'
p121
sa(dp122
g20
g21
sg22
S'2013-12-30 21:08:48'
p123
sg24
S'379/C'
p124
sa(dp125
g20
g21
sg22
S'2013-12-30 21:24:56'
p126
sg24
S'379/D'
p127
sa(dp128
g20
g33
sg22
S'2013-12-30 22:34:38'
p129
sg24
S'379/E'
p130
sa(dp131
g20
g21
sg22
S'2014-05-16 16:24:45'
p132
sg24
S'414/D'
p133
sa(dp134
g20
g50
sg22
S'2015-12-04 23:47:30'
p135
sg24
S'471/E'
p136
sa(dp137
g20
g21
sg22
S'2014-10-19 14:58:52'
p138
sg24
S'480/A'
p139
sa(dp140
g20
g21
sg22
S'2014-10-19 14:51:35'
p141
sg24
S'480/B'
p142
sa(dp143
g20
g37
sg22
S'2014-10-19 14:41:36'
p144
sg24
S'480/C'
p145
sa(dp146
g20
g37
sg22
S'2016-02-06 11:25:24'
p147
sg24
S'494/A'
p148
sa(dp149
g20
g21
sg22
S'2016-02-06 11:16:08'
p150
sg24
S'494/B'
p151
sa(dp152
g20
g21
sg22
S'2016-02-06 12:14:52'
p153
sg24
S'494/C'
p154
sa(dp155
g20
g21
sg22
S'2016-02-06 11:46:17'
p156
sg24
S'494/D'
p157
sa(dp158
g20
S'5'
p159
sg22
S'2016-02-06 17:43:30'
p160
sg24
S'494/E'
p161
sa(dp162
g20
g21
sg22
S'2014-12-30 20:34:24'
p163
sg24
S'500/A'
p164
sa(dp165
g20
g21
sg22
S'2014-12-30 20:38:37'
p166
sg24
S'500/B'
p167
sa(dp168
g20
g21
sg22
S'2014-12-30 20:45:27'
p169
sg24
S'500/C'
p170
sa(dp171
g20
g21
sg22
S'2014-12-30 20:52:48'
p172
sg24
S'500/D'
p173
sa(dp174
g20
g33
sg22
S'2014-12-30 22:16:23'
p175
sg24
S'500/E'
p176
sa(dp177
g20
g50
sg22
S'2014-12-30 22:26:18'
p178
sg24
S'500/F'
p179
sa(dp180
g20
g33
sg22
S'2015-01-12 14:44:42'
p181
sg24
S'504/A'
p182
sa(dp183
g20
g21
sg22
S'2015-01-12 14:54:23'
p184
sg24
S'504/B'
p185
sa(dp186
g20
g37
sg22
S'2015-01-12 15:45:06'
p187
sg24
S'504/C'
p188
sa(dp189
g20
g50
sg22
S'2015-01-12 16:18:09'
p190
sg24
S'504/D'
p191
sa(dp192
g20
g21
sg22
S'2015-01-18 18:51:01'
p193
sg24
S'506/A'
p194
sa(dp195
g20
g21
sg22
S'2015-01-18 20:00:29'
p196
sg24
S'506/B'
p197
sa(dp198
g20
g37
sg22
S'2015-01-18 19:20:00'
p199
sg24
S'506/D'
p200
sa(dp201
g20
g21
sg22
S'2015-02-02 22:10:23'
p202
sg24
S'512/A'
p203
sa(dp204
g20
g21
sg22
S'2015-02-02 22:18:06'
p205
sg24
S'512/B'
p206
sa(dp207
g20
g21
sg22
S'2015-02-02 22:43:19'
p208
sg24
S'512/C'
p209
sa(dp210
g20
g21
sg22
S'2015-02-02 23:30:11'
p211
sg24
S'512/D'
p212
sa(dp213
g20
g21
sg22
S'2015-02-03 00:01:22'
p214
sg24
S'512/E'
p215
sa(dp216
g20
g21
sg22
S'2015-02-18 07:26:48'
p217
sg24
S'516/A'
p218
sa(dp219
g20
g37
sg22
S'2015-02-18 07:44:54'
p220
sg24
S'516/B'
p221
sa(dp222
g20
g21
sg22
S'2015-02-18 08:01:32'
p223
sg24
S'516/C'
p224
sa(dp225
g20
g21
sg22
S'2015-03-02 12:35:53'
p226
sg24
S'521/A'
p227
sa(dp228
g20
g21
sg22
S'2015-03-02 13:10:36'
p229
sg24
S'521/B'
p230
sa(dp231
g20
g33
sg22
S'2015-03-02 12:50:33'
p232
sg24
S'521/C'
p233
sa(dp234
g20
g50
sg22
S'2015-03-02 14:45:11'
p235
sg24
S'521/D'
p236
sa(dp237
g20
g21
sg22
S'2015-03-07 20:50:42'
p238
sg24
S'522/A'
p239
sa(dp240
g20
g21
sg22
S'2015-03-07 20:41:35'
p241
sg24
S'522/B'
p242
sa(dp243
g20
g37
sg22
S'2015-03-07 22:04:00'
p244
sg24
S'522/C'
p245
sa(dp246
g20
g21
sg22
S'2015-03-07 20:47:11'
p247
sg24
S'522/D'
p248
sa(dp249
g20
g21
sg22
S'2015-04-04 22:09:08'
p250
sg24
S'526/A'
p251
sa(dp252
g20
g21
sg22
S'2015-04-04 22:13:56'
p253
sg24
S'526/B'
p254
sa(dp255
g20
g21
sg22
S'2015-04-04 22:38:47'
p256
sg24
S'526/D'
p257
sa(dp258
g20
g37
sg22
S'2015-04-04 23:11:32'
p259
sg24
S'526/E'
p260
sa(dp261
g20
g37
sg22
S'2015-04-04 23:58:58'
p262
sg24
S'526/F'
p263
sa(dp264
g20
g21
sg22
S'2015-03-17 22:21:59'
p265
sg24
S'528/A'
p266
sa(dp267
g20
g21
sg22
S'2015-03-17 22:28:35'
p268
sg24
S'528/B'
p269
sa(dp270
g20
g33
sg22
S'2015-03-17 23:34:51'
p271
sg24
S'528/D'
p272
sa(dp273
g20
g37
sg22
S'2015-04-17 21:59:58'
p274
sg24
S'533/B'
p275
sa(dp276
g20
g21
sg22
S'2015-04-17 22:06:21'
p277
sg24
S'533/C'
p278
sa(dp279
g20
g21
sg22
S'2015-04-17 21:45:19'
p280
sg24
S'533/E'
p281
sa(dp282
g20
g33
sg22
S'2015-04-17 22:44:41'
p283
sg24
S'533/F'
p284
sa(dp285
g20
g21
sg22
S'2015-04-26 21:34:45'
p286
sg24
S'538/A'
p287
sa(dp288
g20
g37
sg22
S'2015-04-26 21:46:56'
p289
sg24
S'538/B'
p290
sa(dp291
g20
g21
sg22
S'2015-04-26 21:52:15'
p292
sg24
S'538/C'
p293
sa(dp294
g20
g21
sg22
S'2015-04-26 22:08:49'
p295
sg24
S'538/D'
p296
sa(dp297
g20
g21
sg22
S'2015-04-26 22:34:10'
p298
sg24
S'538/E'
p299
sa(dp300
g20
g21
sg22
S'2015-04-26 22:14:17'
p301
sg24
S'538/F'
p302
sa(dp303
g20
g33
sg22
S'2015-04-26 23:29:26'
p304
sg24
S'538/G'
p305
sa(dp306
g20
S'13'
p307
sg22
S'2015-04-27 13:00:17'
p308
sg24
S'538/H'
p309
sa(dp310
g20
g21
sg22
S'2015-05-21 22:10:56'
p311
sg24
S'542/C'
p312
sa(dp313
g20
g21
sg22
S'2015-05-26 22:31:07'
p314
sg24
S'547/A'
p315
sa(dp316
g20
g21
sg22
S'2015-05-26 22:21:22'
p317
sg24
S'547/B'
p318
sa(dp319
g20
g21
sg22
S'2015-05-26 22:13:32'
p320
sg24
S'547/C'
p321
sa(dp322
g20
g37
sg22
S'2015-05-27 00:49:36'
p323
sg24
S'547/D'
p324
sa(dp325
g20
g21
sg22
S'2015-05-26 23:18:43'
p326
sg24
S'547/E'
p327
sa(dp328
g20
g21
sg22
S'2015-06-06 18:33:55'
p329
sg24
S'549/A'
p330
sa(dp331
g20
g21
sg22
S'2015-06-06 19:50:41'
p332
sg24
S'549/B'
p333
sa(dp334
g20
g21
sg22
S'2015-06-06 19:35:43'
p335
sg24
S'549/C'
p336
sa(dp337
g20
g21
sg22
S'2015-06-06 19:26:06'
p338
sg24
S'549/D'
p339
sa(dp340
g20
g21
sg22
S'2015-06-06 20:21:31'
p341
sg24
S'549/F'
p342
sa(dp343
g20
g21
sg22
S'2015-06-06 19:05:01'
p344
sg24
S'549/G'
p345
sa(dp346
g20
g37
sg22
S'2015-06-06 18:43:40'
p347
sg24
S'549/H'
p348
sa(dp349
g20
g21
sg22
S'2015-06-24 22:10:50'
p350
sg24
S'553/A'
p351
sa(dp352
g20
g37
sg22
S'2015-06-24 22:39:37'
p353
sg24
S'553/B'
p354
sa(dp355
g20
g21
sg22
S'2015-06-24 22:35:41'
p356
sg24
S'553/C'
p357
sa(dp358
g20
g21
sg22
S'2015-06-24 22:59:25'
p359
sg24
S'553/D'
p360
sa(dp361
g20
S'14'
p362
sg22
S'2015-06-25 01:19:02'
p363
sg24
S'553/E'
p364
sa(dp365
g20
g33
sg22
S'2015-06-27 20:08:43'
p366
sg24
S'555/A'
p367
sa(dp368
g20
g37
sg22
S'2015-06-27 20:13:40'
p369
sg24
S'555/B'
p370
sa(dp371
g20
g33
sg22
S'2015-06-27 21:16:29'
p372
sg24
S'555/C'
p373
sa(dp374
g20
g21
sg22
S'2015-06-27 21:31:04'
p375
sg24
S'555/D'
p376
sa(dp377
g20
g33
sg22
S'2015-06-27 21:36:09'
p378
sg24
S'555/E'
p379
sa(dp380
g20
g21
sg22
S'2015-07-22 19:34:16'
p381
sg24
S'559/A'
p382
sa(dp383
g20
g21
sg22
S'2015-07-22 19:49:22'
p384
sg24
S'559/B'
p385
sa(dp386
g20
g21
sg22
S'2015-07-22 19:42:55'
p387
sg24
S'559/C'
p388
sa(dp389
g20
g33
sg22
S'2015-07-22 20:22:40'
p390
sg24
S'559/D'
p391
sa(dp392
g20
g21
sg22
S'2015-07-22 21:26:40'
p393
sg24
S'559/E'
p394
sa(dp395
g20
g21
sg22
S'2015-07-30 22:43:31'
p396
sg24
S'566/A'
p397
sa(dp398
g20
g21
sg22
S'2015-07-31 00:20:38'
p399
sg24
S'566/B'
p400
sa(dp401
g20
g21
sg22
S'2015-07-30 23:40:16'
p402
sg24
S'566/C'
p403
sa(dp404
g20
g21
sg22
S'2015-07-30 22:27:10'
p405
sg24
S'566/D'
p406
sa(dp407
g20
g21
sg22
S'2015-07-30 21:54:30'
p408
sg24
S'566/F'
p409
sa(dp410
g20
g37
sg22
S'2015-08-10 23:49:52'
p411
sg24
S'568/A'
p412
sa(dp413
g20
g21
sg22
S'2015-08-10 22:09:23'
p414
sg24
S'568/B'
p415
sa(dp416
g20
g37
sg22
S'2015-08-10 23:51:15'
p417
sg24
S'568/C'
p418
sa(dp419
g20
g21
sg22
S'2015-08-26 18:28:38'
p420
sg24
S'571/A'
p421
sa(dp422
g20
g21
sg22
S'2015-08-26 18:05:27'
p423
sg24
S'571/B'
p424
sa(dp425
g20
g37
sg22
S'2015-08-26 19:20:30'
p426
sg24
S'571/C'
p427
sa(dp428
g20
g21
sg22
S'2015-10-17 14:03:52'
p429
sg24
S'589/A'
p430
sa(dp431
g20
g21
sg22
S'2015-10-17 14:15:33'
p432
sg24
S'589/B'
p433
sa(dp434
g20
g50
sg22
S'2015-10-17 17:12:51'
p435
sg24
S'589/C'
p436
sa(dp437
g20
g21
sg22
S'2015-10-17 15:02:26'
p438
sg24
S'589/D'
p439
sa(dp440
g20
g33
sg22
S'2015-10-17 18:06:05'
p441
sg24
S'589/E'
p442
sa(dp443
g20
g21
sg22
S'2015-10-17 14:21:00'
p444
sg24
S'589/F'
p445
sa(dp446
g20
g21
sg22
S'2015-10-17 15:07:28'
p447
sg24
S'589/G'
p448
sa(dp449
g20
g21
sg22
S'2015-10-17 15:11:08'
p450
sg24
S'589/H'
p451
sa(dp452
g20
g21
sg22
S'2015-10-17 13:36:15'
p453
sg24
S'589/I'
p454
sa(dp455
g20
g21
sg22
S'2015-10-17 13:49:56'
p456
sg24
S'589/J'
p457
sa(dp458
g20
g50
sg22
S'2015-10-17 17:15:03'
p459
sg24
S'589/K'
p460
sa(dp461
g20
g21
sg22
S'2015-10-17 18:15:03'
p462
sg24
S'589/M'
p463
sa(dp464
g20
g21
sg22
S'2015-12-04 18:17:07'
p465
sg24
S'594/D'
p466
sa(dp467
g20
g21
sg22
S'2015-11-24 23:37:27'
p468
sg24
S'601/A'
p469
sa(dp470
g20
g21
sg22
S'2015-11-24 23:22:13'
p471
sg24
S'601/B'
p472
sa(dp473
g20
g37
sg22
S'2015-11-24 23:10:15'
p474
sg24
S'601/C'
p475
sa(dp476
g20
g21
sg22
S'2015-11-24 22:52:25'
p477
sg24
S'601/D'
p478
sa(dp479
g20
g21
sg22
S'2015-11-24 22:30:58'
p480
sg24
S'601/E'
p481
sa(dp482
g20
g37
sg22
S'2015-12-01 21:40:45'
p483
sg24
S'603/A'
p484
sa(dp485
g20
g37
sg22
S'2015-12-01 21:26:07'
p486
sg24
S'603/B'
p487
sa(dp488
g20
g21
sg22
S'2015-12-01 21:17:26'
p489
sg24
S'603/C'
p490
sa(dp491
g20
g37
sg22
S'2015-12-01 22:23:16'
p492
sg24
S'603/D'
p493
sa(dp494
g20
g33
sg22
S'2015-12-01 23:38:24'
p495
sg24
S'603/E'
p496
sa(dp497
g20
g21
sg22
S'2015-12-09 22:16:19'
p498
sg24
S'605/A'
p499
sa(dp500
g20
g21
sg22
S'2015-12-09 22:11:20'
p501
sg24
S'605/B'
p502
sa(dp503
g20
S'6'
p504
sg22
S'2015-12-10 00:15:18'
p505
sg24
S'605/C'
p506
sa(dp507
g20
g21
sg22
S'2015-12-09 22:31:14'
p508
sg24
S'605/D'
p509
sa(dp510
g20
g37
sg22
S'2015-12-09 21:51:55'
p511
sg24
S'605/E'
p512
sa(dp513
g20
g21
sg22
S'2015-12-23 22:15:27'
p514
sg24
S'607/A'
p515
sa(dp516
g20
g21
sg22
S'2015-12-23 22:20:24'
p517
sg24
S'607/B'
p518
sa(dp519
g20
g37
sg22
S'2015-12-23 23:31:12'
p520
sg24
S'607/C'
p521
sa(dp522
g20
g21
sg22
S'2015-12-23 22:56:08'
p523
sg24
S'607/D'
p524
sa(dp525
g20
g21
sg22
S'2015-12-30 21:07:11'
p526
sg24
S'611/A'
p527
sa(dp528
g20
g21
sg22
S'2015-12-30 20:40:48'
p529
sg24
S'611/B'
p530
sa(dp531
g20
g21
sg22
S'2015-12-30 21:02:59'
p532
sg24
S'611/C'
p533
sa(dp534
g20
g21
sg22
S'2015-12-30 20:55:24'
p535
sg24
S'611/D'
p536
sa(dp537
g20
g33
sg22
S'2015-12-30 22:59:53'
p538
sg24
S'611/G'
p539
sa(dp540
g20
g21
sg22
S'2016-01-16 13:01:14'
p541
sg24
S'613/A'
p542
sa(dp543
g20
g33
sg22
S'2016-01-16 14:20:29'
p544
sg24
S'613/B'
p545
sa(dp546
g20
g33
sg22
S'2016-01-16 13:45:03'
p547
sg24
S'613/C'
p548
sa(dp549
g20
g21
sg22
S'2016-01-16 14:17:25'
p550
sg24
S'613/D'
p551
sa(dp552
g20
g21
sg22
S'2016-02-03 11:41:36'
p553
sg24
S'618/A'
p554
sa(dp555
g20
g21
sg22
S'2016-02-03 11:45:44'
p556
sg24
S'618/B'
p557
sa(dp558
g20
g33
sg22
S'2016-02-03 12:14:40'
p559
sg24
S'618/C'
p560
sa(dp561
g20
g37
sg22
S'2016-02-03 13:03:33'
p562
sg24
S'618/D'
p563
sa(dp564
g20
g37
sg22
S'2016-02-03 12:42:38'
p565
sg24
S'618/E'
p566
sa(dp567
g20
g21
sg22
S'2016-02-03 13:34:13'
p568
sg24
S'618/F'
p569
sa(dp570
g20
g21
sg22
S'2016-02-04 22:56:37'
p571
sg24
S'623/B'
p572
sa(dp573
g20
g37
sg22
S'2016-02-05 00:31:48'
p574
sg24
S'623/D'
p575
sa(dp576
g20
g50
sg22
S'2016-02-05 00:07:07'
p577
sg24
S'623/E'
p578
sa(dp579
g20
g21
sg22
S'2016-02-13 23:07:27'
p580
sg24
S'626/A'
p581
sa(dp582
g20
g21
sg22
S'2016-02-13 23:28:05'
p583
sg24
S'626/B'
p584
sa(dp585
g20
g21
sg22
S'2016-02-13 23:17:31'
p586
sg24
S'626/C'
p587
sa(dp588
g20
g21
sg22
S'2016-02-13 23:24:09'
p589
sg24
S'626/D'
p590
sa(dp591
g20
g21
sg22
S'2016-02-14 01:12:32'
p592
sg24
S'626/E'
p593
sa(dp594
g20
g21
sg22
S'2016-02-13 23:40:31'
p595
sg24
S'626/F'
p596
sa(dp597
g20
g21
sg22
S'2016-02-14 00:50:41'
p598
sg24
S'626/G'
p599
sa(dp600
g20
g21
sg22
S'2016-02-26 22:51:06'
p601
sg24
S'633/A'
p602
sa(dp603
g20
g21
sg22
S'2016-02-26 22:47:14'
p604
sg24
S'633/B'
p605
sa(dp606
g20
g33
sg22
S'2016-02-27 00:18:52'
p607
sg24
S'633/C'
p608
sa(dp609
g20
g159
sg22
S'2016-02-27 11:09:16'
p610
sg24
S'633/D'
p611
sa(dp612
g20
g21
sg22
S'2016-02-27 01:03:20'
p613
sg24
S'633/E'
p614
sa(dp615
g20
g37
sg22
S'2016-02-27 00:45:41'
p616
sg24
S'633/F'
p617
sa(dp618
g20
g21
sg22
S'2016-02-26 23:11:38'
p619
sg24
S'633/G'
p620
sa(dp621
g20
g37
sg22
S'2016-02-27 00:15:34'
p622
sg24
S'633/H'
p623
sa(dp624
g20
g159
sg22
S'2016-03-29 02:43:35'
p625
sg24
S'639/F'
p626
sa(dp627
g20
g21
sg22
S'2016-03-07 14:58:26'
p628
sg24
S'650/A'
p629
sa(dp630
g20
g21
sg22
S'2016-03-07 15:13:41'
p631
sg24
S'650/B'
p632
sa(dp633
g20
g21
sg22
S'2016-03-07 15:24:31'
p634
sg24
S'650/C'
p635
sa(dp636
g20
g21
sg22
S'2016-03-07 15:52:07'
p637
sg24
S'650/D'
p638
sa(dp639
g20
g37
sg22
S'2016-03-07 16:22:54'
p640
sg24
S'650/E'
p641
sa(dp642
g20
g21
sg22
S'2016-03-19 15:00:00'
p643
sg24
S'653/A'
p644
sa(dp645
g20
g21
sg22
S'2016-03-19 15:03:42'
p646
sg24
S'653/B'
p647
sa(dp648
g20
g21
sg22
S'2016-03-19 15:57:15'
p649
sg24
S'653/C'
p650
sa(dp651
g20
g37
sg22
S'2016-03-23 13:32:06'
p652
sg24
S'653/D'
p653
sa(dp654
g20
g21
sg22
S'2016-03-19 15:22:37'
p655
sg24
S'653/E'
p656
sa(dp657
g20
g21
sg22
S'2016-03-19 15:43:34'
p658
sg24
S'653/F'
p659
sa(dp660
g20
g21
sg22
S'2016-03-19 14:55:45'
p661
sg24
S'653/G'
p662
sa(dp663
g20
g21
sg22
S'2016-03-18 22:08:51'
p664
sg24
S'655/A'
p665
sa(dp666
g20
g21
sg22
S'2016-03-18 22:23:07'
p667
sg24
S'655/B'
p668
sa(dp669
g20
g21
sg22
S'2016-03-18 22:20:18'
p670
sg24
S'655/C'
p671
sa(dp672
g20
g37
sg22
S'2016-03-18 22:15:58'
p673
sg24
S'655/D'
p674
sa(dp675
g20
g21
sg22
S'2016-03-18 22:40:46'
p676
sg24
S'655/E'
p677
sa(dp678
g20
g21
sg22
S'2016-03-18 22:32:37'
p679
sg24
S'655/F'
p680
sa(dp681
g20
g37
sg22
S'2016-03-18 23:29:12'
p682
sg24
S'655/G'
p683
sa(dp684
g20
g21
sg22
S'2016-04-22 11:36:45'
p685
sg24
S'663/A'
p686
sa(dp687
g20
g21
sg22
S'2016-04-22 11:48:30'
p688
sg24
S'663/B'
p689
sa(dp690
g20
g21
sg22
S'2016-04-22 12:00:42'
p691
sg24
S'663/C'
p692
sa(dp693
g20
g37
sg22
S'2016-04-22 13:09:32'
p694
sg24
S'663/D'
p695
sa(dp696
g20
g21
sg22
S'2016-04-22 12:11:43'
p697
sg24
S'663/E'
p698
sa(dp699
g20
g37
sg22
S'2016-04-24 22:50:38'
p700
sg24
S'668/A'
p701
sa(dp702
g20
g21
sg22
S'2016-04-24 22:26:12'
p703
sg24
S'668/B'
p704
sa(dp705
g20
g21
sg22
S'2016-04-24 22:14:10'
p706
sg24
S'668/C'
p707
sa(dp708
g20
g21
sg22
S'2016-04-24 22:35:46'
p709
sg24
S'668/D'
p710
sa(dp711
g20
g159
sg22
S'2016-04-25 03:20:20'
p712
sg24
S'668/F'
p713
sa(dp714
g20
g21
sg22
S'2016-05-11 23:02:28'
p715
sg24
S'671/A'
p716
sa(dp717
g20
g21
sg22
S'2016-05-11 22:54:27'
p718
sg24
S'671/B'
p719
sa(dp720
g20
g37
sg22
S'2016-05-11 23:48:58'
p721
sg24
S'671/C'
p722
sa(dp723
g20
g37
sg22
S'2016-05-12 00:36:27'
p724
sg24
S'671/D'
p725
sa(dp726
g20
g21
sg22
S'2016-05-11 13:42:33'
p727
sg24
S'674/A'
p728
sa(dp729
g20
g21
sg22
S'2016-05-11 14:52:07'
p730
sg24
S'674/B'
p731
sa(dp732
g20
g21
sg22
S'2016-05-11 15:07:37'
p733
sg24
S'674/E'
p734
sa(dp735
g20
g21
sg22
S'2016-05-11 14:48:57'
p736
sg24
S'674/F'
p737
sa(dp738
g20
g21
sg22
S'2016-06-29 22:49:25'
p739
sg24
S'687/A'
p740
sa(dp741
g20
g21
sg22
S'2016-06-29 22:39:26'
p742
sg24
S'687/B'
p743
sa(dp744
g20
g21
sg22
S'2016-06-29 22:43:53'
p745
sg24
S'687/C'
p746
sa(dp747
g20
g21
sg22
S'2016-06-29 23:01:06'
p748
sg24
S'687/D'
p749
sa(dp750
g20
g21
sg22
S'2016-06-29 23:50:56'
p751
sg24
S'687/E'
p752
sa(dp753
g20
g21
sg22
S'2016-07-14 22:37:06'
p754
sg24
S'696/A'
p755
sa(dp756
g20
g21
sg22
S'2016-07-14 22:34:13'
p757
sg24
S'696/B'
p758
sa(dp759
g20
g21
sg22
S'2016-07-14 22:12:55'
p760
sg24
S'696/C'
p761
sa(dp762
g20
g21
sg22
S'2016-07-14 22:30:05'
p763
sg24
S'696/D'
p764
sa(dp765
g20
g33
sg22
S'2016-09-10 19:46:06'
p766
sg24
S'696/E'
p767
sa(dp768
g20
g21
sg22
S'2016-07-19 20:43:43'
p769
sg24
S'698/A'
p770
sa(dp771
g20
g21
sg22
S'2016-07-19 20:39:08'
p772
sg24
S'698/B'
p773
sa(dp774
g20
g21
sg22
S'2016-07-19 19:55:12'
p775
sg24
S'698/C'
p776
sa(dp777
g20
g21
sg22
S'2016-07-19 20:31:51'
p778
sg24
S'698/D'
p779
sa(dp780
g20
g21
sg22
S'2016-07-19 19:22:48'
p781
sg24
S'698/F'
p782
sa(dp783
g20
g21
sg22
S'2016-08-24 22:09:47'
p784
sg24
S'708/A'
p785
sa(dp786
g20
g504
sg22
S'2016-08-25 00:50:34'
p787
sg24
S'708/B'
p788
sa(dp789
g20
g21
sg22
S'2016-08-24 22:58:22'
p790
sg24
S'708/D'
p791
sa(dp792
g20
g21
sg22
S'2016-08-24 23:36:39'
p793
sg24
S'708/E'
p794
sa(dp795
g20
g21
sg22
S'2016-09-13 22:14:50'
p796
sg24
S'713/A'
p797
sa(dp798
g20
g21
sg22
S'2016-09-13 22:28:44'
p799
sg24
S'713/C'
p800
sa(dp801
g20
g159
sg22
S'2016-09-14 02:54:44'
p802
sg24
S'713/D'
p803
sa(dp804
g20
g21
sg22
S'2016-09-17 19:22:21'
p805
sg24
S'715/A'
p806
sa(dp807
g20
g33
sg22
S'2016-09-17 19:38:40'
p808
sg24
S'715/B'
p809
sa(dp810
g20
g21
sg22
S'2016-09-17 19:59:00'
p811
sg24
S'715/C'
p812
sa(dp813
g20
g33
sg22
S'2016-09-17 21:05:19'
p814
sg24
S'715/D'
p815
sa(dp816
g20
g21
sg22
S'2016-09-23 19:08:19'
p817
sg24
S'718/A'
p818
sa(dp819
g20
g21
sg22
S'2016-09-23 20:28:28'
p820
sg24
S'718/D'
p821
sa(dp822
g20
g37
sg22
S'2016-09-19 00:45:40'
p823
sg24
S'720/C'
p824
sa(dp825
g20
g21
sg22
S'2016-10-06 14:45:00'
p826
sg24
S'722/A'
p827
sa(dp828
g20
g21
sg22
S'2016-10-06 14:33:20'
p829
sg24
S'722/B'
p830
sa(dp831
g20
g21
sg22
S'2016-10-06 14:40:46'
p832
sg24
S'722/C'
p833
sa(dp834
g20
g37
sg22
S'2016-10-06 14:28:41'
p835
sg24
S'722/D'
p836
sa(dp837
g20
g21
sg22
S'2016-10-06 15:43:08'
p838
sg24
S'722/E'
p839
sa(dp840
g20
g159
sg22
S'2016-10-06 16:14:51'
p841
sg24
S'722/F'
p842
sa(dp843
g20
g21
sg22
S'2016-10-08 17:51:42'
p844
sg24
S'724/A'
p845
sa(dp846
g20
g21
sg22
S'2016-10-08 18:11:30'
p847
sg24
S'724/B'
p848
sa(dp849
g20
g21
sg22
S'2016-10-08 18:05:48'
p850
sg24
S'724/C'
p851
sa(dp852
g20
g21
sg22
S'2016-10-08 18:21:49'
p853
sg24
S'724/D'
p854
sa(dp855
g20
g21
sg22
S'2016-10-08 18:59:19'
p856
sg24
S'724/E'
p857
sa(dp858
g20
g37
sg22
S'2016-10-08 18:51:07'
p859
sg24
S'724/F'
p860
sa(dp861
g20
g37
sg22
S'2016-10-08 19:37:48'
p862
sg24
S'724/G'
p863
sa(dp864
g20
g21
sg22
S'2016-10-22 20:38:35'
p865
sg24
S'725/A'
p866
sa(dp867
g20
g21
sg22
S'2016-10-22 20:45:06'
p868
sg24
S'725/B'
p869
sa(dp870
g20
g33
sg22
S'2016-10-23 00:40:31'
p871
sg24
S'725/C'
p872
sa(dp873
g20
g21
sg22
S'2016-10-22 20:59:17'
p874
sg24
S'725/D'
p875
sa(dp876
g20
g37
sg22
S'2016-10-22 22:03:10'
p877
sg24
S'725/E'
p878
sa(dp879
g20
g159
sg22
S'2016-10-23 00:29:34'
p880
sg24
S'725/F'
p881
sa(dp882
g20
g21
sg22
S'2016-10-23 13:48:13'
p883
sg24
S'730/A'
p884
sa(dp885
g20
g21
sg22
S'2016-10-23 13:55:10'
p886
sg24
S'730/B'
p887
sa(dp888
g20
g21
sg22
S'2016-10-23 14:22:15'
p889
sg24
S'730/C'
p890
sa(dp891
g20
g21
sg22
S'2016-10-23 14:52:35'
p892
sg24
S'730/D'
p893
sa(dp894
g20
g21
sg22
S'2016-10-23 14:54:33'
p895
sg24
S'730/E'
p896
sa(dp897
g20
g21
sg22
S'2016-10-23 13:52:29'
p898
sg24
S'730/G'
p899
sa(dp900
g20
g21
sg22
S'2016-10-23 13:58:22'
p901
sg24
S'730/H'
p902
sa(dp903
g20
g37
sg22
S'2016-10-23 14:38:27'
p904
sg24
S'730/I'
p905
sa(dp906
g20
g21
sg22
S'2016-10-23 13:44:41'
p907
sg24
S'730/J'
p908
sa(dp909
g20
g50
sg22
S'2016-11-20 18:56:42'
p910
sg24
S'737/C'
p911
sa(dp912
g20
g37
sg22
S'2016-11-20 19:17:59'
p913
sg24
S'737/D'
p914
sa(dp915
g20
g21
sg22
S'2016-11-23 22:50:07'
p916
sg24
S'739/A'
p917
sa(dp918
g20
g21
sg22
S'2016-11-23 22:47:25'
p919
sg24
S'739/B'
p920
sa(dp921
g20
g21
sg22
S'2016-11-23 23:12:34'
p922
sg24
S'739/C'
p923
sa(dp924
g20
g21
sg22
S'2016-11-23 22:33:45'
p925
sg24
S'739/E'
p926
sasS'probs'
p927
(lp928
S'739/C'
p929
aS'739/A'
p930
aS'739/B'
p931
aS'739/E'
p932
aS'737/D'
p933
aS'737/C'
p934
aS'730/E'
p935
aS'730/D'
p936
aS'730/I'
p937
aS'730/C'
p938
aS'730/H'
p939
aS'730/B'
p940
aS'730/G'
p941
aS'730/A'
p942
aS'730/J'
p943
aS'725/C'
p944
aS'725/F'
p945
aS'725/E'
p946
aS'725/D'
p947
aS'725/B'
p948
aS'725/A'
p949
aS'724/G'
p950
aS'724/E'
p951
aS'724/F'
p952
aS'724/D'
p953
aS'724/B'
p954
aS'724/C'
p955
aS'724/A'
p956
aS'722/F'
p957
aS'722/E'
p958
aS'722/A'
p959
aS'722/C'
p960
aS'722/B'
p961
aS'722/D'
p962
aS'718/D'
p963
aS'718/A'
p964
aS'720/C'
p965
aS'720/C'
p966
aS'715/D'
p967
aS'715/C'
p968
aS'715/B'
p969
aS'715/A'
p970
aS'713/D'
p971
aS'713/D'
p972
aS'713/C'
p973
aS'713/A'
p974
aS'696/E'
p975
aS'708/B'
p976
aS'708/E'
p977
aS'708/D'
p978
aS'708/A'
p979
aS'698/A'
p980
aS'698/B'
p981
aS'698/D'
p982
aS'698/C'
p983
aS'698/F'
p984
aS'696/E'
p985
aS'696/A'
p986
aS'696/B'
p987
aS'696/D'
p988
aS'696/C'
p989
aS'687/E'
p990
aS'687/D'
p991
aS'687/A'
p992
aS'687/C'
p993
aS'687/B'
p994
aS'671/D'
p995
aS'671/C'
p996
aS'671/A'
p997
aS'671/B'
p998
aS'674/E'
p999
aS'674/B'
p1000
aS'674/F'
p1001
aS'674/A'
p1002
aS'668/F'
p1003
aS'668/A'
p1004
aS'668/D'
p1005
aS'668/B'
p1006
aS'668/C'
p1007
aS'663/D'
p1008
aS'663/E'
p1009
aS'663/C'
p1010
aS'663/B'
p1011
aS'663/A'
p1012
aS'639/F'
p1013
aS'653/D'
p1014
aS'653/C'
p1015
aS'653/F'
p1016
aS'653/E'
p1017
aS'653/D'
p1018
aS'653/B'
p1019
aS'653/A'
p1020
aS'653/G'
p1021
aS'655/G'
p1022
aS'655/E'
p1023
aS'655/F'
p1024
aS'655/B'
p1025
aS'655/C'
p1026
aS'655/D'
p1027
aS'655/A'
p1028
aS'650/E'
p1029
aS'650/D'
p1030
aS'650/C'
p1031
aS'650/B'
p1032
aS'650/A'
p1033
aS'633/D'
p1034
aS'633/E'
p1035
aS'633/F'
p1036
aS'633/C'
p1037
aS'633/H'
p1038
aS'633/G'
p1039
aS'633/A'
p1040
aS'633/B'
p1041
aS'626/E'
p1042
aS'626/G'
p1043
aS'626/F'
p1044
aS'626/B'
p1045
aS'626/D'
p1046
aS'626/C'
p1047
aS'626/A'
p1048
aS'494/E'
p1049
aS'494/E'
p1050
aS'494/C'
p1051
aS'494/D'
p1052
aS'494/A'
p1053
aS'494/B'
p1054
aS'623/D'
p1055
aS'623/E'
p1056
aS'623/B'
p1057
aS'618/F'
p1058
aS'618/D'
p1059
aS'618/E'
p1060
aS'618/C'
p1061
aS'618/B'
p1062
aS'618/A'
p1063
aS'613/B'
p1064
aS'613/D'
p1065
aS'613/C'
p1066
aS'613/A'
p1067
aS'611/G'
p1068
aS'611/A'
p1069
aS'611/C'
p1070
aS'611/D'
p1071
aS'611/B'
p1072
aS'607/C'
p1073
aS'607/D'
p1074
aS'607/B'
p1075
aS'607/A'
p1076
aS'605/C'
p1077
aS'605/D'
p1078
aS'605/A'
p1079
aS'605/B'
p1080
aS'605/C'
p1081
aS'605/E'
p1082
aS'471/E'
p1083
aS'594/D'
p1084
aS'603/E'
p1085
aS'603/D'
p1086
aS'603/A'
p1087
aS'603/B'
p1088
aS'603/C'
p1089
aS'601/A'
p1090
aS'601/B'
p1091
aS'601/C'
p1092
aS'601/D'
p1093
aS'601/E'
p1094
aS'589/M'
p1095
aS'589/E'
p1096
aS'589/K'
p1097
aS'589/C'
p1098
aS'589/H'
p1099
aS'589/G'
p1100
aS'589/D'
p1101
aS'589/F'
p1102
aS'589/B'
p1103
aS'589/A'
p1104
aS'589/J'
p1105
aS'589/I'
p1106
aS'571/C'
p1107
aS'571/A'
p1108
aS'571/B'
p1109
aS'568/C'
p1110
aS'568/A'
p1111
aS'568/B'
p1112
aS'566/B'
p1113
aS'566/C'
p1114
aS'566/A'
p1115
aS'566/D'
p1116
aS'566/F'
p1117
aS'559/E'
p1118
aS'559/D'
p1119
aS'559/B'
p1120
aS'559/C'
p1121
aS'559/A'
p1122
aS'555/E'
p1123
aS'555/D'
p1124
aS'555/C'
p1125
aS'555/B'
p1126
aS'555/A'
p1127
aS'553/E'
p1128
aS'553/D'
p1129
aS'553/B'
p1130
aS'553/C'
p1131
aS'553/A'
p1132
aS'549/F'
p1133
aS'549/B'
p1134
aS'549/C'
p1135
aS'549/D'
p1136
aS'549/G'
p1137
aS'549/H'
p1138
aS'549/A'
p1139
aS'547/D'
p1140
aS'547/E'
p1141
aS'547/A'
p1142
aS'547/B'
p1143
aS'547/C'
p1144
aS'542/C'
p1145
aS'538/H'
p1146
aS'538/G'
p1147
aS'538/E'
p1148
aS'538/F'
p1149
aS'538/D'
p1150
aS'538/C'
p1151
aS'538/B'
p1152
aS'538/A'
p1153
aS'533/F'
p1154
aS'533/C'
p1155
aS'533/B'
p1156
aS'533/E'
p1157
aS'526/F'
p1158
aS'526/E'
p1159
aS'526/D'
p1160
aS'526/B'
p1161
aS'526/A'
p1162
aS'528/D'
p1163
aS'528/B'
p1164
aS'528/A'
p1165
aS'522/C'
p1166
aS'522/A'
p1167
aS'522/D'
p1168
aS'522/B'
p1169
aS'521/D'
p1170
aS'521/B'
p1171
aS'521/C'
p1172
aS'521/A'
p1173
aS'516/C'
p1174
aS'516/B'
p1175
aS'516/A'
p1176
aS'512/E'
p1177
aS'512/D'
p1178
aS'512/C'
p1179
aS'512/B'
p1180
aS'512/A'
p1181
aS'506/B'
p1182
aS'506/D'
p1183
aS'506/A'
p1184
aS'504/D'
p1185
aS'504/C'
p1186
aS'504/B'
p1187
aS'504/A'
p1188
aS'500/F'
p1189
aS'500/E'
p1190
aS'500/D'
p1191
aS'500/C'
p1192
aS'500/B'
p1193
aS'500/A'
p1194
aS'480/A'
p1195
aS'480/B'
p1196
aS'480/C'
p1197
aS'249/E'
p1198
aS'414/D'
p1199
aS'379/E'
p1200
aS'379/D'
p1201
aS'379/B'
p1202
aS'379/C'
p1203
aS'379/A'
p1204
aS'372/D'
p1205
aS'372/C'
p1206
aS'372/B'
p1207
aS'372/A'
p1208
aS'258/C'
p1209
aS'258/A'
p1210
aS'258/B'
p1211
aS'192/A'
p1212
aS'235/A'
p1213
aS'235/B'
p1214
aS'217/B'
p1215
aS'217/A'
p1216
aS'192/A'
p1217
aS'192/D'
p1218
aS'192/E'
p1219
aS'192/C'
p1220
aS'192/B'
p1221
aS'144/C'
p1222
aS'144/B'
p1223
aS'144/A'
p1224
aS'1/C'
p1225
aS'108/C'
p1226
aS'108/D'
p1227
aS'108/A'
p1228
aS'104/E'
p1229
aS'104/B'
p1230
aS'104/A'
p1231
aS'96/B'
p1232
aS'96/A'
p1233
aS'1/A'
p1234
asb.