(icodeforcesuser
CodeForcesUser
p0
(dp1
S'city'
p2
S'Gomel'
p3
sS'name'
p4
S'Gennady Korotkevich'
p5
sS'ratings'
p6
S'3580'
p7
sS'url'
p8
S'http://codeforces.com/profile/tourist'
p9
sS'country'
p10
S'Belarus'
p11
sS'rank'
p12
S'legendary grandmaster'
p13
sS'uname'
p14
S'tourist'
p15
sS'organization'
p16
S'ITMO University'
p17
sS'submissions'
p18
(lp19
(dp20
S'submissionCount'
p21
S'1'
p22
sS'submissionDate'
p23
S'2011-07-14 16:58:55'
p24
sS'problemId'
p25
S'1/A'
p26
sa(dp27
g21
S'2'
p28
sg23
S'2010-02-25 22:43:34'
p29
sg25
S'2/A'
p30
sa(dp31
g21
S'3'
p32
sg23
S'2010-02-25 23:06:08'
p33
sg25
S'2/B'
p34
sa(dp35
g21
g22
sg23
S'2010-03-26 18:52:01'
p36
sg25
S'5/C'
p37
sa(dp38
g21
g22
sg23
S'2010-04-08 21:22:31'
p39
sg25
S'8/A'
p40
sa(dp41
g21
g22
sg23
S'2010-04-08 21:26:37'
p42
sg25
S'8/B'
p43
sa(dp44
g21
g22
sg23
S'2010-04-08 21:47:42'
p45
sg25
S'8/C'
p46
sa(dp47
g21
g22
sg23
S'2010-04-08 23:03:43'
p48
sg25
S'8/E'
p49
sa(dp50
g21
g22
sg23
S'2010-04-15 21:17:49'
p51
sg25
S'10/A'
p52
sa(dp53
g21
g22
sg23
S'2010-04-15 21:25:11'
p54
sg25
S'10/B'
p55
sa(dp56
g21
g32
sg23
S'2010-04-16 00:38:36'
p57
sg25
S'10/C'
p58
sa(dp59
g21
g22
sg23
S'2010-05-06 19:31:48'
p60
sg25
S'13/A'
p61
sa(dp62
g21
g22
sg23
S'2010-05-06 19:43:19'
p63
sg25
S'13/B'
p64
sa(dp65
g21
g22
sg23
S'2010-05-06 19:59:42'
p66
sg25
S'13/C'
p67
sa(dp68
g21
g22
sg23
S'2010-05-29 20:51:23'
p69
sg25
S'15/A'
p70
sa(dp71
g21
S'4'
p72
sg23
S'2010-06-01 00:41:31'
p73
sg25
S'15/B'
p74
sa(dp75
g21
g28
sg23
S'2010-05-29 22:47:41'
p76
sg25
S'15/C'
p77
sa(dp78
g21
g28
sg23
S'2010-05-29 21:27:32'
p79
sg25
S'15/D'
p80
sa(dp81
g21
g28
sg23
S'2010-05-29 22:47:28'
p82
sg25
S'15/E'
p83
sa(dp84
g21
g22
sg23
S'2010-06-03 18:31:37'
p85
sg25
S'16/A'
p86
sa(dp87
g21
g22
sg23
S'2010-06-03 18:33:51'
p88
sg25
S'16/B'
p89
sa(dp90
g21
g22
sg23
S'2010-06-03 18:36:59'
p91
sg25
S'16/C'
p92
sa(dp93
g21
g22
sg23
S'2010-06-03 18:46:27'
p94
sg25
S'16/D'
p95
sa(dp96
g21
g22
sg23
S'2010-06-03 18:41:35'
p97
sg25
S'16/E'
p98
sa(dp99
g21
g22
sg23
S'2010-06-24 20:44:54'
p100
sg25
S'19/A'
p101
sa(dp102
g21
g22
sg23
S'2010-06-24 20:36:34'
p103
sg25
S'19/B'
p104
sa(dp105
g21
g22
sg23
S'2010-06-24 21:07:29'
p106
sg25
S'19/C'
p107
sa(dp108
g21
g28
sg23
S'2010-06-24 22:04:46'
p109
sg25
S'19/E'
p110
sa(dp111
g21
g22
sg23
S'2010-06-28 18:42:14'
p112
sg25
S'21/A'
p113
sa(dp114
g21
g28
sg23
S'2010-06-28 21:01:08'
p115
sg25
S'21/B'
p116
sa(dp117
g21
g22
sg23
S'2010-06-28 18:50:02'
p118
sg25
S'21/C'
p119
sa(dp120
g21
g32
sg23
S'2010-06-28 21:21:32'
p121
sg25
S'21/D'
p122
sa(dp123
g21
g22
sg23
S'2010-07-09 20:31:28'
p124
sg25
S'23/A'
p125
sa(dp126
g21
g22
sg23
S'2010-07-09 20:35:50'
p127
sg25
S'23/B'
p128
sa(dp129
g21
g28
sg23
S'2010-07-09 21:38:12'
p130
sg25
S'23/E'
p131
sa(dp132
g21
g22
sg23
S'2010-07-26 18:40:37'
p133
sg25
S'24/A'
p134
sa(dp135
g21
g22
sg23
S'2010-07-26 18:37:26'
p136
sg25
S'24/B'
p137
sa(dp138
g21
S'7'
p139
sg23
S'2010-07-26 18:48:59'
p140
sg25
S'24/C'
p141
sa(dp142
g21
g32
sg23
S'2010-07-26 19:59:06'
p143
sg25
S'24/E'
p144
sa(dp145
g21
g22
sg23
S'2010-09-17 20:56:37'
p146
sg25
S'28/A'
p147
sa(dp148
g21
g22
sg23
S'2010-09-17 20:38:02'
p149
sg25
S'28/B'
p150
sa(dp151
g21
g22
sg23
S'2010-09-17 20:50:00'
p152
sg25
S'28/C'
p153
sa(dp154
g21
g22
sg23
S'2010-10-07 20:38:59'
p155
sg25
S'33/A'
p156
sa(dp157
g21
g22
sg23
S'2010-10-07 20:36:02'
p158
sg25
S'33/B'
p159
sa(dp160
g21
g22
sg23
S'2010-10-07 20:44:13'
p161
sg25
S'33/C'
p162
sa(dp163
g21
g22
sg23
S'2010-10-07 20:53:29'
p164
sg25
S'33/D'
p165
sa(dp166
g21
g22
sg23
S'2010-10-07 21:25:36'
p167
sg25
S'33/E'
p168
sa(dp169
g21
g22
sg23
S'2010-10-25 20:32:39'
p170
sg25
S'37/A'
p171
sa(dp172
g21
g22
sg23
S'2010-10-25 20:43:12'
p173
sg25
S'37/B'
p174
sa(dp175
g21
g22
sg23
S'2010-10-25 21:16:38'
p176
sg25
S'37/C'
p177
sa(dp178
g21
g28
sg23
S'2010-10-25 21:33:02'
p179
sg25
S'37/D'
p180
sa(dp181
g21
g22
sg23
S'2010-10-30 17:31:41'
p182
sg25
S'38/A'
p183
sa(dp184
g21
g22
sg23
S'2010-10-30 17:33:58'
p185
sg25
S'38/B'
p186
sa(dp187
g21
g22
sg23
S'2010-10-30 17:36:35'
p188
sg25
S'38/C'
p189
sa(dp190
g21
g22
sg23
S'2010-10-30 17:42:29'
p191
sg25
S'38/D'
p192
sa(dp193
g21
g22
sg23
S'2010-10-30 17:46:59'
p194
sg25
S'38/E'
p195
sa(dp196
g21
g22
sg23
S'2010-10-30 18:18:33'
p197
sg25
S'38/F'
p198
sa(dp199
g21
g32
sg23
S'2010-10-30 18:57:17'
p200
sg25
S'38/G'
p201
sa(dp202
g21
g22
sg23
S'2010-10-30 19:21:00'
p203
sg25
S'38/H'
p204
sa(dp205
g21
g22
sg23
S'2010-10-24 13:47:51'
p206
sg25
S'39/A'
p207
sa(dp208
g21
g22
sg23
S'2010-10-24 12:42:17'
p209
sg25
S'39/B'
p210
sa(dp211
g21
g22
sg23
S'2010-10-24 13:11:34'
p212
sg25
S'39/C'
p213
sa(dp214
g21
g22
sg23
S'2010-10-24 12:44:57'
p215
sg25
S'39/D'
p216
sa(dp217
g21
g22
sg23
S'2010-10-24 13:32:50'
p218
sg25
S'39/E'
p219
sa(dp220
g21
g22
sg23
S'2010-10-24 12:59:38'
p221
sg25
S'39/F'
p222
sa(dp223
g21
g28
sg23
S'2010-10-24 14:53:26'
p224
sg25
S'39/G'
p225
sa(dp226
g21
g22
sg23
S'2010-10-24 12:46:58'
p227
sg25
S'39/H'
p228
sa(dp229
g21
g28
sg23
S'2010-10-24 15:17:57'
p230
sg25
S'39/I'
p231
sa(dp232
g21
g22
sg23
S'2010-10-24 12:50:38'
p233
sg25
S'39/J'
p234
sa(dp235
g21
g32
sg23
S'2010-10-24 16:08:22'
p236
sg25
S'39/K'
p237
sa(dp238
g21
g22
sg23
S'2010-11-05 21:33:59'
p239
sg25
S'40/A'
p240
sa(dp241
g21
g22
sg23
S'2010-11-05 21:38:40'
p242
sg25
S'40/B'
p243
sa(dp244
g21
g22
sg23
S'2010-11-05 22:49:37'
p245
sg25
S'40/C'
p246
sa(dp247
g21
g22
sg23
S'2010-11-05 22:39:57'
p248
sg25
S'40/D'
p249
sa(dp250
g21
g32
sg23
S'2010-12-30 20:18:59'
p251
sg25
S'40/E'
p252
sa(dp253
g21
g28
sg23
S'2010-11-18 21:37:12'
p254
sg25
S'42/A'
p255
sa(dp256
g21
g28
sg23
S'2010-11-18 23:05:29'
p257
sg25
S'42/B'
p258
sa(dp259
g21
g32
sg23
S'2010-11-18 22:40:38'
p260
sg25
S'42/C'
p261
sa(dp262
g21
g22
sg23
S'2010-11-18 22:09:46'
p263
sg25
S'42/D'
p264
sa(dp265
g21
g22
sg23
S'2010-11-18 22:46:26'
p266
sg25
S'42/E'
p267
sa(dp268
g21
g22
sg23
S'2010-11-06 16:31:46'
p269
sg25
S'44/A'
p270
sa(dp271
g21
g22
sg23
S'2010-11-06 16:33:34'
p272
sg25
S'44/B'
p273
sa(dp274
g21
g22
sg23
S'2010-11-06 16:35:15'
p275
sg25
S'44/C'
p276
sa(dp277
g21
g22
sg23
S'2010-11-06 16:52:07'
p278
sg25
S'44/D'
p279
sa(dp280
g21
g22
sg23
S'2010-11-06 16:39:34'
p281
sg25
S'44/E'
p282
sa(dp283
g21
g22
sg23
S'2010-11-06 19:22:27'
p284
sg25
S'44/G'
p285
sa(dp286
g21
g22
sg23
S'2010-11-06 16:43:46'
p287
sg25
S'44/H'
p288
sa(dp289
g21
g22
sg23
S'2010-11-06 17:45:46'
p290
sg25
S'44/I'
p291
sa(dp292
g21
g28
sg23
S'2010-11-06 17:23:53'
p293
sg25
S'44/J'
p294
sa(dp295
g21
g22
sg23
S'2010-11-13 17:38:16'
p296
sg25
S'45/A'
p297
sa(dp298
g21
g72
sg23
S'2010-11-13 20:37:20'
p299
sg25
S'45/B'
p300
sa(dp301
g21
g72
sg23
S'2010-11-13 18:41:54'
p302
sg25
S'45/C'
p303
sa(dp304
g21
g22
sg23
S'2010-11-13 17:41:31'
p305
sg25
S'45/D'
p306
sa(dp307
g21
S'11'
p308
sg23
S'2010-11-13 18:47:23'
p309
sg25
S'45/E'
p310
sa(dp311
g21
g28
sg23
S'2010-11-23 15:09:55'
p312
sg25
S'45/F'
p313
sa(dp314
g21
g28
sg23
S'2010-11-13 18:07:01'
p315
sg25
S'45/G'
p316
sa(dp317
g21
g22
sg23
S'2010-11-13 19:55:18'
p318
sg25
S'45/H'
p319
sa(dp320
g21
g22
sg23
S'2010-11-13 17:46:01'
p321
sg25
S'45/I'
p322
sa(dp323
g21
g72
sg23
S'2010-11-13 17:56:04'
p324
sg25
S'45/J'
p325
sa(dp326
g21
g22
sg23
S'2010-12-05 13:39:09'
p327
sg25
S'46/A'
p328
sa(dp329
g21
g22
sg23
S'2010-12-05 13:38:06'
p330
sg25
S'46/B'
p331
sa(dp332
g21
g22
sg23
S'2010-12-05 13:34:43'
p333
sg25
S'46/C'
p334
sa(dp335
g21
g22
sg23
S'2010-12-05 13:50:41'
p336
sg25
S'46/D'
p337
sa(dp338
g21
g22
sg23
S'2010-12-05 13:43:18'
p339
sg25
S'46/E'
p340
sa(dp341
g21
g22
sg23
S'2010-12-05 14:52:30'
p342
sg25
S'46/F'
p343
sa(dp344
g21
g28
sg23
S'2010-12-05 14:36:43'
p345
sg25
S'46/G'
p346
sa(dp347
g21
g22
sg23
S'2010-12-20 21:51:58'
p348
sg25
S'50/A'
p349
sa(dp350
g21
g22
sg23
S'2010-12-20 21:54:14'
p351
sg25
S'50/B'
p352
sa(dp353
g21
g22
sg23
S'2010-12-20 22:33:56'
p354
sg25
S'50/C'
p355
sa(dp356
g21
g22
sg23
S'2010-12-20 22:27:52'
p357
sg25
S'50/D'
p358
sa(dp359
g21
g22
sg23
S'2010-12-20 22:09:16'
p360
sg25
S'50/E'
p361
sa(dp362
g21
g22
sg23
S'2010-12-28 21:33:38'
p363
sg25
S'51/A'
p364
sa(dp365
g21
g22
sg23
S'2010-12-28 21:37:56'
p366
sg25
S'51/B'
p367
sa(dp368
g21
g22
sg23
S'2010-12-28 21:46:54'
p369
sg25
S'51/C'
p370
sa(dp371
g21
g22
sg23
S'2010-12-28 22:05:24'
p372
sg25
S'51/D'
p373
sa(dp374
g21
g22
sg23
S'2010-12-28 22:23:20'
p375
sg25
S'51/E'
p376
sa(dp377
g21
g28
sg23
S'2010-12-29 00:34:11'
p378
sg25
S'51/F'
p379
sa(dp380
g21
g22
sg23
S'2011-01-25 21:33:12'
p381
sg25
S'57/A'
p382
sa(dp383
g21
g28
sg23
S'2011-01-25 21:37:48'
p384
sg25
S'57/B'
p385
sa(dp386
g21
g22
sg23
S'2011-01-25 21:41:32'
p387
sg25
S'57/C'
p388
sa(dp389
g21
g22
sg23
S'2011-01-25 22:06:16'
p390
sg25
S'57/D'
p391
sa(dp392
g21
g22
sg23
S'2011-02-19 21:32:28'
p393
sg25
S'60/A'
p394
sa(dp395
g21
g22
sg23
S'2011-02-19 21:46:21'
p396
sg25
S'60/B'
p397
sa(dp398
g21
g28
sg23
S'2011-02-20 00:27:48'
p399
sg25
S'60/C'
p400
sa(dp401
g21
g28
sg23
S'2011-02-19 22:07:34'
p402
sg25
S'60/D'
p403
sa(dp404
g21
g22
sg23
S'2011-02-19 22:30:45'
p405
sg25
S'60/E'
p406
sa(dp407
g21
g22
sg23
S'2011-02-25 21:32:54'
p408
sg25
S'62/A'
p409
sa(dp410
g21
g22
sg23
S'2011-02-25 21:44:53'
p411
sg25
S'62/B'
p412
sa(dp413
g21
g22
sg23
S'2011-02-25 22:54:35'
p414
sg25
S'62/C'
p415
sa(dp416
g21
g22
sg23
S'2011-02-25 22:25:09'
p417
sg25
S'62/D'
p418
sa(dp419
g21
g22
sg23
S'2011-02-21 21:33:33'
p420
sg25
S'64/A'
p421
sa(dp422
g21
g22
sg23
S'2011-02-21 21:34:59'
p423
sg25
S'64/B'
p424
sa(dp425
g21
g22
sg23
S'2011-02-21 21:43:17'
p426
sg25
S'64/C'
p427
sa(dp428
g21
g22
sg23
S'2011-02-21 21:51:04'
p429
sg25
S'64/D'
p430
sa(dp431
g21
g22
sg23
S'2011-02-21 21:58:42'
p432
sg25
S'64/E'
p433
sa(dp434
g21
g22
sg23
S'2011-03-13 22:07:56'
p435
sg25
S'67/A'
p436
sa(dp437
g21
g22
sg23
S'2011-03-13 22:36:32'
p438
sg25
S'67/B'
p439
sa(dp440
g21
g28
sg23
S'2011-03-13 23:24:55'
p441
sg25
S'67/C'
p442
sa(dp443
g21
g22
sg23
S'2011-03-13 22:18:39'
p444
sg25
S'67/D'
p445
sa(dp446
g21
g28
sg23
S'2011-03-13 23:00:23'
p447
sg25
S'67/E'
p448
sa(dp449
g21
g22
sg23
S'2011-04-10 13:33:48'
p450
sg25
S'73/A'
p451
sa(dp452
g21
g28
sg23
S'2011-04-10 15:07:56'
p453
sg25
S'73/B'
p454
sa(dp455
g21
g22
sg23
S'2011-04-10 13:45:27'
p456
sg25
S'73/C'
p457
sa(dp458
g21
g22
sg23
S'2011-04-10 14:49:16'
p459
sg25
S'73/D'
p460
sa(dp461
g21
g28
sg23
S'2011-04-10 14:07:12'
p462
sg25
S'73/E'
p463
sa(dp464
g21
g22
sg23
S'2011-04-15 20:32:55'
p465
sg25
S'74/A'
p466
sa(dp467
g21
g22
sg23
S'2011-04-15 20:48:56'
p468
sg25
S'74/B'
p469
sa(dp470
g21
g22
sg23
S'2011-04-15 21:33:44'
p471
sg25
S'74/C'
p472
sa(dp473
g21
g28
sg23
S'2011-04-15 22:20:19'
p474
sg25
S'74/D'
p475
sa(dp476
g21
g22
sg23
S'2011-04-15 21:28:12'
p477
sg25
S'74/E'
p478
sa(dp479
g21
g32
sg23
S'2011-04-12 18:33:57'
p480
sg25
S'76/A'
p481
sa(dp482
g21
g22
sg23
S'2011-04-12 18:47:06'
p483
sg25
S'76/B'
p484
sa(dp485
g21
g32
sg23
S'2011-04-12 19:24:42'
p486
sg25
S'76/C'
p487
sa(dp488
g21
g28
sg23
S'2011-04-12 19:30:55'
p489
sg25
S'76/D'
p490
sa(dp491
g21
g22
sg23
S'2011-04-12 19:39:06'
p492
sg25
S'76/E'
p493
sa(dp494
g21
g22
sg23
S'2011-04-12 19:50:41'
p495
sg25
S'76/F'
p496
sa(dp497
g21
g22
sg23
S'2011-04-19 20:53:37'
p498
sg25
S'77/A'
p499
sa(dp500
g21
g22
sg23
S'2011-04-19 22:42:56'
p501
sg25
S'77/C'
p502
sa(dp503
g21
g22
sg23
S'2011-04-19 21:33:22'
p504
sg25
S'77/D'
p505
sa(dp506
g21
g22
sg23
S'2011-05-06 20:33:42'
p507
sg25
S'82/A'
p508
sa(dp509
g21
g28
sg23
S'2011-05-06 21:03:31'
p510
sg25
S'82/B'
p511
sa(dp512
g21
g22
sg23
S'2011-05-06 21:13:31'
p513
sg25
S'82/C'
p514
sa(dp515
g21
g22
sg23
S'2011-05-06 20:54:47'
p516
sg25
S'82/D'
p517
sa(dp518
g21
g22
sg23
S'2011-05-06 22:17:38'
p519
sg25
S'82/E'
p520
sa(dp521
g21
g22
sg23
S'2011-05-13 20:41:57'
p522
sg25
S'83/A'
p523
sa(dp524
g21
g22
sg23
S'2011-05-13 20:49:57'
p525
sg25
S'83/B'
p526
sa(dp527
g21
g28
sg23
S'2011-05-13 21:23:59'
p528
sg25
S'83/C'
p529
sa(dp530
g21
g22
sg23
S'2011-05-13 21:40:22'
p531
sg25
S'83/D'
p532
sa(dp533
g21
g22
sg23
S'2011-05-13 21:58:04'
p534
sg25
S'83/E'
p535
sa(dp536
g21
g22
sg23
S'2011-05-20 20:37:28'
p537
sg25
S'85/A'
p538
sa(dp539
g21
g22
sg23
S'2011-05-20 20:45:58'
p540
sg25
S'85/B'
p541
sa(dp542
g21
g28
sg23
S'2011-05-20 22:10:20'
p543
sg25
S'85/C'
p544
sa(dp545
g21
g22
sg23
S'2011-05-20 21:45:24'
p546
sg25
S'85/D'
p547
sa(dp548
g21
g22
sg23
S'2011-05-20 21:20:33'
p549
sg25
S'85/E'
p550
sa(dp551
g21
g28
sg23
S'2011-05-22 20:47:57'
p552
sg25
S'86/A'
p553
sa(dp554
g21
g28
sg23
S'2011-05-22 23:16:21'
p555
sg25
S'86/B'
p556
sa(dp557
g21
S'8'
p558
sg23
S'2011-05-22 23:13:11'
p559
sg25
S'86/C'
p560
sa(dp561
g21
g22
sg23
S'2011-05-22 21:08:24'
p562
sg25
S'86/D'
p563
sa(dp564
g21
g22
sg23
S'2011-05-22 21:45:20'
p565
sg25
S'86/E'
p566
sa(dp567
g21
g22
sg23
S'2011-06-07 20:34:55'
p568
sg25
S'87/A'
p569
sa(dp570
g21
g72
sg23
S'2011-06-07 21:03:38'
p571
sg25
S'87/B'
p572
sa(dp573
g21
g22
sg23
S'2011-06-07 20:41:30'
p574
sg25
S'87/C'
p575
sa(dp576
g21
g28
sg23
S'2011-06-07 21:29:50'
p577
sg25
S'87/D'
p578
sa(dp579
g21
g72
sg23
S'2011-06-07 22:26:27'
p580
sg25
S'87/E'
p581
sa(dp582
g21
g22
sg23
S'2011-06-16 20:40:40'
p583
sg25
S'89/A'
p584
sa(dp585
g21
g28
sg23
S'2011-06-16 21:53:25'
p586
sg25
S'89/B'
p587
sa(dp588
g21
g22
sg23
S'2011-06-16 20:55:17'
p589
sg25
S'89/C'
p590
sa(dp591
g21
g22
sg23
S'2011-06-16 21:19:02'
p592
sg25
S'89/D'
p593
sa(dp594
g21
g22
sg23
S'2011-07-15 16:59:46'
p595
sg25
S'96/A'
p596
sa(dp597
g21
g22
sg23
S'2011-07-15 18:59:23'
p598
sg25
S'97/A'
p599
sa(dp600
g21
g22
sg23
S'2011-07-15 18:17:13'
p601
sg25
S'97/B'
p602
sa(dp603
g21
g22
sg23
S'2011-07-15 18:42:39'
p604
sg25
S'97/C'
p605
sa(dp606
g21
S'15'
p607
sg23
S'2011-07-15 23:21:09'
p608
sg25
S'97/D'
p609
sa(dp610
g21
g22
sg23
S'2011-08-03 22:34:57'
p611
sg25
S'101/A'
p612
sa(dp613
g21
g22
sg23
S'2011-08-03 22:49:32'
p614
sg25
S'101/B'
p615
sa(dp616
g21
g28
sg23
S'2011-08-04 01:04:20'
p617
sg25
S'101/C'
p618
sa(dp619
g21
g22
sg23
S'2011-08-03 23:36:13'
p620
sg25
S'101/D'
p621
sa(dp622
g21
g22
sg23
S'2011-08-03 23:15:08'
p623
sg25
S'101/E'
p624
sa(dp625
g21
g22
sg23
S'2011-08-13 20:38:19'
p626
sg25
S'105/A'
p627
sa(dp628
g21
g22
sg23
S'2011-08-13 20:44:29'
p629
sg25
S'105/B'
p630
sa(dp631
g21
g22
sg23
S'2011-08-13 21:20:57'
p632
sg25
S'105/C'
p633
sa(dp634
g21
g22
sg23
S'2011-08-19 21:00:39'
p635
sg25
S'106/A'
p636
sa(dp637
g21
g22
sg23
S'2011-08-19 20:38:30'
p638
sg25
S'106/B'
p639
sa(dp640
g21
g22
sg23
S'2011-08-19 20:35:46'
p641
sg25
S'106/C'
p642
sa(dp643
g21
g22
sg23
S'2011-08-19 20:56:49'
p644
sg25
S'106/D'
p645
sa(dp646
g21
g22
sg23
S'2011-08-23 20:45:40'
p647
sg25
S'107/A'
p648
sa(dp649
g21
g22
sg23
S'2011-08-23 20:38:06'
p650
sg25
S'107/B'
p651
sa(dp652
g21
g28
sg23
S'2011-08-23 22:07:14'
p653
sg25
S'107/C'
p654
sa(dp655
g21
g22
sg23
S'2011-08-23 21:45:54'
p656
sg25
S'107/D'
p657
sa(dp658
g21
g22
sg23
S'2011-08-29 21:32:17'
p659
sg25
S'109/A'
p660
sa(dp661
g21
g22
sg23
S'2011-08-29 22:12:04'
p662
sg25
S'109/B'
p663
sa(dp664
g21
g22
sg23
S'2011-08-29 22:02:44'
p665
sg25
S'109/C'
p666
sa(dp667
g21
g22
sg23
S'2011-08-29 21:52:58'
p668
sg25
S'109/D'
p669
sa(dp670
g21
g22
sg23
S'2011-09-03 17:32:29'
p671
sg25
S'111/A'
p672
sa(dp673
g21
g22
sg23
S'2011-09-03 17:39:48'
p674
sg25
S'111/B'
p675
sa(dp676
g21
g22
sg23
S'2011-09-03 17:51:51'
p677
sg25
S'111/C'
p678
sa(dp679
g21
S'9'
p680
sg23
S'2011-09-04 23:58:26'
p681
sg25
S'111/D'
p682
sa(dp683
g21
g22
sg23
S'2011-09-08 21:01:14'
p684
sg25
S'113/A'
p685
sa(dp686
g21
g28
sg23
S'2011-09-08 20:52:34'
p687
sg25
S'113/B'
p688
sa(dp689
g21
g32
sg23
S'2011-09-09 00:46:17'
p690
sg25
S'113/C'
p691
sa(dp692
g21
S'15'
p693
sg23
S'2011-09-09 00:53:13'
p694
sg25
S'113/D'
p695
sa(dp696
g21
g22
sg23
S'2011-09-08 22:11:35'
p697
sg25
S'113/E'
p698
sa(dp699
g21
g22
sg23
S'2011-09-15 20:32:30'
p700
sg25
S'115/A'
p701
sa(dp702
g21
g28
sg23
S'2011-09-15 22:17:38'
p703
sg25
S'115/B'
p704
sa(dp705
g21
g22
sg23
S'2011-09-15 20:42:22'
p706
sg25
S'115/C'
p707
sa(dp708
g21
g28
sg23
S'2011-09-15 21:47:00'
p709
sg25
S'115/D'
p710
sa(dp711
g21
g22
sg23
S'2011-09-15 21:09:32'
p712
sg25
S'115/E'
p713
sa(dp714
g21
g22
sg23
S'2011-09-23 20:35:33'
p715
sg25
S'117/A'
p716
sa(dp717
g21
g22
sg23
S'2011-09-23 20:41:30'
p718
sg25
S'117/B'
p719
sa(dp720
g21
g22
sg23
S'2011-09-23 20:51:55'
p721
sg25
S'117/C'
p722
sa(dp723
g21
g22
sg23
S'2011-09-23 21:31:23'
p724
sg25
S'117/D'
p725
sa(dp726
g21
g32
sg23
S'2011-09-24 01:30:26'
p727
sg25
S'117/E'
p728
sa(dp729
g21
g22
sg23
S'2011-10-14 20:31:47'
p730
sg25
S'119/A'
p731
sa(dp732
g21
g28
sg23
S'2011-10-14 21:00:52'
p733
sg25
S'119/C'
p734
sa(dp735
g21
g22
sg23
S'2011-10-14 21:17:31'
p736
sg25
S'119/D'
p737
sa(dp738
g21
g22
sg23
S'2011-10-18 12:02:14'
p739
sg25
S'120/A'
p740
sa(dp741
g21
g22
sg23
S'2011-10-18 12:03:49'
p742
sg25
S'120/B'
p743
sa(dp744
g21
g22
sg23
S'2011-10-18 12:05:37'
p745
sg25
S'120/C'
p746
sa(dp747
g21
g22
sg23
S'2011-10-18 12:11:16'
p748
sg25
S'120/D'
p749
sa(dp750
g21
g22
sg23
S'2011-10-18 12:40:55'
p751
sg25
S'120/E'
p752
sa(dp753
g21
g22
sg23
S'2011-10-18 12:15:55'
p754
sg25
S'120/F'
p755
sa(dp756
g21
g28
sg23
S'2011-10-18 13:13:37'
p757
sg25
S'120/G'
p758
sa(dp759
g21
g22
sg23
S'2011-10-18 12:34:47'
p760
sg25
S'120/H'
p761
sa(dp762
g21
g22
sg23
S'2011-10-18 13:28:49'
p763
sg25
S'120/I'
p764
sa(dp765
g21
g22
sg23
S'2011-10-18 13:11:12'
p766
sg25
S'120/J'
p767
sa(dp768
g21
g22
sg23
S'2011-10-27 20:33:49'
p769
sg25
S'121/A'
p770
sa(dp771
g21
g22
sg23
S'2011-10-27 20:52:41'
p772
sg25
S'121/B'
p773
sa(dp774
g21
g22
sg23
S'2011-10-27 20:43:44'
p775
sg25
S'121/C'
p776
sa(dp777
g21
g22
sg23
S'2011-10-27 21:10:39'
p778
sg25
S'121/D'
p779
sa(dp780
g21
g22
sg23
S'2011-10-27 21:41:46'
p781
sg25
S'121/E'
p782
sa(dp783
g21
g22
sg23
S'2011-11-03 20:51:03'
p784
sg25
S'123/A'
p785
sa(dp786
g21
g32
sg23
S'2011-11-03 23:52:45'
p787
sg25
S'123/B'
p788
sa(dp789
g21
g22
sg23
S'2011-11-03 21:46:24'
p790
sg25
S'123/C'
p791
sa(dp792
g21
g22
sg23
S'2011-11-03 21:32:24'
p793
sg25
S'123/D'
p794
sa(dp795
g21
g22
sg23
S'2011-11-03 22:00:36'
p796
sg25
S'123/E'
p797
sa(dp798
g21
g28
sg23
S'2011-11-09 23:35:17'
p799
sg25
S'126/A'
p800
sa(dp801
g21
g22
sg23
S'2011-11-09 22:38:39'
p802
sg25
S'126/B'
p803
sa(dp804
g21
g22
sg23
S'2011-11-09 22:44:59'
p805
sg25
S'126/C'
p806
sa(dp807
g21
g22
sg23
S'2011-11-09 23:11:23'
p808
sg25
S'126/D'
p809
sa(dp810
g21
g22
sg23
S'2011-11-15 11:50:09'
p811
sg25
S'128/A'
p812
sa(dp813
g21
g28
sg23
S'2011-11-15 12:14:58'
p814
sg25
S'128/B'
p815
sa(dp816
g21
g22
sg23
S'2011-11-15 12:02:08'
p817
sg25
S'128/C'
p818
sa(dp819
g21
g22
sg23
S'2011-11-15 12:28:58'
p820
sg25
S'128/D'
p821
sa(dp822
g21
g22
sg23
S'2012-01-04 20:58:38'
p823
sg25
S'140/A'
p824
sa(dp825
g21
g22
sg23
S'2012-01-04 20:52:48'
p826
sg25
S'140/B'
p827
sa(dp828
g21
g22
sg23
S'2012-01-04 20:44:59'
p829
sg25
S'140/C'
p830
sa(dp831
g21
g22
sg23
S'2012-01-04 21:02:45'
p832
sg25
S'140/D'
p833
sa(dp834
g21
g32
sg23
S'2012-01-04 21:42:39'
p835
sg25
S'140/E'
p836
sa(dp837
g21
g28
sg23
S'2012-01-04 22:07:40'
p838
sg25
S'140/F'
p839
sa(dp840
g21
g22
sg23
S'2012-01-12 20:41:35'
p841
sg25
S'142/A'
p842
sa(dp843
g21
g22
sg23
S'2012-01-12 20:48:04'
p844
sg25
S'142/B'
p845
sa(dp846
g21
g22
sg23
S'2012-01-12 21:39:48'
p847
sg25
S'142/C'
p848
sa(dp849
g21
g32
sg23
S'2012-01-12 22:01:41'
p850
sg25
S'142/D'
p851
sa(dp852
g21
g22
sg23
S'2012-01-22 12:35:38'
p853
sg25
S'145/A'
p854
sa(dp855
g21
g28
sg23
S'2012-01-22 13:13:53'
p856
sg25
S'145/B'
p857
sa(dp858
g21
g22
sg23
S'2012-01-22 14:23:38'
p859
sg25
S'145/C'
p860
sa(dp861
g21
g22
sg23
S'2012-01-22 13:27:41'
p862
sg25
S'145/D'
p863
sa(dp864
g21
g22
sg23
S'2012-01-22 13:52:19'
p865
sg25
S'145/E'
p866
sa(dp867
g21
g22
sg23
S'2012-02-17 20:36:40'
p868
sg25
S'150/A'
p869
sa(dp870
g21
g22
sg23
S'2012-02-17 20:41:25'
p871
sg25
S'150/B'
p872
sa(dp873
g21
g28
sg23
S'2012-02-17 21:23:25'
p874
sg25
S'150/C'
p875
sa(dp876
g21
g22
sg23
S'2012-02-24 20:35:56'
p877
sg25
S'154/A'
p878
sa(dp879
g21
g22
sg23
S'2012-02-24 20:43:33'
p880
sg25
S'154/B'
p881
sa(dp882
g21
g22
sg23
S'2012-02-24 20:55:46'
p883
sg25
S'154/C'
p884
sa(dp885
g21
g22
sg23
S'2012-02-24 21:17:44'
p886
sg25
S'154/D'
p887
sa(dp888
g21
g28
sg23
S'2012-03-01 01:55:15'
p889
sg25
S'156/A'
p890
sa(dp891
g21
g22
sg23
S'2012-02-29 23:08:08'
p892
sg25
S'156/B'
p893
sa(dp894
g21
g22
sg23
S'2012-02-29 23:20:46'
p895
sg25
S'156/C'
p896
sa(dp897
g21
g32
sg23
S'2012-03-01 00:59:08'
p898
sg25
S'156/D'
p899
sa(dp900
g21
g22
sg23
S'2012-03-01 00:41:15'
p901
sg25
S'156/E'
p902
sa(dp903
g21
g22
sg23
S'2012-03-04 14:50:39'
p904
sg25
S'158/A'
p905
sa(dp906
g21
g22
sg23
S'2012-03-04 14:51:19'
p907
sg25
S'158/B'
p908
sa(dp909
g21
g22
sg23
S'2012-03-04 14:55:49'
p910
sg25
S'158/C'
p911
sa(dp912
g21
g22
sg23
S'2012-03-04 14:56:18'
p913
sg25
S'158/D'
p914
sa(dp915
g21
g22
sg23
S'2012-03-04 15:25:11'
p916
sg25
S'158/E'
p917
sa(dp918
g21
g22
sg23
S'2012-03-11 20:41:36'
p919
sg25
S'161/A'
p920
sa(dp921
g21
g22
sg23
S'2012-03-11 21:19:39'
p922
sg25
S'161/B'
p923
sa(dp924
g21
g22
sg23
S'2012-03-11 22:19:36'
p925
sg25
S'161/C'
p926
sa(dp927
g21
g28
sg23
S'2012-03-11 21:05:26'
p928
sg25
S'161/D'
p929
sa(dp930
g21
g22
sg23
S'2012-03-11 21:41:14'
p931
sg25
S'161/E'
p932
sa(dp933
g21
g22
sg23
S'2012-03-25 20:42:30'
p934
sg25
S'163/A'
p935
sa(dp936
g21
g22
sg23
S'2012-03-25 21:05:52'
p937
sg25
S'163/B'
p938
sa(dp939
g21
g22
sg23
S'2012-03-25 20:55:29'
p940
sg25
S'163/C'
p941
sa(dp942
g21
g22
sg23
S'2012-03-25 21:32:22'
p943
sg25
S'163/E'
p944
sa(dp945
g21
g22
sg23
S'2012-04-08 20:42:45'
p946
sg25
S'164/A'
p947
sa(dp948
g21
g22
sg23
S'2012-04-08 21:08:50'
p949
sg25
S'164/B'
p950
sa(dp951
g21
S'5'
p952
sg23
S'2012-04-08 22:30:02'
p953
sg25
S'164/D'
p954
sa(dp955
g21
g22
sg23
S'2012-03-16 21:01:43'
p956
sg25
S'165/A'
p957
sa(dp958
g21
g22
sg23
S'2012-03-16 21:03:25'
p959
sg25
S'165/B'
p960
sa(dp961
g21
g22
sg23
S'2012-03-16 21:05:46'
p962
sg25
S'165/C'
p963
sa(dp964
g21
g28
sg23
S'2012-03-16 21:26:11'
p965
sg25
S'165/D'
p966
sa(dp967
g21
g22
sg23
S'2012-03-16 21:09:40'
p968
sg25
S'165/E'
p969
sa(dp970
g21
g22
sg23
S'2012-03-27 21:00:37'
p971
sg25
S'167/A'
p972
sa(dp973
g21
g22
sg23
S'2012-03-27 20:53:48'
p974
sg25
S'167/B'
p975
sa(dp976
g21
g22
sg23
S'2012-03-27 20:47:48'
p977
sg25
S'167/C'
p978
sa(dp979
g21
g22
sg23
S'2012-03-27 22:25:51'
p980
sg25
S'167/E'
p981
sa(dp982
g21
g22
sg23
S'2012-04-02 01:04:16'
p983
sg25
S'171/A'
p984
sa(dp985
g21
g22
sg23
S'2012-04-02 01:03:04'
p986
sg25
S'171/B'
p987
sa(dp988
g21
g22
sg23
S'2012-04-02 01:33:26'
p989
sg25
S'171/C'
p990
sa(dp991
g21
g139
sg23
S'2012-04-02 01:11:58'
p992
sg25
S'171/D'
p993
sa(dp994
g21
g22
sg23
S'2012-04-02 01:01:49'
p995
sg25
S'171/E'
p996
sa(dp997
g21
g22
sg23
S'2012-04-02 01:21:28'
p998
sg25
S'171/F'
p999
sa(dp1000
g21
g22
sg23
S'2012-04-02 02:08:42'
p1001
sg25
S'171/G'
p1002
sa(dp1003
g21
g22
sg23
S'2012-04-06 20:34:54'
p1004
sg25
S'173/A'
p1005
sa(dp1006
g21
g22
sg23
S'2012-04-06 21:02:31'
p1007
sg25
S'173/B'
p1008
sa(dp1009
g21
g28
sg23
S'2012-04-06 20:56:17'
p1010
sg25
S'173/C'
p1011
sa(dp1012
g21
g22
sg23
S'2012-04-06 21:33:29'
p1013
sg25
S'173/D'
p1014
sa(dp1015
g21
g22
sg23
S'2012-04-06 22:06:46'
p1016
sg25
S'173/E'
p1017
sa(dp1018
g21
g22
sg23
S'2012-04-14 13:34:37'
p1019
sg25
S'175/A'
p1020
sa(dp1021
g21
g22
sg23
S'2012-04-14 13:43:42'
p1022
sg25
S'175/B'
p1023
sa(dp1024
g21
g22
sg23
S'2012-04-14 13:51:45'
p1025
sg25
S'175/C'
p1026
sa(dp1027
g21
g22
sg23
S'2012-04-14 14:53:58'
p1028
sg25
S'175/D'
p1029
sa(dp1030
g21
g22
sg23
S'2012-04-14 15:36:42'
p1031
sg25
S'175/E'
p1032
sa(dp1033
g21
g22
sg23
S'2012-04-22 13:12:52'
p1034
sg25
S'180/A'
p1035
sa(dp1036
g21
g28
sg23
S'2012-04-22 12:50:16'
p1037
sg25
S'180/B'
p1038
sa(dp1039
g21
g22
sg23
S'2012-04-22 12:33:43'
p1040
sg25
S'180/C'
p1041
sa(dp1042
g21
g22
sg23
S'2012-04-22 13:06:16'
p1043
sg25
S'180/D'
p1044
sa(dp1045
g21
g22
sg23
S'2012-04-22 12:38:03'
p1046
sg25
S'180/E'
p1047
sa(dp1048
g21
g22
sg23
S'2012-04-22 12:40:00'
p1049
sg25
S'180/F'
p1050
sa(dp1051
g21
g22
sg23
S'2012-05-04 21:03:36'
p1052
sg25
S'185/A'
p1053
sa(dp1054
g21
g22
sg23
S'2012-05-04 21:16:23'
p1055
sg25
S'185/B'
p1056
sa(dp1057
g21
g72
sg23
S'2012-05-04 22:05:09'
p1058
sg25
S'185/D'
p1059
sa(dp1060
g21
g22
sg23
S'2012-06-03 21:06:37'
p1061
sg25
S'193/A'
p1062
sa(dp1063
g21
g22
sg23
S'2012-06-03 21:13:28'
p1064
sg25
S'193/B'
p1065
sa(dp1066
g21
g22
sg23
S'2012-06-03 22:41:09'
p1067
sg25
S'193/C'
p1068
sa(dp1069
g21
g22
sg23
S'2012-06-03 23:14:05'
p1070
sg25
S'193/E'
p1071
sa(dp1072
g21
g22
sg23
S'2012-06-12 18:32:32'
p1073
sg25
S'196/A'
p1074
sa(dp1075
g21
g22
sg23
S'2012-06-12 18:42:21'
p1076
sg25
S'196/B'
p1077
sa(dp1078
g21
g22
sg23
S'2012-06-12 19:04:48'
p1079
sg25
S'196/C'
p1080
sa(dp1081
g21
g22
sg23
S'2012-06-12 20:03:24'
p1082
sg25
S'196/D'
p1083
sa(dp1084
g21
g22
sg23
S'2012-06-12 19:33:27'
p1085
sg25
S'196/E'
p1086
sa(dp1087
g21
g22
sg23
S'2012-06-22 21:07:51'
p1088
sg25
S'198/A'
p1089
sa(dp1090
g21
g22
sg23
S'2012-06-22 21:16:39'
p1091
sg25
S'198/B'
p1092
sa(dp1093
g21
g22
sg23
S'2012-06-22 22:53:31'
p1094
sg25
S'198/C'
p1095
sa(dp1096
g21
g22
sg23
S'2012-06-22 22:20:33'
p1097
sg25
S'198/E'
p1098
sa(dp1099
g21
g22
sg23
S'2012-07-11 21:04:09'
p1100
sg25
S'204/A'
p1101
sa(dp1102
g21
g22
sg23
S'2012-07-11 21:12:06'
p1103
sg25
S'204/B'
p1104
sa(dp1105
g21
g28
sg23
S'2012-07-11 21:48:34'
p1106
sg25
S'204/C'
p1107
sa(dp1108
g21
g28
sg23
S'2012-07-11 22:00:38'
p1109
sg25
S'204/D'
p1110
sa(dp1111
g21
g22
sg23
S'2012-07-11 22:46:22'
p1112
sg25
S'204/E'
p1113
sa(dp1114
g21
g22
sg23
S'2012-07-14 13:27:05'
p1115
sg25
S'209/A'
p1116
sa(dp1117
g21
g22
sg23
S'2012-07-14 14:22:45'
p1118
sg25
S'209/B'
p1119
sa(dp1120
g21
g28
sg23
S'2012-07-14 13:41:15'
p1121
sg25
S'209/C'
p1122
sa(dp1123
g21
g22
sg23
S'2012-07-15 13:16:21'
p1124
sg25
S'211/B'
p1125
sa(dp1126
g21
g22
sg23
S'2012-07-15 13:40:05'
p1127
sg25
S'211/C'
p1128
sa(dp1129
g21
g28
sg23
S'2012-07-15 14:26:02'
p1130
sg25
S'211/D'
p1131
sa(dp1132
g21
g22
sg23
S'2012-07-15 12:45:37'
p1133
sg25
S'211/E'
p1134
sa(dp1135
g21
S'16'
p1136
sg23
S'2012-07-20 16:16:23'
p1137
sg25
S'212/A'
p1138
sa(dp1139
g21
g22
sg23
S'2012-07-30 21:12:21'
p1140
sg25
S'213/A'
p1141
sa(dp1142
g21
g22
sg23
S'2012-07-30 21:25:28'
p1143
sg25
S'213/B'
p1144
sa(dp1145
g21
g22
sg23
S'2012-07-30 21:35:57'
p1146
sg25
S'213/C'
p1147
sa(dp1148
g21
g22
sg23
S'2012-07-30 22:01:02'
p1149
sg25
S'213/D'
p1150
sa(dp1151
g21
g22
sg23
S'2012-08-16 20:51:03'
p1152
sg25
S'216/A'
p1153
sa(dp1154
g21
g22
sg23
S'2012-08-18 12:37:37'
p1155
sg25
S'217/A'
p1156
sa(dp1157
g21
g28
sg23
S'2012-08-18 12:55:17'
p1158
sg25
S'217/B'
p1159
sa(dp1160
g21
g28
sg23
S'2012-08-18 13:56:22'
p1161
sg25
S'217/C'
p1162
sa(dp1163
g21
g22
sg23
S'2012-09-16 21:28:48'
p1164
sg25
S'223/A'
p1165
sa(dp1166
g21
g22
sg23
S'2012-09-16 21:21:48'
p1167
sg25
S'223/B'
p1168
sa(dp1169
g21
g22
sg23
S'2012-09-16 21:11:19'
p1170
sg25
S'223/C'
p1171
sa(dp1172
g21
g28
sg23
S'2012-09-19 21:32:23'
p1173
sg25
S'225/A'
p1174
sa(dp1175
g21
g22
sg23
S'2012-09-19 21:51:11'
p1176
sg25
S'225/B'
p1177
sa(dp1178
g21
g28
sg23
S'2012-09-19 21:21:00'
p1179
sg25
S'225/C'
p1180
sa(dp1181
g21
g22
sg23
S'2012-09-19 22:12:15'
p1182
sg25
S'225/D'
p1183
sa(dp1184
g21
g22
sg23
S'2012-09-19 21:43:29'
p1185
sg25
S'225/E'
p1186
sa(dp1187
g21
g28
sg23
S'2012-10-11 21:43:08'
p1188
sg25
S'232/A'
p1189
sa(dp1190
g21
g22
sg23
S'2012-10-11 21:13:02'
p1191
sg25
S'232/B'
p1192
sa(dp1193
g21
g28
sg23
S'2012-10-11 22:39:44'
p1194
sg25
S'232/D'
p1195
sa(dp1196
g21
g22
sg23
S'2012-10-21 12:45:42'
p1197
sg25
S'235/A'
p1198
sa(dp1199
g21
g22
sg23
S'2012-10-21 12:52:34'
p1200
sg25
S'235/B'
p1201
sa(dp1202
g21
g22
sg23
S'2012-11-04 21:33:26'
p1203
sg25
S'238/A'
p1204
sa(dp1205
g21
g22
sg23
S'2012-11-04 22:22:35'
p1206
sg25
S'238/B'
p1207
sa(dp1208
g21
g22
sg23
S'2012-11-04 21:59:43'
p1209
sg25
S'238/C'
p1210
sa(dp1211
g21
g22
sg23
S'2012-11-04 23:19:56'
p1212
sg25
S'238/E'
p1213
sa(dp1214
g21
g22
sg23
S'2012-10-16 13:04:42'
p1215
sg25
S'240/A'
p1216
sa(dp1217
g21
g22
sg23
S'2012-10-16 12:42:54'
p1218
sg25
S'240/B'
p1219
sa(dp1220
g21
g22
sg23
S'2012-10-16 12:33:37'
p1221
sg25
S'240/C'
p1222
sa(dp1223
g21
g22
sg23
S'2012-10-16 12:53:57'
p1224
sg25
S'240/D'
p1225
sa(dp1226
g21
g32
sg23
S'2012-10-16 16:02:39'
p1227
sg25
S'240/E'
p1228
sa(dp1229
g21
g28
sg23
S'2012-10-16 14:16:49'
p1230
sg25
S'240/F'
p1231
sa(dp1232
g21
g22
sg23
S'2012-11-01 21:08:37'
p1233
sg25
S'241/A'
p1234
sa(dp1235
g21
g22
sg23
S'2012-11-01 23:25:07'
p1236
sg25
S'241/B'
p1237
sa(dp1238
g21
g22
sg23
S'2012-11-01 21:26:11'
p1239
sg25
S'241/C'
p1240
sa(dp1241
g21
g558
sg23
S'2012-11-02 00:36:38'
p1242
sg25
S'241/D'
p1243
sa(dp1244
g21
g22
sg23
S'2012-11-01 21:59:48'
p1245
sg25
S'241/E'
p1246
sa(dp1247
g21
g28
sg23
S'2012-11-01 22:43:14'
p1248
sg25
S'241/F'
p1249
sa(dp1250
g21
g28
sg23
S'2012-11-01 21:43:16'
p1251
sg25
S'241/G'
p1252
sa(dp1253
g21
g22
sg23
S'2012-11-16 21:05:30'
p1254
sg25
S'243/A'
p1255
sa(dp1256
g21
g28
sg23
S'2012-11-17 00:03:39'
p1257
sg25
S'243/B'
p1258
sa(dp1259
g21
g22
sg23
S'2012-11-16 21:34:11'
p1260
sg25
S'243/C'
p1261
sa(dp1262
g21
g22
sg23
S'2012-12-06 21:02:16'
p1263
sg25
S'251/A'
p1264
sa(dp1265
g21
g28
sg23
S'2012-12-06 21:22:36'
p1266
sg25
S'251/B'
p1267
sa(dp1268
g21
g28
sg23
S'2012-12-06 22:30:32'
p1269
sg25
S'251/C'
p1270
sa(dp1271
g21
g28
sg23
S'2012-12-06 22:07:33'
p1272
sg25
S'251/D'
p1273
sa(dp1274
g21
g22
sg23
S'2012-12-27 21:09:57'
p1275
sg25
S'260/A'
p1276
sa(dp1277
g21
g22
sg23
S'2012-12-27 21:14:19'
p1278
sg25
S'260/B'
p1279
sa(dp1280
g21
g22
sg23
S'2012-12-27 21:22:05'
p1281
sg25
S'260/C'
p1282
sa(dp1283
g21
g28
sg23
S'2012-12-27 23:21:45'
p1284
sg25
S'260/D'
p1285
sa(dp1286
g21
g22
sg23
S'2012-12-27 22:04:56'
p1287
sg25
S'260/E'
p1288
sa(dp1289
g21
g28
sg23
S'2013-02-01 21:36:56'
p1290
sg25
S'269/A'
p1291
sa(dp1292
g21
g22
sg23
S'2013-02-01 21:43:58'
p1293
sg25
S'269/B'
p1294
sa(dp1295
g21
g22
sg23
S'2013-02-01 21:23:48'
p1296
sg25
S'269/C'
p1297
sa(dp1298
g21
g22
sg23
S'2013-02-01 22:25:57'
p1299
sg25
S'269/D'
p1300
sa(dp1301
g21
g22
sg23
S'2013-02-13 21:06:12'
p1302
sg25
S'273/A'
p1303
sa(dp1304
g21
g22
sg23
S'2013-02-13 21:16:30'
p1305
sg25
S'273/B'
p1306
sa(dp1307
g21
g22
sg23
S'2013-02-13 21:49:17'
p1308
sg25
S'273/D'
p1309
sa(dp1310
g21
g22
sg23
S'2013-02-13 22:25:40'
p1311
sg25
S'273/E'
p1312
sa(dp1313
g21
g22
sg23
S'2013-03-10 21:10:42'
p1314
sg25
S'280/A'
p1315
sa(dp1316
g21
g22
sg23
S'2013-03-10 21:28:22'
p1317
sg25
S'280/B'
p1318
sa(dp1319
g21
g22
sg23
S'2013-03-10 21:33:27'
p1320
sg25
S'280/C'
p1321
sa(dp1322
g21
g22
sg23
S'2013-04-14 17:51:38'
p1323
sg25
S'291/A'
p1324
sa(dp1325
g21
g28
sg23
S'2013-04-14 17:58:24'
p1326
sg25
S'291/B'
p1327
sa(dp1328
g21
g22
sg23
S'2013-04-14 18:05:53'
p1329
sg25
S'291/C'
p1330
sa(dp1331
g21
g22
sg23
S'2013-04-14 18:18:18'
p1332
sg25
S'291/D'
p1333
sa(dp1334
g21
g22
sg23
S'2013-04-14 18:25:10'
p1335
sg25
S'291/E'
p1336
sa(dp1337
g21
g22
sg23
S'2013-04-15 21:12:55'
p1338
sg25
S'292/A'
p1339
sa(dp1340
g21
g22
sg23
S'2013-04-15 21:09:36'
p1341
sg25
S'292/B'
p1342
sa(dp1343
g21
g22
sg23
S'2013-04-15 21:40:36'
p1344
sg25
S'292/C'
p1345
sa(dp1346
g21
g28
sg23
S'2013-04-16 03:22:07'
p1347
sg25
S'292/D'
p1348
sa(dp1349
g21
g22
sg23
S'2013-04-15 21:20:32'
p1350
sg25
S'292/E'
p1351
sa(dp1352
g21
g22
sg23
S'2013-04-22 22:12:26'
p1353
sg25
S'293/A'
p1354
sa(dp1355
g21
g22
sg23
S'2013-04-22 22:53:56'
p1356
sg25
S'293/B'
p1357
sa(dp1358
g21
g22
sg23
S'2013-04-22 22:02:37'
p1359
sg25
S'293/C'
p1360
sa(dp1361
g21
g22
sg23
S'2013-04-22 21:34:47'
p1362
sg25
S'293/D'
p1363
sa(dp1364
g21
g28
sg23
S'2013-04-23 13:05:55'
p1365
sg25
S'293/E'
p1366
sa(dp1367
g21
g22
sg23
S'2013-04-19 21:06:51'
p1368
sg25
S'297/A'
p1369
sa(dp1370
g21
g22
sg23
S'2013-04-19 21:11:03'
p1371
sg25
S'297/B'
p1372
sa(dp1373
g21
g22
sg23
S'2013-04-19 22:14:00'
p1374
sg25
S'297/C'
p1375
sa(dp1376
g21
g22
sg23
S'2013-04-19 22:02:52'
p1377
sg25
S'297/D'
p1378
sa(dp1379
g21
g22
sg23
S'2013-04-19 22:32:21'
p1380
sg25
S'297/E'
p1381
sa(dp1382
g21
S'26'
p1383
sg23
S'2013-05-12 23:25:12'
p1384
sg25
S'303/E'
p1385
sa(dp1386
g21
g22
sg23
S'2013-05-17 15:46:15'
p1387
sg25
S'308/A'
p1388
sa(dp1389
g21
g22
sg23
S'2013-05-17 16:10:10'
p1390
sg25
S'308/B'
p1391
sa(dp1392
g21
g22
sg23
S'2013-05-17 15:59:09'
p1393
sg25
S'308/C'
p1394
sa(dp1395
g21
g22
sg23
S'2013-05-17 16:40:50'
p1396
sg25
S'308/D'
p1397
sa(dp1398
g21
g32
sg23
S'2013-06-12 18:36:20'
p1399
sg25
S'316/A1'
p1400
sa(dp1401
g21
g22
sg23
S'2013-06-12 18:36:32'
p1402
sg25
S'316/A2'
p1403
sa(dp1404
g21
g22
sg23
S'2013-06-12 18:41:21'
p1405
sg25
S'316/B1'
p1406
sa(dp1407
g21
g22
sg23
S'2013-06-12 18:44:48'
p1408
sg25
S'316/B2'
p1409
sa(dp1410
g21
g22
sg23
S'2013-06-12 19:32:16'
p1411
sg25
S'316/C1'
p1412
sa(dp1413
g21
g22
sg23
S'2013-06-12 19:33:52'
p1414
sg25
S'316/C2'
p1415
sa(dp1416
g21
g22
sg23
S'2013-06-12 19:07:24'
p1417
sg25
S'316/D1'
p1418
sa(dp1419
g21
g22
sg23
S'2013-06-12 19:18:50'
p1420
sg25
S'316/D2'
p1421
sa(dp1422
g21
g22
sg23
S'2013-06-12 19:18:51'
p1423
sg25
S'316/D3'
p1424
sa(dp1425
g21
g22
sg23
S'2013-06-12 19:11:09'
p1426
sg25
S'316/E1'
p1427
sa(dp1428
g21
g32
sg23
S'2013-06-12 20:44:12'
p1429
sg25
S'316/E2'
p1430
sa(dp1431
g21
g22
sg23
S'2013-06-12 21:03:24'
p1432
sg25
S'316/E3'
p1433
sa(dp1434
g21
g952
sg23
S'2013-06-12 21:39:16'
p1435
sg25
S'316/F1'
p1436
sa(dp1437
g21
g28
sg23
S'2013-06-12 21:45:10'
p1438
sg25
S'316/F2'
p1439
sa(dp1440
g21
g32
sg23
S'2013-06-12 21:47:17'
p1441
sg25
S'316/F3'
p1442
sa(dp1443
g21
g22
sg23
S'2013-06-12 20:10:43'
p1444
sg25
S'316/G1'
p1445
sa(dp1446
g21
g22
sg23
S'2013-06-12 20:11:53'
p1447
sg25
S'316/G2'
p1448
sa(dp1449
g21
g22
sg23
S'2013-06-14 21:22:59'
p1450
sg25
S'317/A'
p1451
sa(dp1452
g21
g22
sg23
S'2013-06-14 21:42:42'
p1453
sg25
S'317/B'
p1454
sa(dp1455
g21
g28
sg23
S'2013-06-14 21:49:58'
p1456
sg25
S'317/D'
p1457
sa(dp1458
g21
g22
sg23
S'2013-07-20 19:11:07'
p1459
sg25
S'329/A'
p1460
sa(dp1461
g21
g22
sg23
S'2013-07-20 19:20:44'
p1462
sg25
S'329/B'
p1463
sa(dp1464
g21
g22
sg23
S'2013-07-20 20:59:54'
p1465
sg25
S'329/C'
p1466
sa(dp1467
g21
g22
sg23
S'2013-07-20 20:09:23'
p1468
sg25
S'329/D'
p1469
sa(dp1470
g21
g22
sg23
S'2013-07-17 21:30:02'
p1471
sg25
S'331/A1'
p1472
sa(dp1473
g21
g22
sg23
S'2013-07-17 21:30:34'
p1474
sg25
S'331/A2'
p1475
sa(dp1476
g21
g22
sg23
S'2013-07-17 21:38:02'
p1477
sg25
S'331/B1'
p1478
sa(dp1479
g21
g22
sg23
S'2013-07-17 21:39:39'
p1480
sg25
S'331/B2'
p1481
sa(dp1482
g21
g22
sg23
S'2013-07-17 21:21:57'
p1483
sg25
S'331/C1'
p1484
sa(dp1485
g21
g22
sg23
S'2013-07-17 21:22:23'
p1486
sg25
S'331/C2'
p1487
sa(dp1488
g21
g22
sg23
S'2013-07-17 21:22:28'
p1489
sg25
S'331/C3'
p1490
sa(dp1491
g21
g22
sg23
S'2013-07-17 22:30:30'
p1492
sg25
S'331/D1'
p1493
sa(dp1494
g21
g28
sg23
S'2013-07-17 22:58:29'
p1495
sg25
S'331/D2'
p1496
sa(dp1497
g21
g22
sg23
S'2013-07-17 22:59:12'
p1498
sg25
S'331/D3'
p1499
sa(dp1500
g21
g22
sg23
S'2013-08-03 22:35:23'
p1501
sg25
S'335/A'
p1502
sa(dp1503
g21
g22
sg23
S'2013-08-03 23:19:55'
p1504
sg25
S'335/B'
p1505
sa(dp1506
g21
g22
sg23
S'2013-08-03 23:05:26'
p1507
sg25
S'335/C'
p1508
sa(dp1509
g21
g22
sg23
S'2013-08-04 00:39:15'
p1510
sg25
S'335/D'
p1511
sa(dp1512
g21
g22
sg23
S'2013-08-04 01:20:41'
p1513
sg25
S'335/E'
p1514
sa(dp1515
g21
g22
sg23
S'2013-08-16 22:22:28'
p1516
sg25
S'338/A'
p1517
sa(dp1518
g21
g22
sg23
S'2013-08-16 21:54:26'
p1519
sg25
S'338/B'
p1520
sa(dp1521
g21
g22
sg23
S'2013-08-16 22:41:14'
p1522
sg25
S'338/C'
p1523
sa(dp1524
g21
g22
sg23
S'2013-08-16 22:59:50'
p1525
sg25
S'338/D'
p1526
sa(dp1527
g21
g28
sg23
S'2013-08-16 22:12:46'
p1528
sg25
S'338/E'
p1529
sa(dp1530
g21
g22
sg23
S'2013-09-14 21:04:45'
p1531
sg25
S'343/A'
p1532
sa(dp1533
g21
g22
sg23
S'2013-09-14 21:08:30'
p1534
sg25
S'343/B'
p1535
sa(dp1536
g21
g22
sg23
S'2013-09-14 21:16:43'
p1537
sg25
S'343/C'
p1538
sa(dp1539
g21
g22
sg23
S'2013-09-14 21:48:23'
p1540
sg25
S'343/D'
p1541
sa(dp1542
g21
g22
sg23
S'2013-09-14 23:05:31'
p1543
sg25
S'343/E'
p1544
sa(dp1545
g21
g22
sg23
S'2013-10-15 17:44:42'
p1546
sg25
S'356/A'
p1547
sa(dp1548
g21
g22
sg23
S'2013-10-15 17:39:23'
p1549
sg25
S'356/B'
p1550
sa(dp1551
g21
g22
sg23
S'2013-10-15 18:03:25'
p1552
sg25
S'356/C'
p1553
sa(dp1554
g21
g22
sg23
S'2013-10-15 18:41:34'
p1555
sg25
S'356/D'
p1556
sa(dp1557
g21
g22
sg23
S'2013-11-26 21:29:34'
p1558
sg25
S'367/A'
p1559
sa(dp1560
g21
g22
sg23
S'2013-11-26 21:08:57'
p1561
sg25
S'367/B'
p1562
sa(dp1563
g21
g22
sg23
S'2013-11-26 21:23:39'
p1564
sg25
S'367/C'
p1565
sa(dp1566
g21
g22
sg23
S'2013-11-26 21:40:27'
p1567
sg25
S'367/D'
p1568
sa(dp1569
g21
g22
sg23
S'2013-11-26 22:16:39'
p1570
sg25
S'367/E'
p1571
sa(dp1572
g21
g22
sg23
S'2013-12-13 19:33:27'
p1573
sg25
S'372/A'
p1574
sa(dp1575
g21
g22
sg23
S'2013-12-13 19:39:48'
p1576
sg25
S'372/B'
p1577
sa(dp1578
g21
g22
sg23
S'2013-12-13 19:57:41'
p1579
sg25
S'372/C'
p1580
sa(dp1581
g21
g22
sg23
S'2013-12-13 21:08:22'
p1582
sg25
S'372/D'
p1583
sa(dp1584
g21
g22
sg23
S'2013-12-29 21:04:38'
p1585
sg25
S'377/A'
p1586
sa(dp1587
g21
g22
sg23
S'2013-12-29 21:38:39'
p1588
sg25
S'377/B'
p1589
sa(dp1590
g21
g22
sg23
S'2013-12-29 21:54:02'
p1591
sg25
S'377/C'
p1592
sa(dp1593
g21
g22
sg23
S'2013-12-29 21:25:41'
p1594
sg25
S'377/D'
p1595
sa(dp1596
g21
g28
sg23
S'2013-12-30 05:06:09'
p1597
sg25
S'377/E'
p1598
sa(dp1599
g21
g22
sg23
S'2013-12-30 21:01:32'
p1600
sg25
S'379/A'
p1601
sa(dp1602
g21
g22
sg23
S'2013-12-30 21:06:42'
p1603
sg25
S'379/B'
p1604
sa(dp1605
g21
g22
sg23
S'2013-12-30 21:04:01'
p1606
sg25
S'379/C'
p1607
sa(dp1608
g21
g22
sg23
S'2013-12-30 21:34:56'
p1609
sg25
S'379/D'
p1610
sa(dp1611
g21
g22
sg23
S'2013-12-30 21:59:34'
p1612
sg25
S'379/E'
p1613
sa(dp1614
g21
g28
sg23
S'2014-02-03 21:40:59'
p1615
sg25
S'388/A'
p1616
sa(dp1617
g21
g22
sg23
S'2014-02-03 21:29:40'
p1618
sg25
S'388/B'
p1619
sa(dp1620
g21
g22
sg23
S'2014-02-03 21:34:31'
p1621
sg25
S'388/C'
p1622
sa(dp1623
g21
g22
sg23
S'2014-02-03 22:00:46'
p1624
sg25
S'388/D'
p1625
sa(dp1626
g21
g22
sg23
S'2014-03-30 12:47:06'
p1627
sg25
S'407/A'
p1628
sa(dp1629
g21
g22
sg23
S'2014-03-30 12:39:34'
p1630
sg25
S'407/B'
p1631
sa(dp1632
g21
g22
sg23
S'2014-03-30 13:23:56'
p1633
sg25
S'407/C'
p1634
sa(dp1635
g21
g22
sg23
S'2014-03-30 14:16:29'
p1636
sg25
S'407/D'
p1637
sa(dp1638
g21
g22
sg23
S'2014-04-01 21:14:46'
p1639
sg25
S'409/A'
p1640
sa(dp1641
g21
g22
sg23
S'2014-04-01 21:25:46'
p1642
sg25
S'409/B'
p1643
sa(dp1644
g21
g22
sg23
S'2014-04-01 21:17:21'
p1645
sg25
S'409/C'
p1646
sa(dp1647
g21
g558
sg23
S'2014-04-01 22:22:52'
p1648
sg25
S'409/D'
p1649
sa(dp1650
g21
g22
sg23
S'2014-04-01 22:33:07'
p1651
sg25
S'409/E'
p1652
sa(dp1653
g21
S'6'
p1654
sg23
S'2014-04-01 21:28:44'
p1655
sg25
S'409/H'
p1656
sa(dp1657
g21
g22
sg23
S'2014-04-18 21:47:46'
p1658
sg25
S'412/A'
p1659
sa(dp1660
g21
g22
sg23
S'2014-04-18 21:45:09'
p1661
sg25
S'412/B'
p1662
sa(dp1663
g21
g22
sg23
S'2014-04-18 21:43:19'
p1664
sg25
S'412/C'
p1665
sa(dp1666
g21
g22
sg23
S'2014-04-18 21:55:15'
p1667
sg25
S'412/D'
p1668
sa(dp1669
g21
g22
sg23
S'2014-04-18 22:03:53'
p1670
sg25
S'412/E'
p1671
sa(dp1672
g21
g22
sg23
S'2014-04-17 21:14:39'
p1673
sg25
S'418/A'
p1674
sa(dp1675
g21
g22
sg23
S'2014-04-17 21:19:48'
p1676
sg25
S'418/B'
p1677
sa(dp1678
g21
g22
sg23
S'2014-04-17 21:28:54'
p1679
sg25
S'418/C'
p1680
sa(dp1681
g21
g32
sg23
S'2014-04-17 23:35:53'
p1682
sg25
S'418/D'
p1683
sa(dp1684
g21
g22
sg23
S'2014-06-13 21:05:47'
p1685
sg25
S'436/A'
p1686
sa(dp1687
g21
g22
sg23
S'2014-06-13 21:09:53'
p1688
sg25
S'436/B'
p1689
sa(dp1690
g21
g22
sg23
S'2014-06-13 21:19:07'
p1691
sg25
S'436/C'
p1692
sa(dp1693
g21
g22
sg23
S'2014-06-13 22:19:45'
p1694
sg25
S'436/D'
p1695
sa(dp1696
g21
g32
sg23
S'2014-06-14 03:03:45'
p1697
sg25
S'436/F'
p1698
sa(dp1699
g21
g22
sg23
S'2014-06-19 21:08:14'
p1700
sg25
S'442/A'
p1701
sa(dp1702
g21
g22
sg23
S'2014-06-19 21:40:27'
p1703
sg25
S'442/B'
p1704
sa(dp1705
g21
g22
sg23
S'2014-06-19 22:14:22'
p1706
sg25
S'442/C'
p1707
sa(dp1708
g21
g22
sg23
S'2014-06-19 21:51:26'
p1709
sg25
S'442/D'
p1710
sa(dp1711
g21
g22
sg23
S'2014-06-19 22:54:23'
p1712
sg25
S'442/E'
p1713
sa(dp1714
g21
g22
sg23
S'2014-07-27 22:32:47'
p1715
sg25
S'452/A'
p1716
sa(dp1717
g21
g22
sg23
S'2014-07-27 23:10:24'
p1718
sg25
S'452/B'
p1719
sa(dp1720
g21
g22
sg23
S'2014-07-27 23:03:53'
p1721
sg25
S'452/C'
p1722
sa(dp1723
g21
g22
sg23
S'2014-07-27 23:14:46'
p1724
sg25
S'452/D'
p1725
sa(dp1726
g21
g22
sg23
S'2014-07-27 23:34:56'
p1727
sg25
S'452/E'
p1728
sa(dp1729
g21
g22
sg23
S'2014-08-08 21:03:42'
p1730
sg25
S'455/A'
p1731
sa(dp1732
g21
g22
sg23
S'2014-08-08 21:16:26'
p1733
sg25
S'455/B'
p1734
sa(dp1735
g21
g32
sg23
S'2014-08-08 21:33:03'
p1736
sg25
S'455/C'
p1737
sa(dp1738
g21
g22
sg23
S'2014-08-08 22:20:55'
p1739
sg25
S'455/D'
p1740
sa(dp1741
g21
g28
sg23
S'2014-08-08 22:50:42'
p1742
sg25
S'455/E'
p1743
sa(dp1744
g21
g22
sg23
S'2014-08-10 22:46:36'
p1745
sg25
S'458/A'
p1746
sa(dp1747
g21
g22
sg23
S'2014-08-10 23:45:39'
p1748
sg25
S'458/B'
p1749
sa(dp1750
g21
g22
sg23
S'2014-08-10 23:10:52'
p1751
sg25
S'458/C'
p1752
sa(dp1753
g21
g22
sg23
S'2014-08-11 01:09:45'
p1754
sg25
S'458/D'
p1755
sa(dp1756
g21
g22
sg23
S'2014-09-07 21:05:45'
p1757
sg25
S'464/A'
p1758
sa(dp1759
g21
g22
sg23
S'2014-09-07 21:45:58'
p1760
sg25
S'464/B'
p1761
sa(dp1762
g21
g22
sg23
S'2014-09-07 21:19:52'
p1763
sg25
S'464/C'
p1764
sa(dp1765
g21
g22
sg23
S'2014-09-07 22:12:58'
p1766
sg25
S'464/D'
p1767
sa(dp1768
g21
g22
sg23
S'2014-09-12 21:01:09'
p1769
sg25
S'466/A'
p1770
sa(dp1771
g21
g22
sg23
S'2014-09-12 21:05:09'
p1772
sg25
S'466/B'
p1773
sa(dp1774
g21
g22
sg23
S'2014-09-12 21:07:15'
p1775
sg25
S'466/C'
p1776
sa(dp1777
g21
g22
sg23
S'2014-09-12 21:12:53'
p1778
sg25
S'466/D'
p1779
sa(dp1780
g21
g22
sg23
S'2014-09-12 21:22:53'
p1781
sg25
S'466/E'
p1782
sa(dp1783
g21
g28
sg23
S'2014-09-28 21:07:54'
p1784
sg25
S'472/A'
p1785
sa(dp1786
g21
g22
sg23
S'2014-09-28 21:08:54'
p1787
sg25
S'472/B'
p1788
sa(dp1789
g21
g22
sg23
S'2014-09-28 21:15:43'
p1790
sg25
S'472/C'
p1791
sa(dp1792
g21
g22
sg23
S'2014-09-28 21:34:30'
p1793
sg25
S'472/D'
p1794
sa(dp1795
g21
g22
sg23
S'2014-09-28 23:02:47'
p1796
sg25
S'472/E'
p1797
sa(dp1798
g21
g22
sg23
S'2014-10-06 21:01:48'
p1799
sg25
S'474/A'
p1800
sa(dp1801
g21
g22
sg23
S'2014-10-06 21:03:19'
p1802
sg25
S'474/B'
p1803
sa(dp1804
g21
g22
sg23
S'2014-10-06 21:11:37'
p1805
sg25
S'474/C'
p1806
sa(dp1807
g21
g22
sg23
S'2014-10-06 21:14:17'
p1808
sg25
S'474/D'
p1809
sa(dp1810
g21
g22
sg23
S'2014-10-06 21:31:03'
p1811
sg25
S'474/E'
p1812
sa(dp1813
g21
g22
sg23
S'2014-10-06 21:20:24'
p1814
sg25
S'474/F'
p1815
sa(dp1816
g21
g22
sg23
S'2014-10-24 22:36:26'
p1817
sg25
S'482/A'
p1818
sa(dp1819
g21
g22
sg23
S'2014-10-24 22:49:19'
p1820
sg25
S'482/B'
p1821
sa(dp1822
g21
g952
sg23
S'2014-10-25 01:53:13'
p1823
sg25
S'482/C'
p1824
sa(dp1825
g21
g22
sg23
S'2014-10-24 23:19:36'
p1826
sg25
S'482/D'
p1827
sa(dp1828
g21
S'10'
p1829
sg23
S'2014-10-25 02:31:07'
p1830
sg25
S'482/E'
p1831
sa(dp1832
g21
g32
sg23
S'2014-12-01 22:15:56'
p1833
sg25
S'492/A'
p1834
sa(dp1835
g21
g22
sg23
S'2014-12-01 22:14:34'
p1836
sg25
S'492/B'
p1837
sa(dp1838
g21
g28
sg23
S'2014-12-01 22:18:37'
p1839
sg25
S'492/C'
p1840
sa(dp1841
g21
g28
sg23
S'2014-12-01 22:31:25'
p1842
sg25
S'492/D'
p1843
sa(dp1844
g21
g22
sg23
S'2014-12-01 22:29:15'
p1845
sg25
S'492/E'
p1846
sa(dp1847
g21
g22
sg23
S'2014-12-13 22:03:35'
p1848
sg25
S'494/A'
p1849
sa(dp1850
g21
g22
sg23
S'2014-12-13 22:11:49'
p1851
sg25
S'494/B'
p1852
sa(dp1853
g21
g22
sg23
S'2014-12-13 23:37:01'
p1854
sg25
S'494/C'
p1855
sa(dp1856
g21
g32
sg23
S'2014-12-14 00:51:22'
p1857
sg25
S'494/D'
p1858
sa(dp1859
g21
g28
sg23
S'2014-12-13 23:02:52'
p1860
sg25
S'494/E'
p1861
sa(dp1862
g21
g22
sg23
S'2014-12-30 20:36:31'
p1863
sg25
S'500/A'
p1864
sa(dp1865
g21
g22
sg23
S'2014-12-30 20:35:04'
p1866
sg25
S'500/B'
p1867
sa(dp1868
g21
g22
sg23
S'2014-12-30 20:39:45'
p1869
sg25
S'500/C'
p1870
sa(dp1871
g21
g22
sg23
S'2014-12-30 20:45:24'
p1872
sg25
S'500/D'
p1873
sa(dp1874
g21
g28
sg23
S'2014-12-30 21:09:59'
p1875
sg25
S'500/E'
p1876
sa(dp1877
g21
g22
sg23
S'2014-12-30 21:25:57'
p1878
sg25
S'500/F'
p1879
sa(dp1880
g21
g22
sg23
S'2015-01-23 21:33:06'
p1881
sg25
S'507/A'
p1882
sa(dp1883
g21
g22
sg23
S'2015-01-23 21:36:14'
p1884
sg25
S'507/B'
p1885
sa(dp1886
g21
g22
sg23
S'2015-01-23 21:48:12'
p1887
sg25
S'507/C'
p1888
sa(dp1889
g21
g28
sg23
S'2015-01-23 22:03:49'
p1890
sg25
S'507/D'
p1891
sa(dp1892
g21
g22
sg23
S'2015-01-23 22:02:03'
p1893
sg25
S'507/E'
p1894
sa(dp1895
g21
g28
sg23
S'2015-02-02 22:42:47'
p1896
sg25
S'512/A'
p1897
sa(dp1898
g21
g22
sg23
S'2015-02-02 22:35:39'
p1899
sg25
S'512/B'
p1900
sa(dp1901
g21
g22
sg23
S'2015-02-02 23:16:50'
p1902
sg25
S'512/C'
p1903
sa(dp1904
g21
g22
sg23
S'2015-02-02 22:58:56'
p1905
sg25
S'512/D'
p1906
sa(dp1907
g21
g28
sg23
S'2015-02-02 23:57:38'
p1908
sg25
S'512/E'
p1909
sa(dp1910
g21
g22
sg23
S'2015-02-07 22:35:42'
p1911
sg25
S'513/A'
p1912
sa(dp1913
g21
g22
sg23
S'2015-02-07 22:41:45'
p1914
sg25
S'513/B1'
p1915
sa(dp1916
g21
g22
sg23
S'2015-02-07 22:48:07'
p1917
sg25
S'513/B2'
p1918
sa(dp1919
g21
g22
sg23
S'2015-02-07 22:46:05'
p1920
sg25
S'513/C'
p1921
sa(dp1922
g21
g72
sg23
S'2015-02-07 23:34:51'
p1923
sg25
S'513/D1'
p1924
sa(dp1925
g21
g22
sg23
S'2015-02-07 23:36:07'
p1926
sg25
S'513/D2'
p1927
sa(dp1928
g21
g22
sg23
S'2015-02-08 00:03:45'
p1929
sg25
S'513/E1'
p1930
sa(dp1931
g21
g22
sg23
S'2015-02-08 00:04:48'
p1932
sg25
S'513/E2'
p1933
sa(dp1934
g21
g28
sg23
S'2015-02-08 00:29:15'
p1935
sg25
S'513/F1'
p1936
sa(dp1937
g21
g22
sg23
S'2015-02-08 00:31:12'
p1938
sg25
S'513/F2'
p1939
sa(dp1940
g21
g28
sg23
S'2015-02-07 23:45:41'
p1941
sg25
S'513/G1'
p1942
sa(dp1943
g21
g32
sg23
S'2015-02-08 00:58:31'
p1944
sg25
S'513/G2'
p1945
sa(dp1946
g21
g22
sg23
S'2015-02-08 00:58:55'
p1947
sg25
S'513/G3'
p1948
sa(dp1949
g21
g22
sg23
S'2015-03-08 16:18:30'
p1950
sg25
S'522/A'
p1951
sa(dp1952
g21
g22
sg23
S'2015-03-08 16:17:08'
p1953
sg25
S'522/B'
p1954
sa(dp1955
g21
g22
sg23
S'2015-03-08 16:17:31'
p1956
sg25
S'522/C'
p1957
sa(dp1958
g21
g22
sg23
S'2015-03-08 16:18:59'
p1959
sg25
S'522/D'
p1960
sa(dp1961
g21
g22
sg23
S'2015-03-21 19:36:03'
p1962
sg25
S'524/A'
p1963
sa(dp1964
g21
g22
sg23
S'2015-03-21 19:34:30'
p1965
sg25
S'524/B'
p1966
sa(dp1967
g21
g22
sg23
S'2015-03-21 19:43:56'
p1968
sg25
S'524/C'
p1969
sa(dp1970
g21
g22
sg23
S'2015-03-21 20:21:08'
p1971
sg25
S'524/D'
p1972
sa(dp1973
g21
g22
sg23
S'2015-03-21 20:01:34'
p1974
sg25
S'524/E'
p1975
sa(dp1976
g21
g28
sg23
S'2015-03-21 21:25:45'
p1977
sg25
S'524/F'
p1978
sa(dp1979
g21
g22
sg23
S'2015-04-04 22:07:25'
p1980
sg25
S'526/A'
p1981
sa(dp1982
g21
g22
sg23
S'2015-04-04 22:11:15'
p1983
sg25
S'526/B'
p1984
sa(dp1985
g21
g22
sg23
S'2015-04-04 22:23:42'
p1986
sg25
S'526/C'
p1987
sa(dp1988
g21
g22
sg23
S'2015-04-04 22:40:19'
p1989
sg25
S'526/D'
p1990
sa(dp1991
g21
g22
sg23
S'2015-04-04 22:53:38'
p1992
sg25
S'526/E'
p1993
sa(dp1994
g21
g28
sg23
S'2015-06-07 22:19:06'
p1995
sg25
S'526/F'
p1996
sa(dp1997
g21
g22
sg23
S'2015-04-17 23:59:27'
p1998
sg25
S'532/A'
p1999
sa(dp2000
g21
g22
sg23
S'2015-04-17 21:44:39'
p2001
sg25
S'532/B'
p2002
sa(dp2003
g21
g22
sg23
S'2015-04-17 21:53:26'
p2004
sg25
S'532/C'
p2005
sa(dp2006
g21
g28
sg23
S'2015-04-17 23:08:13'
p2007
sg25
S'532/D'
p2008
sa(dp2009
g21
g22
sg23
S'2015-04-17 21:43:40'
p2010
sg25
S'532/E'
p2011
sa(dp2012
g21
g22
sg23
S'2015-04-17 22:36:57'
p2013
sg25
S'532/F'
p2014
sa(dp2015
g21
g28
sg23
S'2015-05-03 22:20:48'
p2016
sg25
S'541/A'
p2017
sa(dp2018
g21
g22
sg23
S'2015-05-03 22:47:48'
p2019
sg25
S'541/C'
p2020
sa(dp2021
g21
g22
sg23
S'2015-05-03 22:33:40'
p2022
sg25
S'541/D'
p2023
sa(dp2024
g21
g22
sg23
S'2015-05-03 22:08:52'
p2025
sg25
S'541/E'
p2026
sa(dp2027
g21
g22
sg23
S'2015-05-03 21:56:02'
p2028
sg25
S'541/F'
p2029
sa(dp2030
g21
g22
sg23
S'2015-06-06 18:31:28'
p2031
sg25
S'549/A'
p2032
sa(dp2033
g21
g22
sg23
S'2015-06-06 19:29:48'
p2034
sg25
S'549/B'
p2035
sa(dp2036
g21
g22
sg23
S'2015-06-06 19:07:38'
p2037
sg25
S'549/C'
p2038
sa(dp2039
g21
g22
sg23
S'2015-06-06 19:14:44'
p2040
sg25
S'549/D'
p2041
sa(dp2042
g21
g22
sg23
S'2015-06-06 19:38:45'
p2043
sg25
S'549/F'
p2044
sa(dp2045
g21
g22
sg23
S'2015-06-06 18:47:33'
p2046
sg25
S'549/G'
p2047
sa(dp2048
g21
g22
sg23
S'2015-06-06 18:36:17'
p2049
sg25
S'549/H'
p2050
sa(dp2051
g21
g22
sg23
S'2015-07-26 13:47:46'
p2052
sg25
S'562/B'
p2053
sa(dp2054
g21
g28
sg23
S'2015-07-26 16:43:51'
p2055
sg25
S'562/C'
p2056
sa(dp2057
g21
g22
sg23
S'2015-07-26 13:59:38'
p2058
sg25
S'562/D'
p2059
sa(dp2060
g21
g28
sg23
S'2015-07-26 15:02:29'
p2061
sg25
S'562/E'
p2062
sa(dp2063
g21
g22
sg23
S'2015-07-26 15:43:39'
p2064
sg25
S'562/G'
p2065
sa(dp2066
g21
g22
sg23
S'2015-07-31 18:25:12'
p2067
sg25
S'566/A'
p2068
sa(dp2069
g21
g22
sg23
S'2015-08-29 22:01:35'
p2070
sg25
S'573/A'
p2071
sa(dp2072
g21
g22
sg23
S'2015-08-29 22:09:11'
p2073
sg25
S'573/B'
p2074
sa(dp2075
g21
g72
sg23
S'2015-09-06 15:47:49'
p2076
sg25
S'575/A'
p2077
sa(dp2078
g21
g22
sg23
S'2015-09-06 14:27:37'
p2079
sg25
S'575/B'
p2080
sa(dp2081
g21
g72
sg23
S'2015-09-06 16:30:57'
p2082
sg25
S'575/C'
p2083
sa(dp2084
g21
g22
sg23
S'2015-09-06 13:33:32'
p2085
sg25
S'575/D'
p2086
sa(dp2087
g21
g28
sg23
S'2015-09-06 18:19:18'
p2088
sg25
S'575/E'
p2089
sa(dp2090
g21
g22
sg23
S'2015-09-06 13:53:42'
p2091
sg25
S'575/F'
p2092
sa(dp2093
g21
g72
sg23
S'2015-09-06 14:10:00'
p2094
sg25
S'575/G'
p2095
sa(dp2096
g21
g22
sg23
S'2015-09-06 13:41:57'
p2097
sg25
S'575/H'
p2098
sa(dp2099
g21
g28
sg23
S'2015-09-06 17:47:21'
p2100
sg25
S'575/I'
p2101
sa(dp2102
g21
g22
sg23
S'2015-11-15 22:06:46'
p2103
sg25
S'596/A'
p2104
sa(dp2105
g21
g22
sg23
S'2015-11-15 22:08:03'
p2106
sg25
S'596/B'
p2107
sa(dp2108
g21
g22
sg23
S'2015-11-15 22:14:32'
p2109
sg25
S'596/C'
p2110
sa(dp2111
g21
g22
sg23
S'2015-11-15 22:28:19'
p2112
sg25
S'596/D'
p2113
sa(dp2114
g21
g22
sg23
S'2015-11-15 22:44:55'
p2115
sg25
S'596/E'
p2116
sa(dp2117
g21
g22
sg23
S'2015-12-23 22:13:36'
p2118
sg25
S'607/A'
p2119
sa(dp2120
g21
g22
sg23
S'2015-12-23 22:18:46'
p2121
sg25
S'607/B'
p2122
sa(dp2123
g21
g22
sg23
S'2015-12-23 23:27:54'
p2124
sg25
S'607/C'
p2125
sa(dp2126
g21
g22
sg23
S'2015-12-23 23:13:23'
p2127
sg25
S'607/D'
p2128
sa(dp2129
g21
g22
sg23
S'2015-12-30 20:39:43'
p2130
sg25
S'611/A'
p2131
sa(dp2132
g21
g22
sg23
S'2015-12-30 20:37:31'
p2133
sg25
S'611/B'
p2134
sa(dp2135
g21
g22
sg23
S'2015-12-30 20:45:11'
p2136
sg25
S'611/C'
p2137
sa(dp2138
g21
g22
sg23
S'2015-12-30 20:53:44'
p2139
sg25
S'611/D'
p2140
sa(dp2141
g21
g28
sg23
S'2015-12-30 21:59:18'
p2142
sg25
S'611/E'
p2143
sa(dp2144
g21
g22
sg23
S'2015-12-30 21:29:37'
p2145
sg25
S'611/F'
p2146
sa(dp2147
g21
g32
sg23
S'2015-12-31 01:18:39'
p2148
sg25
S'611/G'
p2149
sa(dp2150
g21
g22
sg23
S'2015-12-30 23:17:47'
p2151
sg25
S'611/H'
p2152
sa(dp2153
g21
g22
sg23
S'2016-01-21 20:30:43'
p2154
sg25
S'620/A'
p2155
sa(dp2156
g21
g22
sg23
S'2016-01-21 20:31:52'
p2157
sg25
S'620/B'
p2158
sa(dp2159
g21
g22
sg23
S'2016-01-21 20:34:35'
p2160
sg25
S'620/C'
p2161
sa(dp2162
g21
g28
sg23
S'2016-01-21 21:07:20'
p2163
sg25
S'620/D'
p2164
sa(dp2165
g21
g28
sg23
S'2016-01-21 20:47:23'
p2166
sg25
S'620/E'
p2167
sa(dp2168
g21
g22
sg23
S'2016-01-21 21:14:55'
p2169
sg25
S'620/F'
p2170
sa(dp2171
g21
g22
sg23
S'2016-02-13 23:07:08'
p2172
sg25
S'626/A'
p2173
sa(dp2174
g21
g22
sg23
S'2016-02-13 23:12:23'
p2175
sg25
S'626/B'
p2176
sa(dp2177
g21
g22
sg23
S'2016-02-13 23:14:55'
p2178
sg25
S'626/C'
p2179
sa(dp2180
g21
g22
sg23
S'2016-02-13 23:28:18'
p2181
sg25
S'626/D'
p2182
sa(dp2183
g21
g22
sg23
S'2016-02-14 00:10:56'
p2184
sg25
S'626/E'
p2185
sa(dp2186
g21
g22
sg23
S'2016-02-13 23:47:34'
p2187
sg25
S'626/F'
p2188
sa(dp2189
g21
g32
sg23
S'2016-02-14 01:50:24'
p2190
sg25
S'626/G'
p2191
sa(dp2192
g21
g22
sg23
S'2016-02-28 23:44:01'
p2193
sg25
S'627/A'
p2194
sa(dp2195
g21
g22
sg23
S'2016-02-28 23:51:13'
p2196
sg25
S'627/B'
p2197
sa(dp2198
g21
g22
sg23
S'2016-02-29 00:39:52'
p2199
sg25
S'627/C'
p2200
sa(dp2201
g21
g22
sg23
S'2016-02-29 00:57:20'
p2202
sg25
S'627/D'
p2203
sa(dp2204
g21
g22
sg23
S'2016-02-29 00:18:22'
p2205
sg25
S'627/E'
p2206
sa(dp2207
g21
g22
sg23
S'2016-02-26 22:46:43'
p2208
sg25
S'633/A'
p2209
sa(dp2210
g21
g22
sg23
S'2016-02-26 22:48:56'
p2211
sg25
S'633/B'
p2212
sa(dp2213
g21
g22
sg23
S'2016-02-26 23:25:16'
p2214
sg25
S'633/C'
p2215
sa(dp2216
g21
g22
sg23
S'2016-02-26 23:34:04'
p2217
sg25
S'633/D'
p2218
sa(dp2219
g21
g22
sg23
S'2016-02-27 00:07:51'
p2220
sg25
S'633/E'
p2221
sa(dp2222
g21
g32
sg23
S'2016-02-26 23:44:13'
p2223
sg25
S'633/F'
p2224
sa(dp2225
g21
g22
sg23
S'2016-02-27 00:27:42'
p2226
sg25
S'633/G'
p2227
sa(dp2228
g21
g22
sg23
S'2016-02-27 01:12:37'
p2229
sg25
S'633/H'
p2230
sa(dp2231
g21
g22
sg23
S'2016-03-13 19:24:23'
p2232
sg25
S'637/A'
p2233
sa(dp2234
g21
g22
sg23
S'2016-03-13 19:24:48'
p2235
sg25
S'637/B'
p2236
sa(dp2237
g21
g22
sg23
S'2016-03-13 19:25:28'
p2238
sg25
S'637/C'
p2239
sa(dp2240
g21
g22
sg23
S'2016-03-13 21:02:09'
p2241
sg25
S'637/D'
p2242
sa(dp2243
g21
g22
sg23
S'2016-03-28 22:09:04'
p2244
sg25
S'639/A'
p2245
sa(dp2246
g21
g22
sg23
S'2016-03-28 22:21:59'
p2247
sg25
S'639/B'
p2248
sa(dp2249
g21
g32
sg23
S'2016-03-28 22:36:52'
p2250
sg25
S'639/C'
p2251
sa(dp2252
g21
g22
sg23
S'2016-03-28 22:22:31'
p2253
sg25
S'639/D'
p2254
sa(dp2255
g21
g32
sg23
S'2016-03-28 23:11:33'
p2256
sg25
S'639/E'
p2257
sa(dp2258
g21
g22
sg23
S'2016-04-24 22:07:59'
p2259
sg25
S'641/A'
p2260
sa(dp2261
g21
g22
sg23
S'2016-04-24 22:09:47'
p2262
sg25
S'641/B'
p2263
sa(dp2264
g21
g28
sg23
S'2016-04-24 22:43:25'
p2265
sg25
S'641/C'
p2266
sa(dp2267
g21
g28
sg23
S'2016-04-24 23:11:45'
p2268
sg25
S'641/D'
p2269
sa(dp2270
g21
g22
sg23
S'2016-04-24 22:18:59'
p2271
sg25
S'641/E'
p2272
sa(dp2273
g21
g32
sg23
S'2016-04-24 23:54:43'
p2274
sg25
S'641/F'
p2275
sa(dp2276
g21
g22
sg23
S'2016-05-07 20:37:40'
p2277
sg25
S'643/A'
p2278
sa(dp2279
g21
g28
sg23
S'2016-05-07 20:48:49'
p2280
sg25
S'643/B'
p2281
sa(dp2282
g21
g22
sg23
S'2016-05-07 21:58:22'
p2283
sg25
S'643/C'
p2284
sa(dp2285
g21
g22
sg23
S'2016-05-07 21:21:30'
p2286
sg25
S'643/E'
p2287
sa(dp2288
g21
g28
sg23
S'2016-05-07 22:15:38'
p2289
sg25
S'643/F'
p2290
sa(dp2291
g21
g22
sg23
S'2016-03-16 16:41:28'
p2292
sg25
S'644/A'
p2293
sa(dp2294
g21
g22
sg23
S'2016-03-16 16:54:43'
p2295
sg25
S'644/B'
p2296
sa(dp2297
g21
g22
sg23
S'2016-03-16 17:10:49'
p2298
sg25
S'644/C'
p2299
sa(dp2300
g21
g22
sg23
S'2016-03-18 22:10:33'
p2301
sg25
S'645/A'
p2302
sa(dp2303
g21
g22
sg23
S'2016-03-18 22:08:16'
p2304
sg25
S'645/B'
p2305
sa(dp2306
g21
g22
sg23
S'2016-03-18 22:13:25'
p2307
sg25
S'645/C'
p2308
sa(dp2309
g21
g22
sg23
S'2016-03-18 22:17:19'
p2310
sg25
S'645/D'
p2311
sa(dp2312
g21
g22
sg23
S'2016-03-18 22:31:00'
p2313
sg25
S'645/E'
p2314
sa(dp2315
g21
g22
sg23
S'2016-03-18 22:45:24'
p2316
sg25
S'645/F'
p2317
sa(dp2318
g21
g22
sg23
S'2016-03-07 14:56:49'
p2319
sg25
S'650/A'
p2320
sa(dp2321
g21
g22
sg23
S'2016-03-07 15:16:50'
p2322
sg25
S'650/B'
p2323
sa(dp2324
g21
g22
sg23
S'2016-03-07 15:07:16'
p2325
sg25
S'650/C'
p2326
sa(dp2327
g21
g22
sg23
S'2016-03-07 15:35:46'
p2328
sg25
S'650/D'
p2329
sa(dp2330
g21
g22
sg23
S'2016-03-07 16:37:46'
p2331
sg25
S'650/E'
p2332
sa(dp2333
g21
g22
sg23
S'2016-04-15 20:03:09'
p2334
sg25
S'662/A'
p2335
sa(dp2336
g21
g22
sg23
S'2016-04-15 20:18:03'
p2337
sg25
S'662/B'
p2338
sa(dp2339
g21
g22
sg23
S'2016-04-15 21:30:52'
p2340
sg25
S'662/D'
p2341
sa(dp2342
g21
g22
sg23
S'2016-04-15 21:09:21'
p2343
sg25
S'662/E'
p2344
sa(dp2345
g21
g22
sg23
S'2016-07-01 14:41:58'
p2346
sg25
S'685/A'
p2347
sa(dp2348
g21
g22
sg23
S'2016-07-01 14:51:48'
p2349
sg25
S'685/B'
p2350
sa(dp2351
g21
g22
sg23
S'2016-07-01 15:30:09'
p2352
sg25
S'685/C'
p2353
sa(dp2354
g21
g22
sg23
S'2016-07-01 15:41:45'
p2355
sg25
S'685/D'
p2356
sa(dp2357
g21
g28
sg23
S'2016-07-01 16:23:08'
p2358
sg25
S'685/E'
p2359
sa(dp2360
g21
g22
sg23
S'2016-06-29 22:39:22'
p2361
sg25
S'687/A'
p2362
sa(dp2363
g21
g22
sg23
S'2016-06-29 22:43:33'
p2364
sg25
S'687/B'
p2365
sa(dp2366
g21
g22
sg23
S'2016-06-29 22:47:12'
p2367
sg25
S'687/C'
p2368
sa(dp2369
g21
g28
sg23
S'2016-06-29 23:53:56'
p2370
sg25
S'687/D'
p2371
sa(dp2372
g21
g22
sg23
S'2016-06-30 00:20:29'
p2373
sg25
S'687/E'
p2374
sa(dp2375
g21
g28
sg23
S'2016-07-03 14:24:14'
p2376
sg25
S'695/A'
p2377
sa(dp2378
g21
g22
sg23
S'2016-07-03 14:28:55'
p2379
sg25
S'695/B'
p2380
sa(dp2381
g21
g28
sg23
S'2016-07-03 17:10:03'
p2382
sg25
S'695/C'
p2383
sa(dp2384
g21
g22
sg23
S'2016-07-03 15:09:58'
p2385
sg25
S'695/D'
p2386
sa(dp2387
g21
g28
sg23
S'2016-07-03 15:34:54'
p2388
sg25
S'695/E'
p2389
sa(dp2390
g21
g22
sg23
S'2016-07-03 16:55:39'
p2391
sg25
S'695/F'
p2392
sa(dp2393
g21
g22
sg23
S'2016-08-22 19:41:06'
p2394
sg25
S'710/A'
p2395
sa(dp2396
g21
g28
sg23
S'2016-08-22 19:42:57'
p2397
sg25
S'710/B'
p2398
sa(dp2399
g21
g22
sg23
S'2016-08-22 20:24:25'
p2400
sg25
S'710/C'
p2401
sa(dp2402
g21
g72
sg23
S'2016-08-24 15:06:58'
p2403
sg25
S'710/D'
p2404
sa(dp2405
g21
g22
sg23
S'2016-08-22 19:52:26'
p2406
sg25
S'710/E'
p2407
sa(dp2408
g21
g22
sg23
S'2016-08-22 20:39:21'
p2409
sg25
S'710/F'
p2410
sa(dp2411
g21
g22
sg23
S'2016-09-11 17:27:19'
p2412
sg25
S'717/A'
p2413
sa(dp2414
g21
g32
sg23
S'2016-09-11 16:18:21'
p2415
sg25
S'717/B'
p2416
sa(dp2417
g21
g28
sg23
S'2016-09-11 14:45:57'
p2418
sg25
S'717/C'
p2419
sa(dp2420
g21
g22
sg23
S'2016-09-11 14:45:42'
p2421
sg25
S'717/D'
p2422
sa(dp2423
g21
g22
sg23
S'2016-09-11 14:54:12'
p2424
sg25
S'717/E'
p2425
sa(dp2426
g21
g72
sg23
S'2016-09-11 16:14:06'
p2427
sg25
S'717/F'
p2428
sa(dp2429
g21
g22
sg23
S'2016-09-11 16:54:38'
p2430
sg25
S'717/G'
p2431
sa(dp2432
g21
g22
sg23
S'2016-09-11 16:22:51'
p2433
sg25
S'717/H'
p2434
sa(dp2435
g21
g680
sg23
S'2016-09-11 19:12:46'
p2436
sg25
S'717/I'
p2437
sa(dp2438
g21
g139
sg23
S'2015-01-22 19:17:23'
p2439
sg25
S'100125/K'
p2440
sa(dp2441
g21
g22
sg23
S'2013-06-04 16:28:35'
p2442
sg25
S'100153/A'
p2443
sa(dp2444
g21
g22
sg23
S'2013-06-04 16:35:38'
p2445
sg25
S'100153/B'
p2446
sa(dp2447
g21
g22
sg23
S'2013-06-04 16:23:55'
p2448
sg25
S'100153/C'
p2449
sa(dp2450
g21
g22
sg23
S'2013-06-04 17:21:16'
p2451
sg25
S'100153/D'
p2452
sa(dp2453
g21
g22
sg23
S'2013-06-04 16:56:32'
p2454
sg25
S'100153/E'
p2455
sa(dp2456
g21
g28
sg23
S'2013-06-04 18:49:24'
p2457
sg25
S'100153/F'
p2458
sa(dp2459
g21
g22
sg23
S'2013-06-04 16:04:49'
p2460
sg25
S'100153/G'
p2461
sa(dp2462
g21
g22
sg23
S'2013-06-04 19:00:00'
p2463
sg25
S'100153/H'
p2464
sa(dp2465
g21
g32
sg23
S'2013-06-04 17:53:02'
p2466
sg25
S'100153/I'
p2467
sa(dp2468
g21
g22
sg23
S'2013-06-04 17:11:29'
p2469
sg25
S'100153/J'
p2470
sa(dp2471
g21
g22
sg23
S'2013-09-18 18:16:08'
p2472
sg25
S'100228/A'
p2473
sa(dp2474
g21
g32
sg23
S'2013-09-18 18:45:28'
p2475
sg25
S'100228/B'
p2476
sa(dp2477
g21
g22
sg23
S'2013-09-18 18:52:26'
p2478
sg25
S'100228/C'
p2479
sa(dp2480
g21
g22
sg23
S'2013-09-18 18:57:44'
p2481
sg25
S'100228/D'
p2482
sa(dp2483
g21
g28
sg23
S'2013-09-18 19:03:49'
p2484
sg25
S'100228/E'
p2485
sa(dp2486
g21
g22
sg23
S'2013-09-18 19:14:28'
p2487
sg25
S'100228/F'
p2488
sa(dp2489
g21
g28
sg23
S'2013-09-18 19:32:02'
p2490
sg25
S'100228/G'
p2491
sa(dp2492
g21
g22
sg23
S'2013-09-18 19:36:39'
p2493
sg25
S'100228/H'
p2494
sa(dp2495
g21
g22
sg23
S'2013-09-18 19:41:04'
p2496
sg25
S'100228/I'
p2497
sa(dp2498
g21
g28
sg23
S'2013-09-18 19:47:05'
p2499
sg25
S'100228/J'
p2500
sa(dp2501
g21
g28
sg23
S'2013-09-18 19:57:46'
p2502
sg25
S'100228/K'
p2503
sa(dp2504
g21
g22
sg23
S'2013-09-18 20:08:17'
p2505
sg25
S'100228/L'
p2506
sa(dp2507
g21
g32
sg23
S'2013-09-18 21:01:25'
p2508
sg25
S'100228/M'
p2509
sa(dp2510
g21
g22
sg23
S'2013-10-30 20:01:28'
p2511
sg25
S'100268/A'
p2512
sa(dp2513
g21
g22
sg23
S'2013-10-30 20:21:33'
p2514
sg25
S'100268/B'
p2515
sa(dp2516
g21
g22
sg23
S'2013-10-30 18:30:30'
p2517
sg25
S'100268/C'
p2518
sa(dp2519
g21
g22
sg23
S'2013-10-30 18:41:37'
p2520
sg25
S'100268/D'
p2521
sa(dp2522
g21
g22
sg23
S'2013-10-30 18:06:23'
p2523
sg25
S'100268/E'
p2524
sa(dp2525
g21
g22
sg23
S'2013-10-30 19:12:26'
p2526
sg25
S'100268/F'
p2527
sa(dp2528
g21
g22
sg23
S'2013-10-30 17:50:01'
p2529
sg25
S'100268/G'
p2530
sa(dp2531
g21
g22
sg23
S'2013-10-30 17:59:39'
p2532
sg25
S'100268/H'
p2533
sa(dp2534
g21
g22
sg23
S'2013-10-30 18:13:49'
p2535
sg25
S'100268/I'
p2536
sa(dp2537
g21
g22
sg23
S'2013-10-30 19:45:08'
p2538
sg25
S'100268/J'
p2539
sa(dp2540
g21
g22
sg23
S'2013-10-30 21:27:08'
p2541
sg25
S'100268/K'
p2542
sa(dp2543
g21
g22
sg23
S'2013-10-30 21:47:25'
p2544
sg25
S'100268/L'
p2545
sa(dp2546
g21
g22
sg23
S'2014-09-11 17:43:27'
p2547
sg25
S'100484/A'
p2548
sa(dp2549
g21
g72
sg23
S'2014-09-11 18:14:32'
p2550
sg25
S'100484/B'
p2551
sa(dp2552
g21
g22
sg23
S'2014-09-11 18:24:21'
p2553
sg25
S'100484/C'
p2554
sa(dp2555
g21
g22
sg23
S'2014-09-11 18:38:42'
p2556
sg25
S'100484/D'
p2557
sa(dp2558
g21
g22
sg23
S'2014-09-11 18:45:59'
p2559
sg25
S'100484/E'
p2560
sa(dp2561
g21
g28
sg23
S'2014-09-11 18:56:32'
p2562
sg25
S'100484/F'
p2563
sa(dp2564
g21
g22
sg23
S'2014-09-11 19:01:19'
p2565
sg25
S'100484/G'
p2566
sa(dp2567
g21
g22
sg23
S'2014-09-11 19:08:44'
p2568
sg25
S'100484/H'
p2569
sa(dp2570
g21
g22
sg23
S'2014-09-11 19:19:08'
p2571
sg25
S'100484/I'
p2572
sa(dp2573
g21
g22
sg23
S'2014-09-11 19:46:33'
p2574
sg25
S'100484/J'
p2575
sa(dp2576
g21
g22
sg23
S'2014-09-11 19:53:34'
p2577
sg25
S'100484/K'
p2578
sa(dp2579
g21
g22
sg23
S'2014-09-11 19:59:15'
p2580
sg25
S'100484/L'
p2581
sa(dp2582
g21
g22
sg23
S'2014-11-10 22:07:26'
p2583
sg25
S'100500/A'
p2584
sa(dp2585
g21
g22
sg23
S'2014-11-10 22:14:06'
p2586
sg25
S'100500/B'
p2587
sa(dp2588
g21
g22
sg23
S'2014-11-10 22:01:37'
p2589
sg25
S'100500/C'
p2590
sa(dp2591
g21
g22
sg23
S'2014-11-10 21:42:45'
p2592
sg25
S'100500/D'
p2593
sa(dp2594
g21
g28
sg23
S'2014-11-10 22:30:23'
p2595
sg25
S'100500/E'
p2596
sa(dp2597
g21
g22
sg23
S'2014-11-10 21:39:53'
p2598
sg25
S'100500/F'
p2599
sa(dp2600
g21
g22
sg23
S'2014-11-10 22:29:20'
p2601
sg25
S'100500/G'
p2602
sa(dp2603
g21
g22
sg23
S'2014-11-10 21:52:07'
p2604
sg25
S'100500/H'
p2605
sa(dp2606
g21
g28
sg23
S'2014-11-10 21:57:54'
p2607
sg25
S'100500/I'
p2608
sa(dp2609
g21
g28
sg23
S'2014-11-10 21:35:51'
p2610
sg25
S'100500/J'
p2611
sa(dp2612
g21
g22
sg23
S'2014-11-01 21:03:08'
p2613
sg25
S'100514/E'
p2614
sa(dp2615
g21
g22
sg23
S'2014-11-01 21:05:14'
p2616
sg25
S'100514/H'
p2617
sa(dp2618
g21
g22
sg23
S'2014-11-01 20:47:28'
p2619
sg25
S'100514/I'
p2620
sa(dp2621
g21
g22
sg23
S'2014-11-01 20:51:32'
p2622
sg25
S'100514/J'
p2623
sa(dp2624
g21
g22
sg23
S'2014-11-01 20:56:21'
p2625
sg25
S'100514/K'
p2626
sa(dp2627
g21
g22
sg23
S'2014-11-01 20:53:09'
p2628
sg25
S'100514/M'
p2629
sa(dp2630
g21
g22
sg23
S'2014-11-01 21:10:12'
p2631
sg25
S'100514/O'
p2632
sa(dp2633
g21
g22
sg23
S'2014-11-01 20:44:49'
p2634
sg25
S'100514/Q'
p2635
sa(dp2636
g21
g22
sg23
S'2014-11-01 20:46:10'
p2637
sg25
S'100514/R'
p2638
sa(dp2639
g21
g32
sg23
S'2014-10-30 19:10:57'
p2640
sg25
S'100523/A'
p2641
sa(dp2642
g21
g22
sg23
S'2014-10-30 19:36:09'
p2643
sg25
S'100523/H'
p2644
sa(dp2645
g21
g22
sg23
S'2014-10-30 19:39:37'
p2646
sg25
S'100523/J'
p2647
sa(dp2648
g21
g22
sg23
S'2014-11-06 19:55:05'
p2649
sg25
S'100526/A'
p2650
sa(dp2651
g21
g22
sg23
S'2014-11-06 19:11:17'
p2652
sg25
S'100526/B'
p2653
sa(dp2654
g21
g32
sg23
S'2014-11-06 19:30:40'
p2655
sg25
S'100526/C'
p2656
sa(dp2657
g21
g22
sg23
S'2014-11-06 20:29:31'
p2658
sg25
S'100526/D'
p2659
sa(dp2660
g21
g22
sg23
S'2014-11-06 19:14:42'
p2661
sg25
S'100526/E'
p2662
sa(dp2663
g21
g22
sg23
S'2014-11-06 20:39:09'
p2664
sg25
S'100526/F'
p2665
sa(dp2666
g21
g22
sg23
S'2014-11-06 19:07:35'
p2667
sg25
S'100526/G'
p2668
sa(dp2669
g21
g680
sg23
S'2014-11-06 23:49:26'
p2670
sg25
S'100526/H'
p2671
sa(dp2672
g21
g22
sg23
S'2014-11-06 19:39:27'
p2673
sg25
S'100526/I'
p2674
sa(dp2675
g21
g22
sg23
S'2014-11-06 19:04:34'
p2676
sg25
S'100526/J'
p2677
sa(dp2678
g21
g28
sg23
S'2014-11-06 18:58:23'
p2679
sg25
S'100526/K'
p2680
sa(dp2681
g21
g28
sg23
S'2014-12-09 19:47:51'
p2682
sg25
S'100553/G'
p2683
sa(dp2684
g21
g22
sg23
S'2015-01-07 23:02:10'
p2685
sg25
S'100570/A'
p2686
sa(dp2687
g21
g22
sg23
S'2015-01-07 23:41:00'
p2688
sg25
S'100570/B'
p2689
sa(dp2690
g21
g22
sg23
S'2015-01-07 23:12:12'
p2691
sg25
S'100570/C'
p2692
sa(dp2693
g21
g32
sg23
S'2015-01-08 00:12:13'
p2694
sg25
S'100570/D'
p2695
sa(dp2696
g21
g22
sg23
S'2015-01-07 23:29:09'
p2697
sg25
S'100570/E'
p2698
sa(dp2699
g21
g22
sg23
S'2015-01-08 00:04:32'
p2700
sg25
S'100570/F'
p2701
sasS'probs'
p2702
(lp2703
S'717/I'
p2704
aS'717/I'
p2705
aS'717/A'
p2706
aS'717/G'
p2707
aS'717/H'
p2708
aS'717/B'
p2709
aS'717/F'
p2710
aS'717/E'
p2711
aS'717/C'
p2712
aS'717/D'
p2713
aS'710/D'
p2714
aS'710/F'
p2715
aS'710/C'
p2716
aS'710/E'
p2717
aS'710/B'
p2718
aS'710/A'
p2719
aS'695/C'
p2720
aS'695/F'
p2721
aS'695/E'
p2722
aS'695/D'
p2723
aS'695/B'
p2724
aS'695/A'
p2725
aS'685/E'
p2726
aS'685/D'
p2727
aS'685/C'
p2728
aS'685/B'
p2729
aS'685/A'
p2730
aS'687/E'
p2731
aS'687/D'
p2732
aS'687/C'
p2733
aS'687/B'
p2734
aS'687/A'
p2735
aS'643/F'
p2736
aS'643/C'
p2737
aS'643/E'
p2738
aS'643/B'
p2739
aS'643/A'
p2740
aS'641/F'
p2741
aS'641/D'
p2742
aS'641/C'
p2743
aS'641/E'
p2744
aS'641/B'
p2745
aS'641/A'
p2746
aS'662/D'
p2747
aS'662/E'
p2748
aS'662/B'
p2749
aS'662/A'
p2750
aS'639/E'
p2751
aS'639/C'
p2752
aS'639/D'
p2753
aS'639/B'
p2754
aS'639/A'
p2755
aS'645/F'
p2756
aS'645/E'
p2757
aS'645/D'
p2758
aS'645/C'
p2759
aS'645/A'
p2760
aS'645/B'
p2761
aS'644/C'
p2762
aS'644/B'
p2763
aS'644/A'
p2764
aS'637/D'
p2765
aS'637/C'
p2766
aS'637/B'
p2767
aS'637/A'
p2768
aS'650/E'
p2769
aS'650/D'
p2770
aS'650/B'
p2771
aS'650/C'
p2772
aS'650/A'
p2773
aS'627/D'
p2774
aS'627/C'
p2775
aS'627/E'
p2776
aS'627/B'
p2777
aS'627/A'
p2778
aS'633/H'
p2779
aS'633/G'
p2780
aS'633/E'
p2781
aS'633/F'
p2782
aS'633/D'
p2783
aS'633/C'
p2784
aS'633/B'
p2785
aS'633/A'
p2786
aS'626/G'
p2787
aS'626/E'
p2788
aS'626/F'
p2789
aS'626/D'
p2790
aS'626/C'
p2791
aS'626/B'
p2792
aS'626/A'
p2793
aS'620/F'
p2794
aS'620/D'
p2795
aS'620/E'
p2796
aS'620/C'
p2797
aS'620/B'
p2798
aS'620/A'
p2799
aS'611/G'
p2800
aS'611/H'
p2801
aS'611/E'
p2802
aS'611/F'
p2803
aS'611/D'
p2804
aS'611/C'
p2805
aS'611/A'
p2806
aS'611/B'
p2807
aS'607/C'
p2808
aS'607/D'
p2809
aS'607/B'
p2810
aS'607/A'
p2811
aS'596/E'
p2812
aS'596/D'
p2813
aS'596/C'
p2814
aS'596/B'
p2815
aS'596/A'
p2816
aS'575/E'
p2817
aS'575/I'
p2818
aS'575/E'
p2819
aS'575/C'
p2820
aS'575/A'
p2821
aS'575/B'
p2822
aS'575/G'
p2823
aS'575/F'
p2824
aS'575/H'
p2825
aS'575/D'
p2826
aS'573/B'
p2827
aS'573/A'
p2828
aS'566/A'
p2829
aS'562/C'
p2830
aS'562/G'
p2831
aS'562/E'
p2832
aS'562/D'
p2833
aS'562/B'
p2834
aS'526/F'
p2835
aS'549/F'
p2836
aS'549/B'
p2837
aS'549/D'
p2838
aS'549/C'
p2839
aS'549/G'
p2840
aS'549/H'
p2841
aS'549/A'
p2842
aS'541/C'
p2843
aS'541/D'
p2844
aS'541/A'
p2845
aS'541/E'
p2846
aS'541/F'
p2847
aS'532/A'
p2848
aS'532/D'
p2849
aS'532/F'
p2850
aS'532/C'
p2851
aS'532/B'
p2852
aS'532/E'
p2853
aS'526/F'
p2854
aS'526/E'
p2855
aS'526/D'
p2856
aS'526/C'
p2857
aS'526/B'
p2858
aS'526/A'
p2859
aS'524/F'
p2860
aS'524/D'
p2861
aS'524/E'
p2862
aS'524/C'
p2863
aS'524/A'
p2864
aS'524/B'
p2865
aS'522/D'
p2866
aS'522/A'
p2867
aS'522/C'
p2868
aS'522/B'
p2869
aS'513/G3'
p2870
aS'513/G2'
p2871
aS'513/G2'
p2872
aS'513/F2'
p2873
aS'513/F1'
p2874
aS'513/E2'
p2875
aS'513/E1'
p2876
aS'513/G2'
p2877
aS'513/G1'
p2878
aS'513/D2'
p2879
aS'513/D1'
p2880
aS'513/D1'
p2881
aS'513/D1'
p2882
aS'513/G1'
p2883
aS'513/B2'
p2884
aS'513/C'
p2885
aS'513/B1'
p2886
aS'513/A'
p2887
aS'512/E'
p2888
aS'512/C'
p2889
aS'512/D'
p2890
aS'512/A'
p2891
aS'512/B'
p2892
aS'507/D'
p2893
aS'507/E'
p2894
aS'507/C'
p2895
aS'507/B'
p2896
aS'507/A'
p2897
aS'100125/K'
p2898
aS'100125/K'
p2899
aS'100570/D'
p2900
aS'100570/F'
p2901
aS'100570/B'
p2902
aS'100570/E'
p2903
aS'100570/C'
p2904
aS'100570/A'
p2905
aS'500/F'
p2906
aS'500/E'
p2907
aS'500/D'
p2908
aS'500/C'
p2909
aS'500/A'
p2910
aS'500/B'
p2911
aS'494/D'
p2912
aS'494/C'
p2913
aS'494/E'
p2914
aS'494/B'
p2915
aS'494/A'
p2916
aS'100553/G'
p2917
aS'100553/G'
p2918
aS'492/D'
p2919
aS'492/E'
p2920
aS'492/C'
p2921
aS'492/A'
p2922
aS'492/B'
p2923
aS'100500/E'
p2924
aS'100500/G'
p2925
aS'100500/B'
p2926
aS'100500/A'
p2927
aS'100500/C'
p2928
aS'100500/I'
p2929
aS'100500/H'
p2930
aS'100500/D'
p2931
aS'100500/F'
p2932
aS'100500/J'
p2933
aS'100526/H'
p2934
aS'100526/F'
p2935
aS'100526/D'
p2936
aS'100526/A'
p2937
aS'100526/I'
p2938
aS'100526/C'
p2939
aS'100526/E'
p2940
aS'100526/B'
p2941
aS'100526/G'
p2942
aS'100526/J'
p2943
aS'100526/K'
p2944
aS'100514/O'
p2945
aS'100514/H'
p2946
aS'100514/E'
p2947
aS'100514/K'
p2948
aS'100514/M'
p2949
aS'100514/J'
p2950
aS'100514/I'
p2951
aS'100514/R'
p2952
aS'100514/Q'
p2953
aS'100523/J'
p2954
aS'100523/H'
p2955
aS'100523/A'
p2956
aS'482/E'
p2957
aS'482/E'
p2958
aS'482/E'
p2959
aS'482/E'
p2960
aS'482/E'
p2961
aS'482/C'
p2962
aS'482/C'
p2963
aS'482/C'
p2964
aS'482/C'
p2965
aS'482/D'
p2966
aS'482/C'
p2967
aS'482/B'
p2968
aS'482/A'
p2969
aS'474/E'
p2970
aS'474/F'
p2971
aS'474/D'
p2972
aS'474/C'
p2973
aS'474/B'
p2974
aS'474/A'
p2975
aS'472/E'
p2976
aS'472/D'
p2977
aS'472/C'
p2978
aS'472/B'
p2979
aS'472/A'
p2980
aS'466/E'
p2981
aS'466/D'
p2982
aS'466/C'
p2983
aS'466/B'
p2984
aS'466/A'
p2985
aS'100484/L'
p2986
aS'100484/K'
p2987
aS'100484/J'
p2988
aS'100484/I'
p2989
aS'100484/H'
p2990
aS'100484/G'
p2991
aS'100484/F'
p2992
aS'100484/E'
p2993
aS'100484/D'
p2994
aS'100484/C'
p2995
aS'100484/B'
p2996
aS'100484/A'
p2997
aS'464/D'
p2998
aS'464/B'
p2999
aS'464/C'
p3000
aS'464/A'
p3001
aS'458/D'
p3002
aS'458/B'
p3003
aS'458/C'
p3004
aS'458/A'
p3005
aS'455/E'
p3006
aS'455/D'
p3007
aS'455/C'
p3008
aS'455/B'
p3009
aS'455/A'
p3010
aS'452/E'
p3011
aS'452/D'
p3012
aS'452/B'
p3013
aS'452/C'
p3014
aS'452/A'
p3015
aS'442/E'
p3016
aS'442/C'
p3017
aS'442/D'
p3018
aS'442/B'
p3019
aS'442/A'
p3020
aS'436/F'
p3021
aS'436/D'
p3022
aS'436/C'
p3023
aS'436/B'
p3024
aS'436/A'
p3025
aS'412/E'
p3026
aS'412/D'
p3027
aS'412/A'
p3028
aS'412/B'
p3029
aS'412/C'
p3030
aS'418/D'
p3031
aS'418/C'
p3032
aS'418/B'
p3033
aS'418/A'
p3034
aS'409/E'
p3035
aS'409/D'
p3036
aS'409/H'
p3037
aS'409/B'
p3038
aS'409/C'
p3039
aS'409/A'
p3040
aS'407/D'
p3041
aS'407/C'
p3042
aS'407/A'
p3043
aS'407/B'
p3044
aS'388/D'
p3045
aS'388/A'
p3046
aS'388/C'
p3047
aS'388/B'
p3048
aS'379/E'
p3049
aS'379/D'
p3050
aS'379/B'
p3051
aS'379/C'
p3052
aS'379/A'
p3053
aS'377/E'
p3054
aS'377/C'
p3055
aS'377/B'
p3056
aS'377/D'
p3057
aS'377/A'
p3058
aS'372/D'
p3059
aS'372/C'
p3060
aS'372/B'
p3061
aS'372/A'
p3062
aS'367/E'
p3063
aS'367/D'
p3064
aS'367/A'
p3065
aS'367/C'
p3066
aS'367/B'
p3067
aS'100268/L'
p3068
aS'100268/K'
p3069
aS'100268/B'
p3070
aS'100268/A'
p3071
aS'100268/J'
p3072
aS'100268/F'
p3073
aS'100268/D'
p3074
aS'100268/C'
p3075
aS'100268/I'
p3076
aS'100268/E'
p3077
aS'100268/H'
p3078
aS'100268/G'
p3079
aS'356/D'
p3080
aS'356/C'
p3081
aS'356/A'
p3082
aS'356/B'
p3083
aS'100228/M'
p3084
aS'100228/M'
p3085
aS'100228/L'
p3086
aS'100228/K'
p3087
aS'100228/J'
p3088
aS'100228/I'
p3089
aS'100228/H'
p3090
aS'100228/G'
p3091
aS'100228/F'
p3092
aS'100228/E'
p3093
aS'100228/D'
p3094
aS'100228/C'
p3095
aS'100228/B'
p3096
aS'100228/A'
p3097
aS'343/E'
p3098
aS'343/D'
p3099
aS'343/C'
p3100
aS'343/B'
p3101
aS'343/A'
p3102
aS'338/D'
p3103
aS'338/C'
p3104
aS'338/A'
p3105
aS'338/E'
p3106
aS'338/B'
p3107
aS'335/E'
p3108
aS'335/D'
p3109
aS'335/B'
p3110
aS'335/C'
p3111
aS'335/A'
p3112
aS'329/C'
p3113
aS'329/D'
p3114
aS'329/B'
p3115
aS'329/A'
p3116
aS'331/D3'
p3117
aS'331/D2'
p3118
aS'331/D2'
p3119
aS'331/D1'
p3120
aS'331/B2'
p3121
aS'331/B1'
p3122
aS'331/A2'
p3123
aS'331/A1'
p3124
aS'331/C3'
p3125
aS'331/C2'
p3126
aS'331/C1'
p3127
aS'317/D'
p3128
aS'317/B'
p3129
aS'317/A'
p3130
aS'316/F3'
p3131
aS'316/F2'
p3132
aS'316/F2'
p3133
aS'316/F1'
p3134
aS'316/E3'
p3135
aS'316/E2'
p3136
aS'316/G2'
p3137
aS'316/G1'
p3138
aS'316/C2'
p3139
aS'316/C1'
p3140
aS'316/D3'
p3141
aS'316/D2'
p3142
aS'316/E1'
p3143
aS'316/D1'
p3144
aS'316/B2'
p3145
aS'316/B1'
p3146
aS'316/A2'
p3147
aS'316/A1'
p3148
aS'100153/H'
p3149
aS'100153/F'
p3150
aS'100153/I'
p3151
aS'100153/D'
p3152
aS'100153/J'
p3153
aS'100153/E'
p3154
aS'100153/B'
p3155
aS'100153/A'
p3156
aS'100153/C'
p3157
aS'100153/G'
p3158
aS'308/D'
p3159
aS'308/B'
p3160
aS'308/C'
p3161
aS'308/A'
p3162
aS'303/E'
p3163
aS'293/E'
p3164
aS'293/B'
p3165
aS'293/A'
p3166
aS'293/C'
p3167
aS'293/D'
p3168
aS'297/E'
p3169
aS'297/C'
p3170
aS'297/D'
p3171
aS'297/B'
p3172
aS'297/A'
p3173
aS'292/D'
p3174
aS'292/C'
p3175
aS'292/D'
p3176
aS'292/E'
p3177
aS'292/A'
p3178
aS'292/B'
p3179
aS'291/E'
p3180
aS'291/D'
p3181
aS'291/C'
p3182
aS'291/B'
p3183
aS'291/A'
p3184
aS'280/C'
p3185
aS'280/B'
p3186
aS'280/A'
p3187
aS'273/E'
p3188
aS'273/D'
p3189
aS'273/B'
p3190
aS'273/A'
p3191
aS'269/D'
p3192
aS'269/B'
p3193
aS'269/A'
p3194
aS'269/C'
p3195
aS'260/D'
p3196
aS'260/E'
p3197
aS'260/C'
p3198
aS'260/B'
p3199
aS'260/A'
p3200
aS'251/C'
p3201
aS'251/D'
p3202
aS'251/B'
p3203
aS'251/A'
p3204
aS'243/B'
p3205
aS'243/C'
p3206
aS'243/A'
p3207
aS'238/E'
p3208
aS'238/B'
p3209
aS'238/C'
p3210
aS'238/A'
p3211
aS'241/D'
p3212
aS'241/D'
p3213
aS'241/B'
p3214
aS'241/F'
p3215
aS'241/E'
p3216
aS'241/G'
p3217
aS'241/C'
p3218
aS'241/A'
p3219
aS'235/B'
p3220
aS'235/A'
p3221
aS'240/E'
p3222
aS'240/F'
p3223
aS'240/A'
p3224
aS'240/D'
p3225
aS'240/B'
p3226
aS'240/C'
p3227
aS'232/D'
p3228
aS'232/A'
p3229
aS'232/B'
p3230
aS'225/D'
p3231
aS'225/B'
p3232
aS'225/E'
p3233
aS'225/A'
p3234
aS'225/C'
p3235
aS'223/A'
p3236
aS'223/B'
p3237
aS'223/C'
p3238
aS'217/C'
p3239
aS'217/B'
p3240
aS'217/A'
p3241
aS'216/A'
p3242
aS'213/D'
p3243
aS'213/C'
p3244
aS'213/B'
p3245
aS'213/A'
p3246
aS'212/A'
p3247
aS'211/D'
p3248
aS'211/C'
p3249
aS'211/B'
p3250
aS'211/E'
p3251
aS'209/B'
p3252
aS'209/C'
p3253
aS'209/A'
p3254
aS'204/E'
p3255
aS'204/D'
p3256
aS'204/C'
p3257
aS'204/B'
p3258
aS'204/A'
p3259
aS'198/C'
p3260
aS'198/E'
p3261
aS'198/B'
p3262
aS'198/A'
p3263
aS'196/D'
p3264
aS'196/E'
p3265
aS'196/C'
p3266
aS'196/B'
p3267
aS'196/A'
p3268
aS'193/E'
p3269
aS'193/C'
p3270
aS'193/B'
p3271
aS'193/A'
p3272
aS'185/D'
p3273
aS'185/B'
p3274
aS'185/A'
p3275
aS'180/A'
p3276
aS'180/D'
p3277
aS'180/B'
p3278
aS'180/F'
p3279
aS'180/E'
p3280
aS'180/C'
p3281
aS'175/E'
p3282
aS'175/D'
p3283
aS'175/C'
p3284
aS'175/B'
p3285
aS'175/A'
p3286
aS'164/D'
p3287
aS'164/B'
p3288
aS'164/A'
p3289
aS'173/E'
p3290
aS'173/D'
p3291
aS'173/B'
p3292
aS'173/C'
p3293
aS'173/A'
p3294
aS'171/G'
p3295
aS'171/C'
p3296
aS'171/F'
p3297
aS'171/D'
p3298
aS'171/A'
p3299
aS'171/B'
p3300
aS'171/E'
p3301
aS'167/E'
p3302
aS'167/A'
p3303
aS'167/B'
p3304
aS'167/C'
p3305
aS'163/E'
p3306
aS'163/B'
p3307
aS'163/C'
p3308
aS'163/A'
p3309
aS'165/D'
p3310
aS'165/E'
p3311
aS'165/C'
p3312
aS'165/B'
p3313
aS'165/A'
p3314
aS'161/C'
p3315
aS'161/E'
p3316
aS'161/B'
p3317
aS'161/D'
p3318
aS'161/A'
p3319
aS'158/E'
p3320
aS'158/D'
p3321
aS'158/C'
p3322
aS'158/B'
p3323
aS'158/A'
p3324
aS'156/A'
p3325
aS'156/D'
p3326
aS'156/E'
p3327
aS'156/C'
p3328
aS'156/B'
p3329
aS'154/D'
p3330
aS'154/C'
p3331
aS'154/B'
p3332
aS'154/A'
p3333
aS'150/C'
p3334
aS'150/B'
p3335
aS'150/A'
p3336
aS'145/C'
p3337
aS'145/E'
p3338
aS'145/D'
p3339
aS'145/B'
p3340
aS'145/A'
p3341
aS'142/D'
p3342
aS'142/C'
p3343
aS'142/B'
p3344
aS'142/A'
p3345
aS'140/F'
p3346
aS'140/E'
p3347
aS'140/D'
p3348
aS'140/A'
p3349
aS'140/B'
p3350
aS'140/C'
p3351
aS'128/D'
p3352
aS'128/B'
p3353
aS'128/C'
p3354
aS'128/A'
p3355
aS'126/A'
p3356
aS'126/D'
p3357
aS'126/C'
p3358
aS'126/B'
p3359
aS'123/B'
p3360
aS'123/E'
p3361
aS'123/C'
p3362
aS'123/D'
p3363
aS'123/B'
p3364
aS'123/A'
p3365
aS'121/E'
p3366
aS'121/D'
p3367
aS'121/B'
p3368
aS'121/C'
p3369
aS'121/A'
p3370
aS'120/I'
p3371
aS'120/G'
p3372
aS'120/J'
p3373
aS'120/E'
p3374
aS'120/H'
p3375
aS'120/F'
p3376
aS'120/D'
p3377
aS'120/C'
p3378
aS'120/B'
p3379
aS'120/A'
p3380
aS'119/D'
p3381
aS'119/C'
p3382
aS'119/A'
p3383
aS'117/E'
p3384
aS'117/D'
p3385
aS'117/C'
p3386
aS'117/B'
p3387
aS'117/A'
p3388
aS'115/B'
p3389
aS'115/D'
p3390
aS'115/E'
p3391
aS'115/C'
p3392
aS'115/A'
p3393
aS'113/D'
p3394
aS'113/D'
p3395
aS'113/C'
p3396
aS'113/E'
p3397
aS'113/A'
p3398
aS'113/B'
p3399
aS'111/D'
p3400
aS'111/D'
p3401
aS'111/D'
p3402
aS'111/D'
p3403
aS'111/C'
p3404
aS'111/B'
p3405
aS'111/A'
p3406
aS'109/B'
p3407
aS'109/C'
p3408
aS'109/D'
p3409
aS'109/A'
p3410
aS'107/C'
p3411
aS'107/D'
p3412
aS'107/A'
p3413
aS'107/B'
p3414
aS'106/A'
p3415
aS'106/D'
p3416
aS'106/B'
p3417
aS'106/C'
p3418
aS'105/C'
p3419
aS'105/B'
p3420
aS'105/A'
p3421
aS'101/C'
p3422
aS'101/D'
p3423
aS'101/E'
p3424
aS'101/B'
p3425
aS'101/A'
p3426
aS'97/D'
p3427
aS'97/A'
p3428
aS'97/C'
p3429
aS'97/B'
p3430
aS'96/A'
p3431
aS'1/A'
p3432
aS'89/B'
p3433
aS'89/D'
p3434
aS'89/C'
p3435
aS'89/A'
p3436
aS'87/E'
p3437
aS'87/D'
p3438
aS'87/B'
p3439
aS'87/C'
p3440
aS'87/A'
p3441
aS'86/B'
p3442
aS'86/C'
p3443
aS'86/E'
p3444
aS'86/D'
p3445
aS'86/A'
p3446
aS'85/C'
p3447
aS'85/D'
p3448
aS'85/E'
p3449
aS'85/B'
p3450
aS'85/A'
p3451
aS'83/E'
p3452
aS'83/D'
p3453
aS'83/C'
p3454
aS'83/B'
p3455
aS'83/A'
p3456
aS'82/E'
p3457
aS'82/C'
p3458
aS'82/B'
p3459
aS'82/D'
p3460
aS'82/A'
p3461
aS'77/C'
p3462
aS'77/D'
p3463
aS'77/A'
p3464
aS'74/D'
p3465
aS'74/C'
p3466
aS'74/E'
p3467
aS'74/B'
p3468
aS'74/A'
p3469
aS'76/F'
p3470
aS'76/E'
p3471
aS'76/D'
p3472
aS'76/C'
p3473
aS'76/B'
p3474
aS'76/A'
p3475
aS'73/B'
p3476
aS'73/D'
p3477
aS'73/E'
p3478
aS'73/C'
p3479
aS'73/A'
p3480
aS'67/C'
p3481
aS'67/E'
p3482
aS'67/B'
p3483
aS'67/D'
p3484
aS'67/A'
p3485
aS'62/C'
p3486
aS'62/D'
p3487
aS'62/B'
p3488
aS'62/A'
p3489
aS'64/E'
p3490
aS'64/D'
p3491
aS'64/C'
p3492
aS'64/B'
p3493
aS'64/A'
p3494
aS'60/C'
p3495
aS'60/E'
p3496
aS'60/D'
p3497
aS'60/B'
p3498
aS'60/A'
p3499
aS'57/D'
p3500
aS'57/C'
p3501
aS'57/B'
p3502
aS'57/A'
p3503
aS'51/F'
p3504
aS'51/E'
p3505
aS'51/D'
p3506
aS'51/C'
p3507
aS'51/B'
p3508
aS'51/A'
p3509
aS'50/C'
p3510
aS'50/D'
p3511
aS'50/E'
p3512
aS'50/B'
p3513
aS'50/A'
p3514
aS'46/F'
p3515
aS'46/G'
p3516
aS'46/D'
p3517
aS'46/E'
p3518
aS'46/A'
p3519
aS'46/B'
p3520
aS'46/C'
p3521
aS'42/B'
p3522
aS'42/E'
p3523
aS'42/C'
p3524
aS'42/D'
p3525
aS'42/A'
p3526
aS'45/F'
p3527
aS'45/B'
p3528
aS'45/B'
p3529
aS'45/H'
p3530
aS'45/F'
p3531
aS'45/E'
p3532
aS'45/C'
p3533
aS'45/G'
p3534
aS'45/J'
p3535
aS'45/J'
p3536
aS'45/J'
p3537
aS'45/I'
p3538
aS'45/D'
p3539
aS'45/A'
p3540
aS'44/G'
p3541
aS'44/I'
p3542
aS'44/J'
p3543
aS'44/D'
p3544
aS'44/H'
p3545
aS'44/E'
p3546
aS'44/C'
p3547
aS'44/B'
p3548
aS'44/A'
p3549
aS'40/E'
p3550
aS'40/C'
p3551
aS'40/D'
p3552
aS'40/E'
p3553
aS'40/B'
p3554
aS'40/A'
p3555
aS'38/H'
p3556
aS'38/G'
p3557
aS'38/F'
p3558
aS'38/E'
p3559
aS'38/D'
p3560
aS'38/C'
p3561
aS'38/B'
p3562
aS'38/A'
p3563
aS'37/D'
p3564
aS'37/C'
p3565
aS'37/B'
p3566
aS'37/A'
p3567
aS'39/K'
p3568
aS'39/I'
p3569
aS'39/G'
p3570
aS'39/A'
p3571
aS'39/E'
p3572
aS'39/C'
p3573
aS'39/F'
p3574
aS'39/J'
p3575
aS'39/H'
p3576
aS'39/D'
p3577
aS'39/B'
p3578
aS'33/E'
p3579
aS'33/D'
p3580
aS'33/C'
p3581
aS'33/A'
p3582
aS'33/B'
p3583
aS'28/A'
p3584
aS'28/C'
p3585
aS'28/B'
p3586
aS'24/E'
p3587
aS'24/C'
p3588
aS'24/A'
p3589
aS'24/B'
p3590
aS'23/E'
p3591
aS'23/B'
p3592
aS'23/A'
p3593
aS'21/D'
p3594
aS'21/B'
p3595
aS'21/C'
p3596
aS'21/A'
p3597
aS'19/E'
p3598
aS'19/C'
p3599
aS'19/A'
p3600
aS'19/B'
p3601
aS'16/D'
p3602
aS'16/E'
p3603
aS'16/C'
p3604
aS'16/B'
p3605
aS'16/A'
p3606
aS'15/B'
p3607
aS'15/B'
p3608
aS'15/B'
p3609
aS'15/C'
p3610
aS'15/E'
p3611
aS'15/D'
p3612
aS'15/E'
p3613
aS'15/C'
p3614
aS'15/B'
p3615
aS'15/A'
p3616
aS'13/C'
p3617
aS'13/B'
p3618
aS'13/A'
p3619
aS'10/C'
p3620
aS'10/C'
p3621
aS'10/B'
p3622
aS'10/A'
p3623
aS'8/E'
p3624
aS'8/C'
p3625
aS'8/B'
p3626
aS'8/A'
p3627
aS'5/C'
p3628
aS'2/B'
p3629
aS'2/A'
p3630
asb.