(icodeforcesuser
CodeForcesUser
p0
(dp1
S'city'
p2
S'Gomel'
p3
sS'name'
p4
S'Gennady Korotkevich'
p5
sS'ratings'
p6
S'3580'
p7
sS'url'
p8
S'http://codeforces.com/profile/tourist'
p9
sS'country'
p10
S'Belarus'
p11
sS'rank'
p12
S'legendary grandmaster'
p13
sS'uname'
p14
S'tourist'
p15
sS'organization'
p16
S'ITMO University'
p17
sS'probs'
p18
(lp19
S'717/I'
p20
aS'717/I'
p21
aS'717/A'
p22
aS'717/G'
p23
aS'717/H'
p24
aS'717/B'
p25
aS'717/F'
p26
aS'717/E'
p27
aS'717/C'
p28
aS'717/D'
p29
aS'710/D'
p30
aS'710/F'
p31
aS'710/C'
p32
aS'710/E'
p33
aS'710/B'
p34
aS'710/A'
p35
aS'695/C'
p36
aS'695/F'
p37
aS'695/E'
p38
aS'695/D'
p39
aS'695/B'
p40
aS'695/A'
p41
aS'685/E'
p42
aS'685/D'
p43
aS'685/C'
p44
aS'685/B'
p45
aS'685/A'
p46
aS'687/E'
p47
aS'687/D'
p48
aS'687/C'
p49
aS'687/B'
p50
aS'687/A'
p51
aS'643/F'
p52
aS'643/C'
p53
aS'643/E'
p54
aS'643/B'
p55
aS'643/A'
p56
aS'641/F'
p57
aS'641/D'
p58
aS'641/C'
p59
aS'641/E'
p60
aS'641/B'
p61
aS'641/A'
p62
aS'662/D'
p63
aS'662/E'
p64
aS'662/B'
p65
aS'662/A'
p66
aS'639/E'
p67
aS'639/C'
p68
aS'639/D'
p69
aS'639/B'
p70
aS'639/A'
p71
aS'645/F'
p72
aS'645/E'
p73
aS'645/D'
p74
aS'645/C'
p75
aS'645/A'
p76
aS'645/B'
p77
aS'644/C'
p78
aS'644/B'
p79
aS'644/A'
p80
aS'637/D'
p81
aS'637/C'
p82
aS'637/B'
p83
aS'637/A'
p84
aS'650/E'
p85
aS'650/D'
p86
aS'650/B'
p87
aS'650/C'
p88
aS'650/A'
p89
aS'627/D'
p90
aS'627/C'
p91
aS'627/E'
p92
aS'627/B'
p93
aS'627/A'
p94
aS'633/H'
p95
aS'633/G'
p96
aS'633/E'
p97
aS'633/F'
p98
aS'633/D'
p99
aS'633/C'
p100
aS'633/B'
p101
aS'633/A'
p102
aS'626/G'
p103
aS'626/E'
p104
aS'626/F'
p105
aS'626/D'
p106
aS'626/C'
p107
aS'626/B'
p108
aS'626/A'
p109
aS'620/F'
p110
aS'620/D'
p111
aS'620/E'
p112
aS'620/C'
p113
aS'620/B'
p114
aS'620/A'
p115
aS'611/G'
p116
aS'611/H'
p117
aS'611/E'
p118
aS'611/F'
p119
aS'611/D'
p120
aS'611/C'
p121
aS'611/A'
p122
aS'611/B'
p123
aS'607/C'
p124
aS'607/D'
p125
aS'607/B'
p126
aS'607/A'
p127
aS'596/E'
p128
aS'596/D'
p129
aS'596/C'
p130
aS'596/B'
p131
aS'596/A'
p132
aS'575/E'
p133
aS'575/I'
p134
aS'575/E'
p135
aS'575/C'
p136
aS'575/A'
p137
aS'575/B'
p138
aS'575/G'
p139
aS'575/F'
p140
aS'575/H'
p141
aS'575/D'
p142
aS'573/B'
p143
aS'573/A'
p144
aS'566/A'
p145
aS'562/C'
p146
aS'562/G'
p147
aS'562/E'
p148
aS'562/D'
p149
aS'562/B'
p150
aS'526/F'
p151
aS'549/F'
p152
aS'549/B'
p153
aS'549/D'
p154
aS'549/C'
p155
aS'549/G'
p156
aS'549/H'
p157
aS'549/A'
p158
aS'541/C'
p159
aS'541/D'
p160
aS'541/A'
p161
aS'541/E'
p162
aS'541/F'
p163
aS'532/A'
p164
aS'532/D'
p165
aS'532/F'
p166
aS'532/C'
p167
aS'532/B'
p168
aS'532/E'
p169
aS'526/F'
p170
aS'526/E'
p171
aS'526/D'
p172
aS'526/C'
p173
aS'526/B'
p174
aS'526/A'
p175
aS'524/F'
p176
aS'524/D'
p177
aS'524/E'
p178
aS'524/C'
p179
aS'524/A'
p180
aS'524/B'
p181
aS'522/D'
p182
aS'522/A'
p183
aS'522/C'
p184
aS'522/B'
p185
aS'513/G3'
p186
aS'513/G2'
p187
aS'513/G2'
p188
aS'513/F2'
p189
aS'513/F1'
p190
aS'513/E2'
p191
aS'513/E1'
p192
aS'513/G2'
p193
aS'513/G1'
p194
aS'513/D2'
p195
aS'513/D1'
p196
aS'513/D1'
p197
aS'513/D1'
p198
aS'513/G1'
p199
aS'513/B2'
p200
aS'513/C'
p201
aS'513/B1'
p202
aS'513/A'
p203
aS'512/E'
p204
aS'512/C'
p205
aS'512/D'
p206
aS'512/A'
p207
aS'512/B'
p208
aS'507/D'
p209
aS'507/E'
p210
aS'507/C'
p211
aS'507/B'
p212
aS'507/A'
p213
aS'100125/K'
p214
aS'100125/K'
p215
aS'100570/D'
p216
aS'100570/F'
p217
aS'100570/B'
p218
aS'100570/E'
p219
aS'100570/C'
p220
aS'100570/A'
p221
aS'500/F'
p222
aS'500/E'
p223
aS'500/D'
p224
aS'500/C'
p225
aS'500/A'
p226
aS'500/B'
p227
aS'494/D'
p228
aS'494/C'
p229
aS'494/E'
p230
aS'494/B'
p231
aS'494/A'
p232
aS'100553/G'
p233
aS'100553/G'
p234
aS'492/D'
p235
aS'492/E'
p236
aS'492/C'
p237
aS'492/A'
p238
aS'492/B'
p239
aS'100500/E'
p240
aS'100500/G'
p241
aS'100500/B'
p242
aS'100500/A'
p243
aS'100500/C'
p244
aS'100500/I'
p245
aS'100500/H'
p246
aS'100500/D'
p247
aS'100500/F'
p248
aS'100500/J'
p249
aS'100526/H'
p250
aS'100526/F'
p251
aS'100526/D'
p252
aS'100526/A'
p253
aS'100526/I'
p254
aS'100526/C'
p255
aS'100526/E'
p256
aS'100526/B'
p257
aS'100526/G'
p258
aS'100526/J'
p259
aS'100526/K'
p260
aS'100514/O'
p261
aS'100514/H'
p262
aS'100514/E'
p263
aS'100514/K'
p264
aS'100514/M'
p265
aS'100514/J'
p266
aS'100514/I'
p267
aS'100514/R'
p268
aS'100514/Q'
p269
aS'100523/J'
p270
aS'100523/H'
p271
aS'100523/A'
p272
aS'482/E'
p273
aS'482/E'
p274
aS'482/E'
p275
aS'482/E'
p276
aS'482/E'
p277
aS'482/C'
p278
aS'482/C'
p279
aS'482/C'
p280
aS'482/C'
p281
aS'482/D'
p282
aS'482/C'
p283
aS'482/B'
p284
aS'482/A'
p285
aS'474/E'
p286
aS'474/F'
p287
aS'474/D'
p288
aS'474/C'
p289
aS'474/B'
p290
aS'474/A'
p291
aS'472/E'
p292
aS'472/D'
p293
aS'472/C'
p294
aS'472/B'
p295
aS'472/A'
p296
aS'466/E'
p297
aS'466/D'
p298
aS'466/C'
p299
aS'466/B'
p300
aS'466/A'
p301
aS'100484/L'
p302
aS'100484/K'
p303
aS'100484/J'
p304
aS'100484/I'
p305
aS'100484/H'
p306
aS'100484/G'
p307
aS'100484/F'
p308
aS'100484/E'
p309
aS'100484/D'
p310
aS'100484/C'
p311
aS'100484/B'
p312
aS'100484/A'
p313
aS'464/D'
p314
aS'464/B'
p315
aS'464/C'
p316
aS'464/A'
p317
aS'458/D'
p318
aS'458/B'
p319
aS'458/C'
p320
aS'458/A'
p321
aS'455/E'
p322
aS'455/D'
p323
aS'455/C'
p324
aS'455/B'
p325
aS'455/A'
p326
aS'452/E'
p327
aS'452/D'
p328
aS'452/B'
p329
aS'452/C'
p330
aS'452/A'
p331
aS'442/E'
p332
aS'442/C'
p333
aS'442/D'
p334
aS'442/B'
p335
aS'442/A'
p336
aS'436/F'
p337
aS'436/D'
p338
aS'436/C'
p339
aS'436/B'
p340
aS'436/A'
p341
aS'412/E'
p342
aS'412/D'
p343
aS'412/A'
p344
aS'412/B'
p345
aS'412/C'
p346
aS'418/D'
p347
aS'418/C'
p348
aS'418/B'
p349
aS'418/A'
p350
aS'409/E'
p351
aS'409/D'
p352
aS'409/H'
p353
aS'409/B'
p354
aS'409/C'
p355
aS'409/A'
p356
aS'407/D'
p357
aS'407/C'
p358
aS'407/A'
p359
aS'407/B'
p360
aS'388/D'
p361
aS'388/A'
p362
aS'388/C'
p363
aS'388/B'
p364
aS'379/E'
p365
aS'379/D'
p366
aS'379/B'
p367
aS'379/C'
p368
aS'379/A'
p369
aS'377/E'
p370
aS'377/C'
p371
aS'377/B'
p372
aS'377/D'
p373
aS'377/A'
p374
aS'372/D'
p375
aS'372/C'
p376
aS'372/B'
p377
aS'372/A'
p378
aS'367/E'
p379
aS'367/D'
p380
aS'367/A'
p381
aS'367/C'
p382
aS'367/B'
p383
aS'100268/L'
p384
aS'100268/K'
p385
aS'100268/B'
p386
aS'100268/A'
p387
aS'100268/J'
p388
aS'100268/F'
p389
aS'100268/D'
p390
aS'100268/C'
p391
aS'100268/I'
p392
aS'100268/E'
p393
aS'100268/H'
p394
aS'100268/G'
p395
aS'356/D'
p396
aS'356/C'
p397
aS'356/A'
p398
aS'356/B'
p399
aS'100228/M'
p400
aS'100228/M'
p401
aS'100228/L'
p402
aS'100228/K'
p403
aS'100228/J'
p404
aS'100228/I'
p405
aS'100228/H'
p406
aS'100228/G'
p407
aS'100228/F'
p408
aS'100228/E'
p409
aS'100228/D'
p410
aS'100228/C'
p411
aS'100228/B'
p412
aS'100228/A'
p413
aS'343/E'
p414
aS'343/D'
p415
aS'343/C'
p416
aS'343/B'
p417
aS'343/A'
p418
aS'338/D'
p419
aS'338/C'
p420
aS'338/A'
p421
aS'338/E'
p422
aS'338/B'
p423
aS'335/E'
p424
aS'335/D'
p425
aS'335/B'
p426
aS'335/C'
p427
aS'335/A'
p428
aS'329/C'
p429
aS'329/D'
p430
aS'329/B'
p431
aS'329/A'
p432
aS'331/D3'
p433
aS'331/D2'
p434
aS'331/D2'
p435
aS'331/D1'
p436
aS'331/B2'
p437
aS'331/B1'
p438
aS'331/A2'
p439
aS'331/A1'
p440
aS'331/C3'
p441
aS'331/C2'
p442
aS'331/C1'
p443
aS'317/D'
p444
aS'317/B'
p445
aS'317/A'
p446
aS'316/F3'
p447
aS'316/F2'
p448
aS'316/F2'
p449
aS'316/F1'
p450
aS'316/E3'
p451
aS'316/E2'
p452
aS'316/G2'
p453
aS'316/G1'
p454
aS'316/C2'
p455
aS'316/C1'
p456
aS'316/D3'
p457
aS'316/D2'
p458
aS'316/E1'
p459
aS'316/D1'
p460
aS'316/B2'
p461
aS'316/B1'
p462
aS'316/A2'
p463
aS'316/A1'
p464
aS'100153/H'
p465
aS'100153/F'
p466
aS'100153/I'
p467
aS'100153/D'
p468
aS'100153/J'
p469
aS'100153/E'
p470
aS'100153/B'
p471
aS'100153/A'
p472
aS'100153/C'
p473
aS'100153/G'
p474
aS'308/D'
p475
aS'308/B'
p476
aS'308/C'
p477
aS'308/A'
p478
aS'303/E'
p479
aS'293/E'
p480
aS'293/B'
p481
aS'293/A'
p482
aS'293/C'
p483
aS'293/D'
p484
aS'297/E'
p485
aS'297/C'
p486
aS'297/D'
p487
aS'297/B'
p488
aS'297/A'
p489
aS'292/D'
p490
aS'292/C'
p491
aS'292/D'
p492
aS'292/E'
p493
aS'292/A'
p494
aS'292/B'
p495
aS'291/E'
p496
aS'291/D'
p497
aS'291/C'
p498
aS'291/B'
p499
aS'291/A'
p500
aS'280/C'
p501
aS'280/B'
p502
aS'280/A'
p503
aS'273/E'
p504
aS'273/D'
p505
aS'273/B'
p506
aS'273/A'
p507
aS'269/D'
p508
aS'269/B'
p509
aS'269/A'
p510
aS'269/C'
p511
aS'260/D'
p512
aS'260/E'
p513
aS'260/C'
p514
aS'260/B'
p515
aS'260/A'
p516
aS'251/C'
p517
aS'251/D'
p518
aS'251/B'
p519
aS'251/A'
p520
aS'243/B'
p521
aS'243/C'
p522
aS'243/A'
p523
aS'238/E'
p524
aS'238/B'
p525
aS'238/C'
p526
aS'238/A'
p527
aS'241/D'
p528
aS'241/D'
p529
aS'241/B'
p530
aS'241/F'
p531
aS'241/E'
p532
aS'241/G'
p533
aS'241/C'
p534
aS'241/A'
p535
aS'235/B'
p536
aS'235/A'
p537
aS'240/E'
p538
aS'240/F'
p539
aS'240/A'
p540
aS'240/D'
p541
aS'240/B'
p542
aS'240/C'
p543
aS'232/D'
p544
aS'232/A'
p545
aS'232/B'
p546
aS'225/D'
p547
aS'225/B'
p548
aS'225/E'
p549
aS'225/A'
p550
aS'225/C'
p551
aS'223/A'
p552
aS'223/B'
p553
aS'223/C'
p554
aS'217/C'
p555
aS'217/B'
p556
aS'217/A'
p557
aS'216/A'
p558
aS'213/D'
p559
aS'213/C'
p560
aS'213/B'
p561
aS'213/A'
p562
aS'212/A'
p563
aS'211/D'
p564
aS'211/C'
p565
aS'211/B'
p566
aS'211/E'
p567
aS'209/B'
p568
aS'209/C'
p569
aS'209/A'
p570
aS'204/E'
p571
aS'204/D'
p572
aS'204/C'
p573
aS'204/B'
p574
aS'204/A'
p575
aS'198/C'
p576
aS'198/E'
p577
aS'198/B'
p578
aS'198/A'
p579
aS'196/D'
p580
aS'196/E'
p581
aS'196/C'
p582
aS'196/B'
p583
aS'196/A'
p584
aS'193/E'
p585
aS'193/C'
p586
aS'193/B'
p587
aS'193/A'
p588
aS'185/D'
p589
aS'185/B'
p590
aS'185/A'
p591
aS'180/A'
p592
aS'180/D'
p593
aS'180/B'
p594
aS'180/F'
p595
aS'180/E'
p596
aS'180/C'
p597
aS'175/E'
p598
aS'175/D'
p599
aS'175/C'
p600
aS'175/B'
p601
aS'175/A'
p602
aS'164/D'
p603
aS'164/B'
p604
aS'164/A'
p605
aS'173/E'
p606
aS'173/D'
p607
aS'173/B'
p608
aS'173/C'
p609
aS'173/A'
p610
aS'171/G'
p611
aS'171/C'
p612
aS'171/F'
p613
aS'171/D'
p614
aS'171/A'
p615
aS'171/B'
p616
aS'171/E'
p617
aS'167/E'
p618
aS'167/A'
p619
aS'167/B'
p620
aS'167/C'
p621
aS'163/E'
p622
aS'163/B'
p623
aS'163/C'
p624
aS'163/A'
p625
aS'165/D'
p626
aS'165/E'
p627
aS'165/C'
p628
aS'165/B'
p629
aS'165/A'
p630
aS'161/C'
p631
aS'161/E'
p632
aS'161/B'
p633
aS'161/D'
p634
aS'161/A'
p635
aS'158/E'
p636
aS'158/D'
p637
aS'158/C'
p638
aS'158/B'
p639
aS'158/A'
p640
aS'156/A'
p641
aS'156/D'
p642
aS'156/E'
p643
aS'156/C'
p644
aS'156/B'
p645
aS'154/D'
p646
aS'154/C'
p647
aS'154/B'
p648
aS'154/A'
p649
aS'150/C'
p650
aS'150/B'
p651
aS'150/A'
p652
aS'145/C'
p653
aS'145/E'
p654
aS'145/D'
p655
aS'145/B'
p656
aS'145/A'
p657
aS'142/D'
p658
aS'142/C'
p659
aS'142/B'
p660
aS'142/A'
p661
aS'140/F'
p662
aS'140/E'
p663
aS'140/D'
p664
aS'140/A'
p665
aS'140/B'
p666
aS'140/C'
p667
aS'128/D'
p668
aS'128/B'
p669
aS'128/C'
p670
aS'128/A'
p671
aS'126/A'
p672
aS'126/D'
p673
aS'126/C'
p674
aS'126/B'
p675
aS'123/B'
p676
aS'123/E'
p677
aS'123/C'
p678
aS'123/D'
p679
aS'123/B'
p680
aS'123/A'
p681
aS'121/E'
p682
aS'121/D'
p683
aS'121/B'
p684
aS'121/C'
p685
aS'121/A'
p686
aS'120/I'
p687
aS'120/G'
p688
aS'120/J'
p689
aS'120/E'
p690
aS'120/H'
p691
aS'120/F'
p692
aS'120/D'
p693
aS'120/C'
p694
aS'120/B'
p695
aS'120/A'
p696
aS'119/D'
p697
aS'119/C'
p698
aS'119/A'
p699
aS'117/E'
p700
aS'117/D'
p701
aS'117/C'
p702
aS'117/B'
p703
aS'117/A'
p704
aS'115/B'
p705
aS'115/D'
p706
aS'115/E'
p707
aS'115/C'
p708
aS'115/A'
p709
aS'113/D'
p710
aS'113/D'
p711
aS'113/C'
p712
aS'113/E'
p713
aS'113/A'
p714
aS'113/B'
p715
aS'111/D'
p716
aS'111/D'
p717
aS'111/D'
p718
aS'111/D'
p719
aS'111/C'
p720
aS'111/B'
p721
aS'111/A'
p722
aS'109/B'
p723
aS'109/C'
p724
aS'109/D'
p725
aS'109/A'
p726
aS'107/C'
p727
aS'107/D'
p728
aS'107/A'
p729
aS'107/B'
p730
aS'106/A'
p731
aS'106/D'
p732
aS'106/B'
p733
aS'106/C'
p734
aS'105/C'
p735
aS'105/B'
p736
aS'105/A'
p737
aS'101/C'
p738
aS'101/D'
p739
aS'101/E'
p740
aS'101/B'
p741
aS'101/A'
p742
aS'97/D'
p743
aS'97/A'
p744
aS'97/C'
p745
aS'97/B'
p746
aS'96/A'
p747
aS'1/A'
p748
aS'89/B'
p749
aS'89/D'
p750
aS'89/C'
p751
aS'89/A'
p752
aS'87/E'
p753
aS'87/D'
p754
aS'87/B'
p755
aS'87/C'
p756
aS'87/A'
p757
aS'86/B'
p758
aS'86/C'
p759
aS'86/E'
p760
aS'86/D'
p761
aS'86/A'
p762
aS'85/C'
p763
aS'85/D'
p764
aS'85/E'
p765
aS'85/B'
p766
aS'85/A'
p767
aS'83/E'
p768
aS'83/D'
p769
aS'83/C'
p770
aS'83/B'
p771
aS'83/A'
p772
aS'82/E'
p773
aS'82/C'
p774
aS'82/B'
p775
aS'82/D'
p776
aS'82/A'
p777
aS'77/C'
p778
aS'77/D'
p779
aS'77/A'
p780
aS'74/D'
p781
aS'74/C'
p782
aS'74/E'
p783
aS'74/B'
p784
aS'74/A'
p785
aS'76/F'
p786
aS'76/E'
p787
aS'76/D'
p788
aS'76/C'
p789
aS'76/B'
p790
aS'76/A'
p791
aS'73/B'
p792
aS'73/D'
p793
aS'73/E'
p794
aS'73/C'
p795
aS'73/A'
p796
aS'67/C'
p797
aS'67/E'
p798
aS'67/B'
p799
aS'67/D'
p800
aS'67/A'
p801
aS'62/C'
p802
aS'62/D'
p803
aS'62/B'
p804
aS'62/A'
p805
aS'64/E'
p806
aS'64/D'
p807
aS'64/C'
p808
aS'64/B'
p809
aS'64/A'
p810
aS'60/C'
p811
aS'60/E'
p812
aS'60/D'
p813
aS'60/B'
p814
aS'60/A'
p815
aS'57/D'
p816
aS'57/C'
p817
aS'57/B'
p818
aS'57/A'
p819
aS'51/F'
p820
aS'51/E'
p821
aS'51/D'
p822
aS'51/C'
p823
aS'51/B'
p824
aS'51/A'
p825
aS'50/C'
p826
aS'50/D'
p827
aS'50/E'
p828
aS'50/B'
p829
aS'50/A'
p830
aS'46/F'
p831
aS'46/G'
p832
aS'46/D'
p833
aS'46/E'
p834
aS'46/A'
p835
aS'46/B'
p836
aS'46/C'
p837
aS'42/B'
p838
aS'42/E'
p839
aS'42/C'
p840
aS'42/D'
p841
aS'42/A'
p842
aS'45/F'
p843
aS'45/B'
p844
aS'45/B'
p845
aS'45/H'
p846
aS'45/F'
p847
aS'45/E'
p848
aS'45/C'
p849
aS'45/G'
p850
aS'45/J'
p851
aS'45/J'
p852
aS'45/J'
p853
aS'45/I'
p854
aS'45/D'
p855
aS'45/A'
p856
aS'44/G'
p857
aS'44/I'
p858
aS'44/J'
p859
aS'44/D'
p860
aS'44/H'
p861
aS'44/E'
p862
aS'44/C'
p863
aS'44/B'
p864
aS'44/A'
p865
aS'40/E'
p866
aS'40/C'
p867
aS'40/D'
p868
aS'40/E'
p869
aS'40/B'
p870
aS'40/A'
p871
aS'38/H'
p872
aS'38/G'
p873
aS'38/F'
p874
aS'38/E'
p875
aS'38/D'
p876
aS'38/C'
p877
aS'38/B'
p878
aS'38/A'
p879
aS'37/D'
p880
aS'37/C'
p881
aS'37/B'
p882
aS'37/A'
p883
aS'39/K'
p884
aS'39/I'
p885
aS'39/G'
p886
aS'39/A'
p887
aS'39/E'
p888
aS'39/C'
p889
aS'39/F'
p890
aS'39/J'
p891
aS'39/H'
p892
aS'39/D'
p893
aS'39/B'
p894
aS'33/E'
p895
aS'33/D'
p896
aS'33/C'
p897
aS'33/A'
p898
aS'33/B'
p899
aS'28/A'
p900
aS'28/C'
p901
aS'28/B'
p902
aS'24/E'
p903
aS'24/C'
p904
aS'24/A'
p905
aS'24/B'
p906
aS'23/E'
p907
aS'23/B'
p908
aS'23/A'
p909
aS'21/D'
p910
aS'21/B'
p911
aS'21/C'
p912
aS'21/A'
p913
aS'19/E'
p914
aS'19/C'
p915
aS'19/A'
p916
aS'19/B'
p917
aS'16/D'
p918
aS'16/E'
p919
aS'16/C'
p920
aS'16/B'
p921
aS'16/A'
p922
aS'15/B'
p923
aS'15/B'
p924
aS'15/B'
p925
aS'15/C'
p926
aS'15/E'
p927
aS'15/D'
p928
aS'15/E'
p929
aS'15/C'
p930
aS'15/B'
p931
aS'15/A'
p932
aS'13/C'
p933
aS'13/B'
p934
aS'13/A'
p935
aS'10/C'
p936
aS'10/C'
p937
aS'10/B'
p938
aS'10/A'
p939
aS'8/E'
p940
aS'8/C'
p941
aS'8/B'
p942
aS'8/A'
p943
aS'5/C'
p944
aS'2/B'
p945
aS'2/A'
p946
asb.