(iproblems
Problem
p0
(dp1
S'time_limit'
p2
(lp3
VTime Limit: 0.4 sec
p4
asS'source_limit'
p5
(lp6
VSource Limit: 50000 Bytes
p7
asS'description'
p8
V All submissions for this problem are available.\u000aChef is studying Rotational Motion in physics. Here is preparing for Engineering Entrance exam. He's stuck in a problem. Which states that "Two fans, each with a single blade are rotating one above the other, about the same axis of rotation and both blades have the same length. Consider the blade as a rod. Both the fans are rotating indefinitely.\u000a\u000a\u000aFans can rotate in either clockwise or anticlockwise direction. There is a dot marked on the blade of both the fans and the dot is marked at the same distance from the center of rotation.\u000aYou're be given speeds of the fans.\u000a\u000aClockwise rotation - positive speed.\u000aAnticlockwise rotation - negative speed.\u000a\u000a\u000aHelp Chef to find the number of distinct points the dots will coincide on the circumference of rotation.\u000aInput\u000aFirst line consists of T Test cases.\u000aEach of the next T lines consists of Two numbers S1 and S2 which describes the speed of rotation of both the fans respectively\u000aOutput\u000aPrint T lines with each containing the required answer.\u000aConstraints\u000a1 \u2264 T \u2264 100\u000aS1 \u2260 S2\u000aS1,S2 \u2260 0\u000a-100000 \u2264 S1,S2 \u2264 100000.\u000aExample\u000aInput:\u000a3\u000a1 2\u000a6 5\u000a1 -2\u000a\u000aOutput:\u000a1\u000a1\u000a3\u000a  Author: abeyaar\u000aTags: abeyaar\u000aDate Added: 6-09-2015\u000aTime Limit: 0.4 sec\u000aSource Limit: 50000 Bytes\u000aLanguages: ADA, ASM, BASH, BF, C, C99 strict, CAML, CLOJ, CLPS, CPP 4.3.2, CPP 4.9.2, CPP14, CS2, D, ERL, FORT, FS, GO, HASK, ICK, ICON, JAVA, JS, LISP clisp, LISP sbcl, LUA, NEM, NICE, NODEJS, PAS fpc, PAS gpc, PERL, PERL6, PHP, PIKE, PRLG, PYPY, PYTH, PYTH 3.4, RUBY, SCALA, SCM chicken, SCM guile, SCM qobi, ST, TCL, TEXT, WSPC\u000aSUBMIT All submissions for this problem are available.\u000aChef is studying Rotational Motion in physics. Here is preparing for Engineering Entrance exam. He's stuck in a problem. Which states that "Two fans, each with a single blade are rotating one above the other, about the same axis of rotation and both blades have the same length. Consider the blade as a rod. Both the fans are rotating indefinitely.\u000a\u000a\u000aFans can rotate in either clockwise or anticlockwise direction. There is a dot marked on the blade of both the fans and the dot is marked at the same distance from the center of rotation.\u000aYou're be given speeds of the fans.\u000a\u000aClockwise rotation - positive speed.\u000aAnticlockwise rotation - negative speed.\u000a\u000a\u000aHelp Chef to find the number of distinct points the dots will coincide on the circumference of rotation.\u000aInput\u000aFirst line consists of T Test cases.\u000aEach of the next T lines consists of Two numbers S1 and S2 which describes the speed of rotation of both the fans respectively\u000aOutput\u000aPrint T lines with each containing the required answer.\u000aConstraints\u000a1 \u2264 T \u2264 100\u000aS1 \u2260 S2\u000aS1,S2 \u2260 0\u000a-100000 \u2264 S1,S2 \u2264 100000.\u000aExample\u000aInput:\u000a3\u000a1 2\u000a6 5\u000a1 -2\u000a\u000aOutput:\u000a1\u000a1\u000a3\u000a  Author: abeyaar\u000aTags: abeyaar\u000aDate Added: 6-09-2015\u000aTime Limit: 0.4 sec\u000aSource Limit: 50000 Bytes\u000aLanguages: ADA, ASM, BASH, BF, C, C99 strict, CAML, CLOJ, CLPS, CPP 4.3.2, CPP 4.9.2, CPP14, CS2, D, ERL, FORT, FS, GO, HASK, ICK, ICON, JAVA, JS, LISP clisp, LISP sbcl, LUA, NEM, NICE, NODEJS, PAS fpc, PAS gpc, PERL, PERL6, PHP, PIKE, PRLG, PYPY, PYTH, PYTH 3.4, RUBY, SCALA, SCM chicken, SCM guile, SCM qobi, ST, TCL, TEXT, WSPC All submissions for this problem are available. Chef is studying Rotational Motion in physics. Here is preparing for Engineering Entrance exam. He's stuck in a problem. Which states that "Two fans, each with a single blade are rotating one above the other, about the same axis of rotation and both blades have the same length. Consider the blade as a rod. Both the fans are rotating indefinitely.\u000a\u000a\u000aFans can rotate in either clockwise or anticlockwise direction. There is a dot marked on the blade of both the fans and the dot is marked at the same distance from the center of rotation.\u000aYou're be given speeds of the fans.    clockwise anticlockwise    Clockwise rotation - positive speed. Anticlockwise rotation - negative speed. Help Chef to find the number of distinct points the dots will coincide on the circumference of rotation.    Input First line consists of T Test cases.\u000aEach of the next T lines consists of Two numbers S1 and S2 which describes the speed of rotation of both the fans respectively T  T S1 S2 Output Print T lines with each containing the required answer. T Constraints 1 \u2264 T \u2264 100 T S1 \u2260 S2 S1 S2 S1,S2 \u2260 0 S1,S2 -100000 \u2264 S1,S2 \u2264 100000. S1,S2 Example Input:\u000a3\u000a1 2\u000a6 5\u000a1 -2\u000a\u000aOutput:\u000a1\u000a1\u000a3 Input: Output:    Author: abeyaar\u000aTags: abeyaar\u000aDate Added: 6-09-2015\u000aTime Limit: 0.4 sec\u000aSource Limit: 50000 Bytes\u000aLanguages: ADA, ASM, BASH, BF, C, C99 strict, CAML, CLOJ, CLPS, CPP 4.3.2, CPP 4.9.2, CPP14, CS2, D, ERL, FORT, FS, GO, HASK, ICK, ICON, JAVA, JS, LISP clisp, LISP sbcl, LUA, NEM, NICE, NODEJS, PAS fpc, PAS gpc, PERL, PERL6, PHP, PIKE, PRLG, PYPY, PYTH, PYTH 3.4, RUBY, SCALA, SCM chicken, SCM guile, SCM qobi, ST, TCL, TEXT, WSPC Author: abeyaar\u000aTags: abeyaar\u000aDate Added: 6-09-2015\u000aTime Limit: 0.4 sec\u000aSource Limit: 50000 Bytes\u000aLanguages: ADA, ASM, BASH, BF, C, C99 strict, CAML, CLOJ, CLPS, CPP 4.3.2, CPP 4.9.2, CPP14, CS2, D, ERL, FORT, FS, GO, HASK, ICK, ICON, JAVA, JS, LISP clisp, LISP sbcl, LUA, NEM, NICE, NODEJS, PAS fpc, PAS gpc, PERL, PERL6, PHP, PIKE, PRLG, PYPY, PYTH, PYTH 3.4, RUBY, SCALA, SCM chicken, SCM guile, SCM qobi, ST, TCL, TEXT, WSPC Author: abeyaar Author: abeyaar abeyaar Tags: abeyaar Tags: abeyaar abeyaar Date Added: 6-09-2015 Date Added: 6-09-2015 Time Limit: 0.4 sec Time Limit: 0.4 sec Source Limit: 50000 Bytes Source Limit: 50000 Bytes Languages: ADA, ASM, BASH, BF, C, C99 strict, CAML, CLOJ, CLPS, CPP 4.3.2, CPP 4.9.2, CPP14, CS2, D, ERL, FORT, FS, GO, HASK, ICK, ICON, JAVA, JS, LISP clisp, LISP sbcl, LUA, NEM, NICE, NODEJS, PAS fpc, PAS gpc, PERL, PERL6, PHP, PIKE, PRLG, PYPY, PYTH, PYTH 3.4, RUBY, SCALA, SCM chicken, SCM guile, SCM qobi, ST, TCL, TEXT, WSPC Languages: ADA, ASM, BASH, BF, C, C99 strict, CAML, CLOJ, CLPS, CPP 4.3.2, CPP 4.9.2, CPP14, CS2, D, ERL, FORT, FS, GO, HASK, ICK, ICON, JAVA, JS, LISP clisp, LISP sbcl, LUA, NEM, NICE, NODEJS, PAS fpc, PAS gpc, PERL, PERL6, PHP, PIKE, PRLG, PYPY, PYTH, PYTH 3.4, RUBY, SCALA, SCM chicken, SCM guile, SCM qobi, ST, TCL, TEXT, WSPC SUBMIT  SUBMIT SUBMIT SUCCESSFUL SUBMISSIONS SUCCESSFUL SUBMISSIONS SUCCESSFUL SUBMISSIONS SUCCESSFUL SUBMISSIONS SUCCESSFUL SUBMISSIONS  
p9
sS'tags'
p10
V abeyaar
p11
sS'url'
p12
Vhttps://www.codechef.com/problems/CHFANS
p13
sS'statement'
p14
(lp15
VAll submissions for this problem are available.
p16
aVChef is studying Rotational Motion in physics. Here is preparing for Engineering Entrance exam. He's stuck in a problem. Which states that "Two fans, each with a single blade are rotating one above the other, about the same axis of rotation and both blades have the same length. Consider the blade as a rod. Both the fans are rotating indefinitely.
p17
aV
p18
ag18
aVFans can rotate in either clockwise or anticlockwise direction. There is a dot marked on the blade of both the fans and the dot is marked at the same distance from the center of rotation.
p19
aVYou're be given speeds of the fans.
p20
ag18
aVClockwise rotation - positive speed.
p21
aVAnticlockwise rotation - negative speed.
p22
ag18
ag18
aVHelp Chef to find the number of distinct points the dots will coincide on the circumference of rotation.
p23
asS'input'
p24
(lp25
VInput
p26
aVFirst line consists of T Test cases.
p27
aVEach of the next T lines consists of Two numbers S1 and S2 which describes the speed of rotation of both the fans respectively
p28
aVOutput
p29
aVPrint T lines with each containing the required answer.
p30
asS'constraints'
p31
(lp32
VConstraints
p33
aV1 \u2264 T \u2264 100
p34
aVS1 \u2260 S2
p35
aVS1,S2 \u2260 0
p36
aV-100000 \u2264 S1,S2 \u2264 100000.
p37
asS'id'
p38
c__builtin__
id
p39
sS'name'
p40
VCHFANS
p41
sb.