(iproblems
Problem
p0
(dp1
S'time_limit'
p2
(lp3
VTime Limit: 1 sec
p4
asS'source_limit'
p5
(lp6
VSource Limit: 50000 Bytes
p7
asS'description'
p8
V All submissions for this problem are available.\u000aRead problems statements in Mandarin Chinese and Russian.\u000aThe Little Elephant from the Zoo of Lviv is going to the Birthday Party of the Big Hippo tomorrow. Now he wants to prepare a gift for the Big Hippo.\u000aHe has N balloons, numbered from 1 to N. The i-th balloon has the color Ci and it costs Pi dollars. The gift for the Big Hippo will be any subset (chosen randomly, possibly empty) of the balloons such that the number of different colors in that subset is at least M.\u000aHelp Little Elephant to find the expected cost of the gift.\u000aInput\u000aThe first line of the input contains a single integer T - the number of test cases. T test cases follow. The first line of each test case contains a pair of integers N and M. The next N lines contain N pairs of integers Ci and Pi, one pair per line.\u000aOutput\u000aIn T lines print T real numbers - the answers for the corresponding test cases. Your answer will considered correct if it has at most 10^-6 absolute or relative error.\u000aConstraints\u000a1 \u2264 T \u2264 40\u000a1 \u2264 N, Ci\u2264 40\u000a1 \u2264 Pi \u2264 1000000\u000a0 \u2264 M \u2264 K, where K is the number of different colors in the test case.\u000aExample\u000aInput:\u000a2\u000a2 2\u000a1 4\u000a2 7\u000a2 1\u000a1 4\u000a2 7\u000a\u000aOutput:\u000a11.000000000\u000a7.333333333\u000aAuthor: witua\u000aTester: xcwgf666\u000aEditorial: http://discuss.codechef.com/problems/LEBALONS\u000aTags: dynamic-prog easy-medium may14 witua\u000aDate Added: 25-04-2012\u000aTime Limit: 1 sec\u000aSource Limit: 50000 Bytes\u000aLanguages: ADA, ASM, BASH, BF, C, C99 strict, CAML, CLOJ, CLPS, CPP 4.3.2, CPP 4.9.2, CPP14, CS2, D, ERL, FORT, FS, GO, HASK, ICK, ICON, JAVA, JS, LISP clisp, LISP sbcl, LUA, NEM, NICE, NODEJS, PAS fpc, PAS gpc, PERL, PERL6, PHP, PIKE, PRLG, PYTH, PYTH 3.4, RUBY, SCALA, SCM guile, SCM qobi, ST, TCL, TEXT, WSPC\u000aSUBMIT All submissions for this problem are available.\u000aRead problems statements in Mandarin Chinese and Russian.\u000aThe Little Elephant from the Zoo of Lviv is going to the Birthday Party of the Big Hippo tomorrow. Now he wants to prepare a gift for the Big Hippo.\u000aHe has N balloons, numbered from 1 to N. The i-th balloon has the color Ci and it costs Pi dollars. The gift for the Big Hippo will be any subset (chosen randomly, possibly empty) of the balloons such that the number of different colors in that subset is at least M.\u000aHelp Little Elephant to find the expected cost of the gift.\u000aInput\u000aThe first line of the input contains a single integer T - the number of test cases. T test cases follow. The first line of each test case contains a pair of integers N and M. The next N lines contain N pairs of integers Ci and Pi, one pair per line.\u000aOutput\u000aIn T lines print T real numbers - the answers for the corresponding test cases. Your answer will considered correct if it has at most 10^-6 absolute or relative error.\u000aConstraints\u000a1 \u2264 T \u2264 40\u000a1 \u2264 N, Ci\u2264 40\u000a1 \u2264 Pi \u2264 1000000\u000a0 \u2264 M \u2264 K, where K is the number of different colors in the test case.\u000aExample\u000aInput:\u000a2\u000a2 2\u000a1 4\u000a2 7\u000a2 1\u000a1 4\u000a2 7\u000a\u000aOutput:\u000a11.000000000\u000a7.333333333\u000aAuthor: witua\u000aTester: xcwgf666\u000aEditorial: http://discuss.codechef.com/problems/LEBALONS\u000aTags: dynamic-prog easy-medium may14 witua\u000aDate Added: 25-04-2012\u000aTime Limit: 1 sec\u000aSource Limit: 50000 Bytes\u000aLanguages: ADA, ASM, BASH, BF, C, C99 strict, CAML, CLOJ, CLPS, CPP 4.3.2, CPP 4.9.2, CPP14, CS2, D, ERL, FORT, FS, GO, HASK, ICK, ICON, JAVA, JS, LISP clisp, LISP sbcl, LUA, NEM, NICE, NODEJS, PAS fpc, PAS gpc, PERL, PERL6, PHP, PIKE, PRLG, PYTH, PYTH 3.4, RUBY, SCALA, SCM guile, SCM qobi, ST, TCL, TEXT, WSPC All submissions for this problem are available. Read problems statements in Mandarin Chinese and Russian. Mandarin Chinese Russian The Little Elephant from the Zoo of Lviv is going to the Birthday Party of the Big Hippo tomorrow. Now he wants to prepare a gift for the Big Hippo. He has N balloons, numbered from 1 to N. The i-th balloon has the color Ci and it costs Pi dollars. The gift for the Big Hippo will be any subset (chosen randomly, possibly empty) of the balloons such that the number of different colors in that subset is at least M. N 1 N i-th Ci i Pi i M Help Little Elephant to find the expected cost of the gift. Input  The first line of the input contains a single integer T - the number of test cases. T test cases follow. The first line of each test case contains a pair of integers N and M. The next N lines contain N pairs of integers Ci and Pi, one pair per line. T T N M N N Ci i Pi i Output  In T lines print T real numbers - the answers for the corresponding test cases. Your answer will considered correct if it has at most 10^-6 absolute or relative error. T T 10^-6 Constraints 1 \u2264 T \u2264 40 1 T 40 1 \u2264 N, Ci\u2264 40 1 N Ci i 40 1 \u2264 Pi \u2264 1000000 1 Pi i 1000000 0 \u2264 M \u2264 K, where K is the number of different colors in the test case. 0 M K K Example Input:\u000a2\u000a2 2\u000a1 4\u000a2 7\u000a2 1\u000a1 4\u000a2 7\u000a\u000aOutput:\u000a11.000000000\u000a7.333333333 Input: Output:  Author: witua\u000aTester: xcwgf666\u000aEditorial: http://discuss.codechef.com/problems/LEBALONS\u000aTags: dynamic-prog easy-medium may14 witua\u000aDate Added: 25-04-2012\u000aTime Limit: 1 sec\u000aSource Limit: 50000 Bytes\u000aLanguages: ADA, ASM, BASH, BF, C, C99 strict, CAML, CLOJ, CLPS, CPP 4.3.2, CPP 4.9.2, CPP14, CS2, D, ERL, FORT, FS, GO, HASK, ICK, ICON, JAVA, JS, LISP clisp, LISP sbcl, LUA, NEM, NICE, NODEJS, PAS fpc, PAS gpc, PERL, PERL6, PHP, PIKE, PRLG, PYTH, PYTH 3.4, RUBY, SCALA, SCM guile, SCM qobi, ST, TCL, TEXT, WSPC Author: witua\u000aTester: xcwgf666\u000aEditorial: http://discuss.codechef.com/problems/LEBALONS\u000aTags: dynamic-prog easy-medium may14 witua\u000aDate Added: 25-04-2012\u000aTime Limit: 1 sec\u000aSource Limit: 50000 Bytes\u000aLanguages: ADA, ASM, BASH, BF, C, C99 strict, CAML, CLOJ, CLPS, CPP 4.3.2, CPP 4.9.2, CPP14, CS2, D, ERL, FORT, FS, GO, HASK, ICK, ICON, JAVA, JS, LISP clisp, LISP sbcl, LUA, NEM, NICE, NODEJS, PAS fpc, PAS gpc, PERL, PERL6, PHP, PIKE, PRLG, PYTH, PYTH 3.4, RUBY, SCALA, SCM guile, SCM qobi, ST, TCL, TEXT, WSPC Author: witua Author: witua witua Tester: xcwgf666 Tester: xcwgf666 xcwgf666 Editorial: http://discuss.codechef.com/problems/LEBALONS Editorial: http://discuss.codechef.com/problems/LEBALONS http://discuss.codechef.com/problems/LEBALONS Tags: dynamic-prog easy-medium may14 witua Tags: dynamic-prog easy-medium may14 witua dynamic-prog easy-medium may14 witua Date Added: 25-04-2012 Date Added: 25-04-2012 Time Limit: 1 sec Time Limit: 1 sec Source Limit: 50000 Bytes Source Limit: 50000 Bytes Languages: ADA, ASM, BASH, BF, C, C99 strict, CAML, CLOJ, CLPS, CPP 4.3.2, CPP 4.9.2, CPP14, CS2, D, ERL, FORT, FS, GO, HASK, ICK, ICON, JAVA, JS, LISP clisp, LISP sbcl, LUA, NEM, NICE, NODEJS, PAS fpc, PAS gpc, PERL, PERL6, PHP, PIKE, PRLG, PYTH, PYTH 3.4, RUBY, SCALA, SCM guile, SCM qobi, ST, TCL, TEXT, WSPC Languages: ADA, ASM, BASH, BF, C, C99 strict, CAML, CLOJ, CLPS, CPP 4.3.2, CPP 4.9.2, CPP14, CS2, D, ERL, FORT, FS, GO, HASK, ICK, ICON, JAVA, JS, LISP clisp, LISP sbcl, LUA, NEM, NICE, NODEJS, PAS fpc, PAS gpc, PERL, PERL6, PHP, PIKE, PRLG, PYTH, PYTH 3.4, RUBY, SCALA, SCM guile, SCM qobi, ST, TCL, TEXT, WSPC SUBMIT  SUBMIT SUBMIT SUCCESSFUL SUBMISSIONS SUCCESSFUL SUBMISSIONS SUCCESSFUL SUBMISSIONS SUCCESSFUL SUBMISSIONS SUCCESSFUL SUBMISSIONS  
p9
sS'tags'
p10
V dynamic-prog easy-medium may14 witua
p11
sS'url'
p12
Vhttps://www.codechef.com/problems/LEBALONS
p13
sS'statement'
p14
(lp15
VAll submissions for this problem are available.
p16
aVRead problems statements in Mandarin Chinese and Russian.
p17
aVThe Little Elephant from the Zoo of Lviv is going to the Birthday Party of the Big Hippo tomorrow. Now he wants to prepare a gift for the Big Hippo.
p18
aVHe has N balloons, numbered from 1 to N. The i-th balloon has the color Ci and it costs Pi dollars. The gift for the Big Hippo will be any subset (chosen randomly, possibly empty) of the balloons such that the number of different colors in that subset is at least M.
p19
aVHelp Little Elephant to find the expected cost of the gift.
p20
asS'input'
p21
(lp22
VInput
p23
aVThe first line of the input contains a single integer T - the number of test cases. T test cases follow. The first line of each test case contains a pair of integers N and M. The next N lines contain N pairs of integers Ci and Pi, one pair per line.
p24
aVOutput
p25
aVIn T lines print T real numbers - the answers for the corresponding test cases. Your answer will considered correct if it has at most 10^-6 absolute or relative error.
p26
asS'constraints'
p27
(lp28
VConstraints
p29
aV1 \u2264 T \u2264 40
p30
aV1 \u2264 N, Ci\u2264 40
p31
aV1 \u2264 Pi \u2264 1000000
p32
aV0 \u2264 M \u2264 K, where K is the number of different colors in the test case.
p33
asS'id'
p34
c__builtin__
id
p35
sS'name'
p36
VLEBALONS
p37
sb.