(iproblems
Problem
p0
(dp1
S'time_limit'
p2
(lp3
VTime Limit: 1 sec
p4
asS'source_limit'
p5
(lp6
VSource Limit: 50000 Bytes
p7
asS'description'
p8
V All submissions for this problem are available.\u000aRead problems statements in Mandarin Chinese, Russian and Vietnamese as well.\u000aChef is playing a game with his friend Misha. They have a pile containg N coins. Players take alternate turns, removing some coins from the pile. On each turn, a player can remove either one coin or coins equal to some prime power (i.e. px coins, where p - prime number and x - positive integer). Game ends when the pile becomes empty. The player who can not make a move in his turn loses.\u000aChef plays first. Your task is to find out who will win the game, provided that both of the player play optimally.\u000aInput\u000aThe first line of the input contains an integer T denoting the number of test cases. The description of T test cases follows.\u000aThe only line of each test case contains one integer N.\u000aOutput\u000aFor each test case, output a single line containing one word - the name of the winner of the game. Print "Chef" (without quotes) if Chef wins the game, print "Misha" (without quotes) otherwise.\u000aConstraints\u000a1 \u2264 T \u2264 1000\u000a1 \u2264 N \u2264 109\u000aSubtasks\u000aSubtask #1 (20 points):\u000a1 \u2264 N \u2264 10\u000aSubtask #2 (30 points):\u000a1 \u2264 N \u2264 104\u000aSubtask #3 (50 points): No additional constraints.\u000aExample\u000aInput:\u000a2\u000a1\u000a8\u000a\u000aOutput:\u000aChef\u000aChef\u000aExplanation\u000aExample case 1. Chef will remove the only coin from the pile and will win the game.\u000aExample case 2. Chef will remove all 8 coins from the pile and win the game. Chef can remove 8 coins because 8 is a prime power, as 8 = 23.\u000aAuthor: antoniuk1\u000aTester: iscsi\u000aEditorial: http://discuss.codechef.com/problems/CHCOINSG\u000aTags: antoniuk1 finding-pattern game-theory june16 simple\u000aDate Added: 12-02-2016\u000aTime Limit: 1 sec\u000aSource Limit: 50000 Bytes\u000aLanguages: ADA, ASM, BASH, BF, C, C99 strict, CAML, CLOJ, CLPS, CPP 4.3.2, CPP 4.9.2, CPP14, CS2, D, ERL, FORT, FS, GO, HASK, ICK, ICON, JAVA, JS, LISP clisp, LISP sbcl, LUA, NEM, NICE, NODEJS, PAS fpc, PAS gpc, PERL, PERL6, PHP, PIKE, PRLG, PYPY, PYTH, PYTH 3.4, RUBY, SCALA, SCM chicken, SCM guile, SCM qobi, ST, TCL, TEXT, WSPC\u000aSUBMIT All submissions for this problem are available.\u000aRead problems statements in Mandarin Chinese, Russian and Vietnamese as well.\u000aChef is playing a game with his friend Misha. They have a pile containg N coins. Players take alternate turns, removing some coins from the pile. On each turn, a player can remove either one coin or coins equal to some prime power (i.e. px coins, where p - prime number and x - positive integer). Game ends when the pile becomes empty. The player who can not make a move in his turn loses.\u000aChef plays first. Your task is to find out who will win the game, provided that both of the player play optimally.\u000aInput\u000aThe first line of the input contains an integer T denoting the number of test cases. The description of T test cases follows.\u000aThe only line of each test case contains one integer N.\u000aOutput\u000aFor each test case, output a single line containing one word - the name of the winner of the game. Print "Chef" (without quotes) if Chef wins the game, print "Misha" (without quotes) otherwise.\u000aConstraints\u000a1 \u2264 T \u2264 1000\u000a1 \u2264 N \u2264 109\u000aSubtasks\u000aSubtask #1 (20 points):\u000a1 \u2264 N \u2264 10\u000aSubtask #2 (30 points):\u000a1 \u2264 N \u2264 104\u000aSubtask #3 (50 points): No additional constraints.\u000aExample\u000aInput:\u000a2\u000a1\u000a8\u000a\u000aOutput:\u000aChef\u000aChef\u000aExplanation\u000aExample case 1. Chef will remove the only coin from the pile and will win the game.\u000aExample case 2. Chef will remove all 8 coins from the pile and win the game. Chef can remove 8 coins because 8 is a prime power, as 8 = 23.\u000aAuthor: antoniuk1\u000aTester: iscsi\u000aEditorial: http://discuss.codechef.com/problems/CHCOINSG\u000aTags: antoniuk1 finding-pattern game-theory june16 simple\u000aDate Added: 12-02-2016\u000aTime Limit: 1 sec\u000aSource Limit: 50000 Bytes\u000aLanguages: ADA, ASM, BASH, BF, C, C99 strict, CAML, CLOJ, CLPS, CPP 4.3.2, CPP 4.9.2, CPP14, CS2, D, ERL, FORT, FS, GO, HASK, ICK, ICON, JAVA, JS, LISP clisp, LISP sbcl, LUA, NEM, NICE, NODEJS, PAS fpc, PAS gpc, PERL, PERL6, PHP, PIKE, PRLG, PYPY, PYTH, PYTH 3.4, RUBY, SCALA, SCM chicken, SCM guile, SCM qobi, ST, TCL, TEXT, WSPC All submissions for this problem are available. Read problems statements in Mandarin Chinese, Russian and Vietnamese as well. Mandarin Chinese Russian Vietnamese Chef is playing a game with his friend Misha. They have a pile containg N coins. Players take alternate turns, removing some coins from the pile. On each turn, a player can remove either one coin or coins equal to some prime power (i.e. px coins, where p - prime number and x - positive integer). Game ends when the pile becomes empty. The player who can not make a move in his turn loses. N px x p x Chef plays first. Your task is to find out who will win the game, provided that both of the player play optimally. Input The first line of the input contains an integer T denoting the number of test cases. The description of T test cases follows.\u000aThe only line of each test case contains one integer N. The first line of the input contains an integer T denoting the number of test cases. The description of T test cases follows. T T The only line of each test case contains one integer N. N Output For each test case, output a single line containing one word - the name of the winner of the game. Print "Chef" (without quotes) if Chef wins the game, print "Misha" (without quotes) otherwise. For each test case, output a single line containing one word - the name of the winner of the game. Print "Chef" (without quotes) if Chef wins the game, print "Misha" (without quotes) otherwise. Constraints 1 \u2264 T \u2264 1000\u000a1 \u2264 N \u2264 109 1 \u2264 T \u2264 1000 1 T 1000 1 \u2264 N \u2264 109 1 N 109 9 Subtasks Subtask #1 (20 points): Subtask #1 (20 points): 1 \u2264 N \u2264 10 1 \u2264 N \u2264 10 1 N 10 Subtask #2 (30 points): Subtask #2 (30 points): 1 \u2264 N \u2264 104 1 \u2264 N \u2264 104 1 N 104 4 Subtask #3 (50 points): No additional constraints. Subtask #3 (50 points): Example Input:\u000a2\u000a1\u000a8\u000a\u000aOutput:\u000aChef\u000aChef Input: Output: Explanation Example case 1. Chef will remove the only coin from the pile and will win the game. Example case 1. Example case 2. Chef will remove all 8 coins from the pile and win the game. Chef can remove 8 coins because 8 is a prime power, as 8 = 23. Example case 2. 3  Author: antoniuk1\u000aTester: iscsi\u000aEditorial: http://discuss.codechef.com/problems/CHCOINSG\u000aTags: antoniuk1 finding-pattern game-theory june16 simple\u000aDate Added: 12-02-2016\u000aTime Limit: 1 sec\u000aSource Limit: 50000 Bytes\u000aLanguages: ADA, ASM, BASH, BF, C, C99 strict, CAML, CLOJ, CLPS, CPP 4.3.2, CPP 4.9.2, CPP14, CS2, D, ERL, FORT, FS, GO, HASK, ICK, ICON, JAVA, JS, LISP clisp, LISP sbcl, LUA, NEM, NICE, NODEJS, PAS fpc, PAS gpc, PERL, PERL6, PHP, PIKE, PRLG, PYPY, PYTH, PYTH 3.4, RUBY, SCALA, SCM chicken, SCM guile, SCM qobi, ST, TCL, TEXT, WSPC Author: antoniuk1\u000aTester: iscsi\u000aEditorial: http://discuss.codechef.com/problems/CHCOINSG\u000aTags: antoniuk1 finding-pattern game-theory june16 simple\u000aDate Added: 12-02-2016\u000aTime Limit: 1 sec\u000aSource Limit: 50000 Bytes\u000aLanguages: ADA, ASM, BASH, BF, C, C99 strict, CAML, CLOJ, CLPS, CPP 4.3.2, CPP 4.9.2, CPP14, CS2, D, ERL, FORT, FS, GO, HASK, ICK, ICON, JAVA, JS, LISP clisp, LISP sbcl, LUA, NEM, NICE, NODEJS, PAS fpc, PAS gpc, PERL, PERL6, PHP, PIKE, PRLG, PYPY, PYTH, PYTH 3.4, RUBY, SCALA, SCM chicken, SCM guile, SCM qobi, ST, TCL, TEXT, WSPC Author: antoniuk1 Author: antoniuk1 antoniuk1 Tester: iscsi Tester: iscsi iscsi Editorial: http://discuss.codechef.com/problems/CHCOINSG Editorial: http://discuss.codechef.com/problems/CHCOINSG http://discuss.codechef.com/problems/CHCOINSG Tags: antoniuk1 finding-pattern game-theory june16 simple Tags: antoniuk1 finding-pattern game-theory june16 simple antoniuk1 finding-pattern game-theory june16 simple Date Added: 12-02-2016 Date Added: 12-02-2016 Time Limit: 1 sec Time Limit: 1 sec Source Limit: 50000 Bytes Source Limit: 50000 Bytes Languages: ADA, ASM, BASH, BF, C, C99 strict, CAML, CLOJ, CLPS, CPP 4.3.2, CPP 4.9.2, CPP14, CS2, D, ERL, FORT, FS, GO, HASK, ICK, ICON, JAVA, JS, LISP clisp, LISP sbcl, LUA, NEM, NICE, NODEJS, PAS fpc, PAS gpc, PERL, PERL6, PHP, PIKE, PRLG, PYPY, PYTH, PYTH 3.4, RUBY, SCALA, SCM chicken, SCM guile, SCM qobi, ST, TCL, TEXT, WSPC Languages: ADA, ASM, BASH, BF, C, C99 strict, CAML, CLOJ, CLPS, CPP 4.3.2, CPP 4.9.2, CPP14, CS2, D, ERL, FORT, FS, GO, HASK, ICK, ICON, JAVA, JS, LISP clisp, LISP sbcl, LUA, NEM, NICE, NODEJS, PAS fpc, PAS gpc, PERL, PERL6, PHP, PIKE, PRLG, PYPY, PYTH, PYTH 3.4, RUBY, SCALA, SCM chicken, SCM guile, SCM qobi, ST, TCL, TEXT, WSPC SUBMIT  SUBMIT SUBMIT SUCCESSFUL SUBMISSIONS SUCCESSFUL SUBMISSIONS SUCCESSFUL SUBMISSIONS SUCCESSFUL SUBMISSIONS SUCCESSFUL SUBMISSIONS  
p9
sS'tags'
p10
V antoniuk1 finding-pattern game-theory june16 simple
p11
sS'url'
p12
Vhttps://www.codechef.com/problems/CHCOINSG
p13
sS'statement'
p14
(lp15
VAll submissions for this problem are available.
p16
aVRead problems statements in Mandarin Chinese, Russian and Vietnamese as well.
p17
aVChef is playing a game with his friend Misha. They have a pile containg N coins. Players take alternate turns, removing some coins from the pile. On each turn, a player can remove either one coin or coins equal to some prime power (i.e. px coins, where p - prime number and x - positive integer). Game ends when the pile becomes empty. The player who can not make a move in his turn loses.
p18
aVChef plays first. Your task is to find out who will win the game, provided that both of the player play optimally.
p19
asS'input'
p20
(lp21
VInput
p22
aVThe first line of the input contains an integer T denoting the number of test cases. The description of T test cases follows.
p23
aVThe only line of each test case contains one integer N.
p24
aVOutput
p25
aVFor each test case, output a single line containing one word - the name of the winner of the game. Print "Chef" (without quotes) if Chef wins the game, print "Misha" (without quotes) otherwise.
p26
asS'constraints'
p27
(lp28
VConstraints
p29
aV1 \u2264 T \u2264 1000
p30
aV1 \u2264 N \u2264 109
p31
aVSubtasks
p32
aVSubtask #1 (20 points):
p33
aV1 \u2264 N \u2264 10
p34
aVSubtask #2 (30 points):
p35
aV1 \u2264 N \u2264 104
p36
aVSubtask #3 (50 points): No additional constraints.
p37
asS'id'
p38
c__builtin__
id
p39
sS'name'
p40
VCHCOINSG
p41
sb.