(iproblems
Problem
p0
(dp1
S'time_limit'
p2
(lp3
VTime Limit: 1 sec
p4
asS'source_limit'
p5
(lp6
VSource Limit: 50000 Bytes
p7
asS'description'
p8
V All submissions for this problem are available.\u000aRead problems statements in Mandarin Chinese, Russian and Vietnamese as well.\u000aNobody outside the cooking community knows that Chef is a big fan of Chefgram\u2122 \u2014 a social network where chefs and cooks upload their secret kitchen photos. Recently Chef clicked a beautiful photo, which is represented using 10 pixels in a single row. Respecting Chefgram\u2122's boolean roots, every pixel is either white or black.\u000aChefgram\u2122 has N filters. Every filter is a string containing 10 symbols. Every symbol is either '+' or '-'.\u000aA '+' at the ith position in a filter means that if Chef applies this filter to his photo, the ith pixel will be inverted: it becomes black if it was originally white, and vice versa.\u000aA '-' at the ith position in a filter string means that if Chef applies this filter to his photo, the ith pixel will remain unchanged.\u000aChef can apply as many filters as he wants from a list. He can pick any subset of filters and consequently apply them to a photo.\u000aFor example:\u000aImagine that Chef has a photo "bbwwbbwwbb" (where 'b' stands for black and 'w' stands for white).\u000aHe applies filters "++--++--++", "-+-+-+-+-+".\u000aApplying the first filter will transform his picture to "wwwwwwwwww".\u000aApplying the second filter on the transformed picture will give Chef the picture "wbwbwbwbwb".\u000aEven if Chefgram\u2122 has two or more identical filters, they are still considered different!\u000aChef is extremely interested in knowing how many different subsets of all the Chefgram\u2122 filters can he apply to transform his photo into 10 black pixels?\u000aInput\u000aThe first line of input contains a single integer T \u2014 the number of test cases.\u000aFirst line of each test case contains a string S. Each symbol is either 'b' or 'w'. This is Chef's photo.\u000aSecond line of each test case contains a single integer N \u2014 the number of Chefgram\u2122 filters.\u000aEach of the next N lines contains a single string Fi, each symbol of which is either '+' or '-'. This string is the ith Chefgram\u2122 filter.\u000aOutput\u000aFor each test case, output a single line containing a single integer \u2014 answer to Chef's question modulo 109+7.\u000aConstraints\u000a1 \u2264 T \u2264 5\u000a|S| = 10\u000a1 \u2264 N \u2264 10^5\u000a|Fi| = 10\u000aSubtasks\u000aSubtask 1: T \u2264 5; N \u2264 20; Points: 20\u000aSubtask 2: T \u2264 5; N \u2264 10^3; Points: 30\u000aSubtask 3: T \u2264 5; N \u2264 10^5; Points: 50\u000aExample\u000aInput:\u000a3\u000awwwwwwwwww\u000a3\u000a+-+-+-+-+-\u000a----------\u000a+---------\u000awbwbwbwbwb\u000a3\u000a+-+-+-+-+-\u000a+-+-------\u000a----+-+-+-\u000abbbbbbbbbb\u000a2\u000a----------\u000a----------\u000a\u000aOutput:\u000a0\u000a2\u000a4\u000aExplanation\u000aExample case 1. There is no filter or combination of filters transforming the picture to whole black.\u000aExample case 2. Chef can either apply the first filter (and invert all whites) or apply the second and third filters in any order.\u000aExample case 3. Picture is already fully black, and we have two different identity filters. Chef can either apply the empty subset of filters, the first filter only, the second filter only, or both.\u000aAuthor: berezin\u000aTester: xcwgf666\u000aEditorial: http://discuss.codechef.com/problems/CHEFFILT\u000aTags: berezin dec15 dp easy\u000aDate Added: 8-10-2015\u000aTime Limit: 1 sec\u000aSource Limit: 50000 Bytes\u000aLanguages: ADA, ASM, BASH, BF, C, C99 strict, CAML, CLOJ, CLPS, CPP 4.3.2, CPP 4.9.2, CPP14, CS2, D, ERL, FORT, FS, GO, HASK, ICK, ICON, JAVA, JS, LISP clisp, LISP sbcl, LUA, NEM, NICE, NODEJS, PAS fpc, PAS gpc, PERL, PERL6, PHP, PIKE, PRLG, PYPY, PYTH, PYTH 3.4, RUBY, SCALA, SCM chicken, SCM guile, SCM qobi, ST, TCL, TEXT, WSPC\u000aSUBMIT All submissions for this problem are available.\u000aRead problems statements in Mandarin Chinese, Russian and Vietnamese as well.\u000aNobody outside the cooking community knows that Chef is a big fan of Chefgram\u2122 \u2014 a social network where chefs and cooks upload their secret kitchen photos. Recently Chef clicked a beautiful photo, which is represented using 10 pixels in a single row. Respecting Chefgram\u2122's boolean roots, every pixel is either white or black.\u000aChefgram\u2122 has N filters. Every filter is a string containing 10 symbols. Every symbol is either '+' or '-'.\u000aA '+' at the ith position in a filter means that if Chef applies this filter to his photo, the ith pixel will be inverted: it becomes black if it was originally white, and vice versa.\u000aA '-' at the ith position in a filter string means that if Chef applies this filter to his photo, the ith pixel will remain unchanged.\u000aChef can apply as many filters as he wants from a list. He can pick any subset of filters and consequently apply them to a photo.\u000aFor example:\u000aImagine that Chef has a photo "bbwwbbwwbb" (where 'b' stands for black and 'w' stands for white).\u000aHe applies filters "++--++--++", "-+-+-+-+-+".\u000aApplying the first filter will transform his picture to "wwwwwwwwww".\u000aApplying the second filter on the transformed picture will give Chef the picture "wbwbwbwbwb".\u000aEven if Chefgram\u2122 has two or more identical filters, they are still considered different!\u000aChef is extremely interested in knowing how many different subsets of all the Chefgram\u2122 filters can he apply to transform his photo into 10 black pixels?\u000aInput\u000aThe first line of input contains a single integer T \u2014 the number of test cases.\u000aFirst line of each test case contains a string S. Each symbol is either 'b' or 'w'. This is Chef's photo.\u000aSecond line of each test case contains a single integer N \u2014 the number of Chefgram\u2122 filters.\u000aEach of the next N lines contains a single string Fi, each symbol of which is either '+' or '-'. This string is the ith Chefgram\u2122 filter.\u000aOutput\u000aFor each test case, output a single line containing a single integer \u2014 answer to Chef's question modulo 109+7.\u000aConstraints\u000a1 \u2264 T \u2264 5\u000a|S| = 10\u000a1 \u2264 N \u2264 10^5\u000a|Fi| = 10\u000aSubtasks\u000aSubtask 1: T \u2264 5; N \u2264 20; Points: 20\u000aSubtask 2: T \u2264 5; N \u2264 10^3; Points: 30\u000aSubtask 3: T \u2264 5; N \u2264 10^5; Points: 50\u000aExample\u000aInput:\u000a3\u000awwwwwwwwww\u000a3\u000a+-+-+-+-+-\u000a----------\u000a+---------\u000awbwbwbwbwb\u000a3\u000a+-+-+-+-+-\u000a+-+-------\u000a----+-+-+-\u000abbbbbbbbbb\u000a2\u000a----------\u000a----------\u000a\u000aOutput:\u000a0\u000a2\u000a4\u000aExplanation\u000aExample case 1. There is no filter or combination of filters transforming the picture to whole black.\u000aExample case 2. Chef can either apply the first filter (and invert all whites) or apply the second and third filters in any order.\u000aExample case 3. Picture is already fully black, and we have two different identity filters. Chef can either apply the empty subset of filters, the first filter only, the second filter only, or both.\u000aAuthor: berezin\u000aTester: xcwgf666\u000aEditorial: http://discuss.codechef.com/problems/CHEFFILT\u000aTags: berezin dec15 dp easy\u000aDate Added: 8-10-2015\u000aTime Limit: 1 sec\u000aSource Limit: 50000 Bytes\u000aLanguages: ADA, ASM, BASH, BF, C, C99 strict, CAML, CLOJ, CLPS, CPP 4.3.2, CPP 4.9.2, CPP14, CS2, D, ERL, FORT, FS, GO, HASK, ICK, ICON, JAVA, JS, LISP clisp, LISP sbcl, LUA, NEM, NICE, NODEJS, PAS fpc, PAS gpc, PERL, PERL6, PHP, PIKE, PRLG, PYPY, PYTH, PYTH 3.4, RUBY, SCALA, SCM chicken, SCM guile, SCM qobi, ST, TCL, TEXT, WSPC All submissions for this problem are available. Read problems statements in Mandarin Chinese, Russian and Vietnamese as well. Mandarin Chinese Russian Vietnamese Nobody outside the cooking community knows that Chef is a big fan of Chefgram\u2122 \u2014 a social network where chefs and cooks upload their secret kitchen photos. Recently Chef clicked a beautiful photo, which is represented using 10 pixels in a single row. Respecting Chefgram\u2122's boolean roots, every pixel is either white or black. beautiful 10 Chefgram\u2122 has N filters. Every filter is a string containing 10 symbols. Every symbol is either '+' or '-'. N 10 '+' '-' A '+' at the ith position in a filter means that if Chef applies this filter to his photo, the ith pixel will be inverted: it becomes black if it was originally white, and vice versa.\u000aA '-' at the ith position in a filter string means that if Chef applies this filter to his photo, the ith pixel will remain unchanged. A '+' at the ith position in a filter means that if Chef applies this filter to his photo, the ith pixel will be inverted: it becomes black if it was originally white, and vice versa. '+' ith th ith th inverted A '-' at the ith position in a filter string means that if Chef applies this filter to his photo, the ith pixel will remain unchanged. '-' ith th ith th unchanged  Chef can apply as many filters as he wants from a list. He can pick any subset of filters and consequently apply them to a photo. For example: Imagine that Chef has a photo "bbwwbbwwbb" (where 'b' stands for black and 'w' stands for white).\u000aHe applies filters "++--++--++", "-+-+-+-+-+".\u000aApplying the first filter will transform his picture to "wwwwwwwwww".\u000aApplying the second filter on the transformed picture will give Chef the picture "wbwbwbwbwb". Imagine that Chef has a photo "bbwwbbwwbb" (where 'b' stands for black and 'w' stands for white). "bbwwbbwwbb" 'b' 'w' He applies filters "++--++--++", "-+-+-+-+-+". "++--++--++" "-+-+-+-+-+" Applying the first filter will transform his picture to "wwwwwwwwww". "wwwwwwwwww" Applying the second filter on the transformed picture will give Chef the picture "wbwbwbwbwb". "wbwbwbwbwb"  Even if Chefgram\u2122 has two or more identical filters, they are still considered different! Even if Chefgram\u2122 has two or more identical filters, they are still considered different! Chef is extremely interested in knowing how many different subsets of all the Chefgram\u2122 filters can he apply to transform his photo into 10 black pixels? different subsets 10 black pixels Input The first line of input contains a single integer T \u2014 the number of test cases.\u000aFirst line of each test case contains a string S. Each symbol is either 'b' or 'w'. This is Chef's photo.\u000aSecond line of each test case contains a single integer N \u2014 the number of Chefgram\u2122 filters.\u000aEach of the next N lines contains a single string Fi, each symbol of which is either '+' or '-'. This string is the ith Chefgram\u2122 filter. The first line of input contains a single integer T \u2014 the number of test cases. T First line of each test case contains a string S. Each symbol is either 'b' or 'w'. This is Chef's photo. S 'b' 'w' Second line of each test case contains a single integer N \u2014 the number of Chefgram\u2122 filters. N Each of the next N lines contains a single string Fi, each symbol of which is either '+' or '-'. This string is the ith Chefgram\u2122 filter. N Fi i '+' '-' ith th Output For each test case, output a single line containing a single integer \u2014 answer to Chef's question modulo 109+7. For each test case, output a single line containing a single integer \u2014 answer to Chef's question modulo 109+7. 109+7 9 Constraints 1 \u2264 T \u2264 5\u000a|S| = 10\u000a1 \u2264 N \u2264 10^5\u000a|Fi| = 10 1 \u2264 T \u2264 5 1 T 5 |S| = 10 |S| 10 1 \u2264 N \u2264 10^5 1 N 10^5 |Fi| = 10 |Fi| i 10 Subtasks Subtask 1: T \u2264 5; N \u2264 20; Points: 20\u000aSubtask 2: T \u2264 5; N \u2264 10^3; Points: 30\u000aSubtask 3: T \u2264 5; N \u2264 10^5; Points: 50 Subtask 1: T \u2264 5; N \u2264 20; Points: 20 1 T 5 N 20 20 Subtask 2: T \u2264 5; N \u2264 10^3; Points: 30 2 T 5 N 10^3 30 Subtask 3: T \u2264 5; N \u2264 10^5; Points: 50 3 T 5 N 10^5 50 Example Input:\u000a3\u000awwwwwwwwww\u000a3\u000a+-+-+-+-+-\u000a----------\u000a+---------\u000awbwbwbwbwb\u000a3\u000a+-+-+-+-+-\u000a+-+-------\u000a----+-+-+-\u000abbbbbbbbbb\u000a2\u000a----------\u000a----------\u000a\u000aOutput:\u000a0\u000a2\u000a4 Input: Output: Explanation Example case 1. There is no filter or combination of filters transforming the picture to whole black. Example case 1. Example case 2. Chef can either apply the first filter (and invert all whites) or apply the second and third filters in any order. Example case 2. Example case 3. Picture is already fully black, and we have two different identity filters. Chef can either apply the empty subset of filters, the first filter only, the second filter only, or both. Example case 3. different empty  Author: berezin\u000aTester: xcwgf666\u000aEditorial: http://discuss.codechef.com/problems/CHEFFILT\u000aTags: berezin dec15 dp easy\u000aDate Added: 8-10-2015\u000aTime Limit: 1 sec\u000aSource Limit: 50000 Bytes\u000aLanguages: ADA, ASM, BASH, BF, C, C99 strict, CAML, CLOJ, CLPS, CPP 4.3.2, CPP 4.9.2, CPP14, CS2, D, ERL, FORT, FS, GO, HASK, ICK, ICON, JAVA, JS, LISP clisp, LISP sbcl, LUA, NEM, NICE, NODEJS, PAS fpc, PAS gpc, PERL, PERL6, PHP, PIKE, PRLG, PYPY, PYTH, PYTH 3.4, RUBY, SCALA, SCM chicken, SCM guile, SCM qobi, ST, TCL, TEXT, WSPC Author: berezin\u000aTester: xcwgf666\u000aEditorial: http://discuss.codechef.com/problems/CHEFFILT\u000aTags: berezin dec15 dp easy\u000aDate Added: 8-10-2015\u000aTime Limit: 1 sec\u000aSource Limit: 50000 Bytes\u000aLanguages: ADA, ASM, BASH, BF, C, C99 strict, CAML, CLOJ, CLPS, CPP 4.3.2, CPP 4.9.2, CPP14, CS2, D, ERL, FORT, FS, GO, HASK, ICK, ICON, JAVA, JS, LISP clisp, LISP sbcl, LUA, NEM, NICE, NODEJS, PAS fpc, PAS gpc, PERL, PERL6, PHP, PIKE, PRLG, PYPY, PYTH, PYTH 3.4, RUBY, SCALA, SCM chicken, SCM guile, SCM qobi, ST, TCL, TEXT, WSPC Author: berezin Author: berezin berezin Tester: xcwgf666 Tester: xcwgf666 xcwgf666 Editorial: http://discuss.codechef.com/problems/CHEFFILT Editorial: http://discuss.codechef.com/problems/CHEFFILT http://discuss.codechef.com/problems/CHEFFILT Tags: berezin dec15 dp easy Tags: berezin dec15 dp easy berezin dec15 dp easy Date Added: 8-10-2015 Date Added: 8-10-2015 Time Limit: 1 sec Time Limit: 1 sec Source Limit: 50000 Bytes Source Limit: 50000 Bytes Languages: ADA, ASM, BASH, BF, C, C99 strict, CAML, CLOJ, CLPS, CPP 4.3.2, CPP 4.9.2, CPP14, CS2, D, ERL, FORT, FS, GO, HASK, ICK, ICON, JAVA, JS, LISP clisp, LISP sbcl, LUA, NEM, NICE, NODEJS, PAS fpc, PAS gpc, PERL, PERL6, PHP, PIKE, PRLG, PYPY, PYTH, PYTH 3.4, RUBY, SCALA, SCM chicken, SCM guile, SCM qobi, ST, TCL, TEXT, WSPC Languages: ADA, ASM, BASH, BF, C, C99 strict, CAML, CLOJ, CLPS, CPP 4.3.2, CPP 4.9.2, CPP14, CS2, D, ERL, FORT, FS, GO, HASK, ICK, ICON, JAVA, JS, LISP clisp, LISP sbcl, LUA, NEM, NICE, NODEJS, PAS fpc, PAS gpc, PERL, PERL6, PHP, PIKE, PRLG, PYPY, PYTH, PYTH 3.4, RUBY, SCALA, SCM chicken, SCM guile, SCM qobi, ST, TCL, TEXT, WSPC SUBMIT  SUBMIT SUBMIT SUCCESSFUL SUBMISSIONS SUCCESSFUL SUBMISSIONS SUCCESSFUL SUBMISSIONS SUCCESSFUL SUBMISSIONS SUCCESSFUL SUBMISSIONS  
p9
sS'tags'
p10
V berezin dec15 dp easy
p11
sS'url'
p12
Vhttps://www.codechef.com/problems/CHEFFILT
p13
sS'statement'
p14
(lp15
VAll submissions for this problem are available.
p16
aVRead problems statements in Mandarin Chinese, Russian and Vietnamese as well.
p17
aVNobody outside the cooking community knows that Chef is a big fan of Chefgram\u2122 \u2014 a social network where chefs and cooks upload their secret kitchen photos. Recently Chef clicked a beautiful photo, which is represented using 10 pixels in a single row. Respecting Chefgram\u2122's boolean roots, every pixel is either white or black.
p18
aVChefgram\u2122 has N filters. Every filter is a string containing 10 symbols. Every symbol is either '+' or '-'.
p19
aVA '+' at the ith position in a filter means that if Chef applies this filter to his photo, the ith pixel will be inverted: it becomes black if it was originally white, and vice versa.
p20
aVA '-' at the ith position in a filter string means that if Chef applies this filter to his photo, the ith pixel will remain unchanged.
p21
aVChef can apply as many filters as he wants from a list. He can pick any subset of filters and consequently apply them to a photo.
p22
aVFor example:
p23
aVImagine that Chef has a photo "bbwwbbwwbb" (where 'b' stands for black and 'w' stands for white).
p24
aVHe applies filters "++--++--++", "-+-+-+-+-+".
p25
aVApplying the first filter will transform his picture to "wwwwwwwwww".
p26
aVApplying the second filter on the transformed picture will give Chef the picture "wbwbwbwbwb".
p27
aVEven if Chefgram\u2122 has two or more identical filters, they are still considered different!
p28
aVChef is extremely interested in knowing how many different subsets of all the Chefgram\u2122 filters can he apply to transform his photo into 10 black pixels?
p29
asS'input'
p30
(lp31
VInput
p32
aVThe first line of input contains a single integer T \u2014 the number of test cases.
p33
aVFirst line of each test case contains a string S. Each symbol is either 'b' or 'w'. This is Chef's photo.
p34
aVSecond line of each test case contains a single integer N \u2014 the number of Chefgram\u2122 filters.
p35
aVEach of the next N lines contains a single string Fi, each symbol of which is either '+' or '-'. This string is the ith Chefgram\u2122 filter.
p36
aVOutput
p37
aVFor each test case, output a single line containing a single integer \u2014 answer to Chef's question modulo 109+7.
p38
asS'constraints'
p39
(lp40
VConstraints
p41
aV1 \u2264 T \u2264 5
p42
aV|S| = 10
p43
aV1 \u2264 N \u2264 10^5
p44
aV|Fi| = 10
p45
aVSubtasks
p46
aVSubtask 1: T \u2264 5; N \u2264 20; Points: 20
p47
aVSubtask 2: T \u2264 5; N \u2264 10^3; Points: 30
p48
aVSubtask 3: T \u2264 5; N \u2264 10^5; Points: 50
p49
asS'id'
p50
c__builtin__
id
p51
sS'name'
p52
VCHEFFILT
p53
sb.