(iproblems
Problem
p0
(dp1
S'time_limit'
p2
(lp3
VTime Limit: 2 sec
p4
asS'source_limit'
p5
(lp6
VSource Limit: 50000 Bytes
p7
asS'description'
p8
V All submissions for this problem are available.\u000aRead problems statements in Mandarin Chinese and Russian.\u000aDevu loves to play with binary strings a lot. One day he borrowed a binary string s of size n from his friend Churu. Before starting to play with it, he wants to make sure that string does not contain more than k consecutive equal characters. For achieving that, only kind of operation he is allowed to perform is to flip any ith character of the string.\u000aAs Devu is always in hurry to meet his girlfriend, he wants you to help him in finding out the minimum number of operations he will need. Also he wants you to print one of the possible modified string too.\u000aInput\u000aFirst line of input contains an integer T denoting the number of test cases.\u000aFor each test case, there are two lines.\u000aFirst line contains two space separated integers n, k as defined in the problem.\u000aNext line contains string s of size n.\u000aOutput\u000aFor each test case, print two lines.\u000aFirst line should contain an integer corresponding to minimum number of operations Devu needs.\u000aIn second line, print one of the possible modified strings.\u000aConstraints\u000aSubtask #1: 20 points\u000a1 \u2264 T \u2264 100, 1 \u2264 n \u2264 20, 1 \u2264 k \u2264 n\u000aSubtask #2: 35 points\u000a1 \u2264 T \u2264 102, 1 \u2264 n \u2264 103, 1 \u2264 k \u2264 n\u000aSubtask #3: 45 points\u000a1 \u2264 T \u2264 105, 1 \u2264 n \u2264 105, 1 \u2264 k \u2264 n\u000aSum of n over all the test cases is \u2264 106\u000aExample\u000aInput:\u000a3\u000a2 1\u000a11\u000a2 2\u000a11\u000a4 1\u000a1001\u000a\u000aOutput:\u000a1\u000a10\u000a0\u000a11\u000a2\u000a1010\u000aExplanation\u000aExample case 1: As 1 is occurring twice consecutively, we can convert 11 to 10 in a single operation.\u000aExample case 2: You don't need to modify the string as it does not have more than 2 equal consecutive character.\u000aExample case 3: As 0 is occurring twice consecutively, we can convert 1001 to 1010 in a two operations (Flip third and fourth character).\u000aAuthor: admin2\u000aEditorial: http://discuss.codechef.com/problems/DEVSTR\u000aTags: admin admin2 basic-math easy may15\u000aDate Added: 9-02-2015\u000aTime Limit: 2 sec\u000aSource Limit: 50000 Bytes\u000aLanguages: ADA, ASM, BASH, BF, C, C99 strict, CAML, CLOJ, CLPS, CPP 4.3.2, CPP 4.9.2, CPP14, CS2, D, ERL, FORT, FS, GO, HASK, ICK, ICON, JAVA, JS, LISP clisp, LISP sbcl, LUA, NEM, NICE, NODEJS, PAS fpc, PAS gpc, PERL, PERL6, PHP, PIKE, PRLG, PYPY, PYTH, PYTH 3.4, RUBY, SCALA, SCM chicken, SCM guile, SCM qobi, ST, TCL, TEXT, WSPC\u000aSUBMIT All submissions for this problem are available.\u000aRead problems statements in Mandarin Chinese and Russian.\u000aDevu loves to play with binary strings a lot. One day he borrowed a binary string s of size n from his friend Churu. Before starting to play with it, he wants to make sure that string does not contain more than k consecutive equal characters. For achieving that, only kind of operation he is allowed to perform is to flip any ith character of the string.\u000aAs Devu is always in hurry to meet his girlfriend, he wants you to help him in finding out the minimum number of operations he will need. Also he wants you to print one of the possible modified string too.\u000aInput\u000aFirst line of input contains an integer T denoting the number of test cases.\u000aFor each test case, there are two lines.\u000aFirst line contains two space separated integers n, k as defined in the problem.\u000aNext line contains string s of size n.\u000aOutput\u000aFor each test case, print two lines.\u000aFirst line should contain an integer corresponding to minimum number of operations Devu needs.\u000aIn second line, print one of the possible modified strings.\u000aConstraints\u000aSubtask #1: 20 points\u000a1 \u2264 T \u2264 100, 1 \u2264 n \u2264 20, 1 \u2264 k \u2264 n\u000aSubtask #2: 35 points\u000a1 \u2264 T \u2264 102, 1 \u2264 n \u2264 103, 1 \u2264 k \u2264 n\u000aSubtask #3: 45 points\u000a1 \u2264 T \u2264 105, 1 \u2264 n \u2264 105, 1 \u2264 k \u2264 n\u000aSum of n over all the test cases is \u2264 106\u000aExample\u000aInput:\u000a3\u000a2 1\u000a11\u000a2 2\u000a11\u000a4 1\u000a1001\u000a\u000aOutput:\u000a1\u000a10\u000a0\u000a11\u000a2\u000a1010\u000aExplanation\u000aExample case 1: As 1 is occurring twice consecutively, we can convert 11 to 10 in a single operation.\u000aExample case 2: You don't need to modify the string as it does not have more than 2 equal consecutive character.\u000aExample case 3: As 0 is occurring twice consecutively, we can convert 1001 to 1010 in a two operations (Flip third and fourth character).\u000aAuthor: admin2\u000aEditorial: http://discuss.codechef.com/problems/DEVSTR\u000aTags: admin admin2 basic-math easy may15\u000aDate Added: 9-02-2015\u000aTime Limit: 2 sec\u000aSource Limit: 50000 Bytes\u000aLanguages: ADA, ASM, BASH, BF, C, C99 strict, CAML, CLOJ, CLPS, CPP 4.3.2, CPP 4.9.2, CPP14, CS2, D, ERL, FORT, FS, GO, HASK, ICK, ICON, JAVA, JS, LISP clisp, LISP sbcl, LUA, NEM, NICE, NODEJS, PAS fpc, PAS gpc, PERL, PERL6, PHP, PIKE, PRLG, PYPY, PYTH, PYTH 3.4, RUBY, SCALA, SCM chicken, SCM guile, SCM qobi, ST, TCL, TEXT, WSPC All submissions for this problem are available. Read problems statements in Mandarin Chinese and Russian. Mandarin Chinese Russian Devu loves to play with binary strings a lot. One day he borrowed a binary string s of size n from his friend Churu. Before starting to play with it, he wants to make sure that string does not contain more than k consecutive equal characters. For achieving that, only kind of operation he is allowed to perform is to flip any ith character of the string. s n k ith th As Devu is always in hurry to meet his girlfriend, he wants you to help him in finding out the minimum number of operations he will need. Also he wants you to print one of the possible modified string too. Input First line of input contains an integer T denoting the number of test cases.\u000aFor each test case, there are two lines.\u000aFirst line contains two space separated integers n, k as defined in the problem.\u000aNext line contains string s of size n. First line of input contains an integer T denoting the number of test cases. T For each test case, there are two lines. First line contains two space separated integers n, k as defined in the problem. n, k Next line contains string s of size n. s n Output For each test case, print two lines.\u000aFirst line should contain an integer corresponding to minimum number of operations Devu needs.\u000aIn second line, print one of the possible modified strings. For each test case, print two lines. First line should contain an integer corresponding to minimum number of operations Devu needs. In second line, print one of the possible modified strings. Constraints Subtask #1: 20 points Subtask #1: 20 points 1 \u2264 T \u2264 100, 1 \u2264 n \u2264 20, 1 \u2264 k \u2264 n 1 \u2264 T \u2264 100, 1 \u2264 n \u2264 20, 1 \u2264 k \u2264 n 1 \u2264 T \u2264 100 1 \u2264 n \u2264 20 1 \u2264 k \u2264 n Subtask #2: 35 points Subtask #2: 35 points 1 \u2264 T \u2264 102, 1 \u2264 n \u2264 103, 1 \u2264 k \u2264 n 1 \u2264 T \u2264 102, 1 \u2264 n \u2264 103, 1 \u2264 k \u2264 n 1 \u2264 T \u2264 102 2 1 \u2264 n \u2264 103 3 1 \u2264 k \u2264 n Subtask #3: 45 points Subtask #3: 45 points 1 \u2264 T \u2264 105, 1 \u2264 n \u2264 105, 1 \u2264 k \u2264 n\u000aSum of n over all the test cases is \u2264 106 1 \u2264 T \u2264 105, 1 \u2264 n \u2264 105, 1 \u2264 k \u2264 n 1 \u2264 T \u2264 105 5 1 \u2264 n \u2264 105 5 1 \u2264 k \u2264 n Sum of n over all the test cases is \u2264 106 n 106 6 Example Input:\u000a3\u000a2 1\u000a11\u000a2 2\u000a11\u000a4 1\u000a1001\u000a\u000aOutput:\u000a1\u000a10\u000a0\u000a11\u000a2\u000a1010 Input: Output: Explanation Example case 1: As 1 is occurring twice consecutively, we can convert 11 to 10 in a single operation. Example case 1: Example case 2: You don't need to modify the string as it does not have more than 2 equal consecutive character. Example case 2: Example case 3: As 0 is occurring twice consecutively, we can convert 1001 to 1010 in a two operations (Flip third and fourth character). Example case 3:  Author: admin2\u000aEditorial: http://discuss.codechef.com/problems/DEVSTR\u000aTags: admin admin2 basic-math easy may15\u000aDate Added: 9-02-2015\u000aTime Limit: 2 sec\u000aSource Limit: 50000 Bytes\u000aLanguages: ADA, ASM, BASH, BF, C, C99 strict, CAML, CLOJ, CLPS, CPP 4.3.2, CPP 4.9.2, CPP14, CS2, D, ERL, FORT, FS, GO, HASK, ICK, ICON, JAVA, JS, LISP clisp, LISP sbcl, LUA, NEM, NICE, NODEJS, PAS fpc, PAS gpc, PERL, PERL6, PHP, PIKE, PRLG, PYPY, PYTH, PYTH 3.4, RUBY, SCALA, SCM chicken, SCM guile, SCM qobi, ST, TCL, TEXT, WSPC Author: admin2\u000aEditorial: http://discuss.codechef.com/problems/DEVSTR\u000aTags: admin admin2 basic-math easy may15\u000aDate Added: 9-02-2015\u000aTime Limit: 2 sec\u000aSource Limit: 50000 Bytes\u000aLanguages: ADA, ASM, BASH, BF, C, C99 strict, CAML, CLOJ, CLPS, CPP 4.3.2, CPP 4.9.2, CPP14, CS2, D, ERL, FORT, FS, GO, HASK, ICK, ICON, JAVA, JS, LISP clisp, LISP sbcl, LUA, NEM, NICE, NODEJS, PAS fpc, PAS gpc, PERL, PERL6, PHP, PIKE, PRLG, PYPY, PYTH, PYTH 3.4, RUBY, SCALA, SCM chicken, SCM guile, SCM qobi, ST, TCL, TEXT, WSPC Author: admin2 Author: admin2 admin2 Editorial: http://discuss.codechef.com/problems/DEVSTR Editorial: http://discuss.codechef.com/problems/DEVSTR http://discuss.codechef.com/problems/DEVSTR Tags: admin admin2 basic-math easy may15 Tags: admin admin2 basic-math easy may15 admin admin2 basic-math easy may15 Date Added: 9-02-2015 Date Added: 9-02-2015 Time Limit: 2 sec Time Limit: 2 sec Source Limit: 50000 Bytes Source Limit: 50000 Bytes Languages: ADA, ASM, BASH, BF, C, C99 strict, CAML, CLOJ, CLPS, CPP 4.3.2, CPP 4.9.2, CPP14, CS2, D, ERL, FORT, FS, GO, HASK, ICK, ICON, JAVA, JS, LISP clisp, LISP sbcl, LUA, NEM, NICE, NODEJS, PAS fpc, PAS gpc, PERL, PERL6, PHP, PIKE, PRLG, PYPY, PYTH, PYTH 3.4, RUBY, SCALA, SCM chicken, SCM guile, SCM qobi, ST, TCL, TEXT, WSPC Languages: ADA, ASM, BASH, BF, C, C99 strict, CAML, CLOJ, CLPS, CPP 4.3.2, CPP 4.9.2, CPP14, CS2, D, ERL, FORT, FS, GO, HASK, ICK, ICON, JAVA, JS, LISP clisp, LISP sbcl, LUA, NEM, NICE, NODEJS, PAS fpc, PAS gpc, PERL, PERL6, PHP, PIKE, PRLG, PYPY, PYTH, PYTH 3.4, RUBY, SCALA, SCM chicken, SCM guile, SCM qobi, ST, TCL, TEXT, WSPC SUBMIT  SUBMIT SUBMIT SUCCESSFUL SUBMISSIONS SUCCESSFUL SUBMISSIONS SUCCESSFUL SUBMISSIONS SUCCESSFUL SUBMISSIONS SUCCESSFUL SUBMISSIONS  
p9
sS'tags'
p10
V admin admin2 basic-math easy may15
p11
sS'url'
p12
Vhttps://www.codechef.com/problems/DEVSTR
p13
sS'statement'
p14
(lp15
VAll submissions for this problem are available.
p16
aVRead problems statements in Mandarin Chinese and Russian.
p17
aVDevu loves to play with binary strings a lot. One day he borrowed a binary string s of size n from his friend Churu. Before starting to play with it, he wants to make sure that string does not contain more than k consecutive equal characters. For achieving that, only kind of operation he is allowed to perform is to flip any ith character of the string.
p18
aVAs Devu is always in hurry to meet his girlfriend, he wants you to help him in finding out the minimum number of operations he will need. Also he wants you to print one of the possible modified string too.
p19
asS'input'
p20
(lp21
VInput
p22
aVFirst line of input contains an integer T denoting the number of test cases.
p23
aVFor each test case, there are two lines.
p24
aVFirst line contains two space separated integers n, k as defined in the problem.
p25
aVNext line contains string s of size n.
p26
aVOutput
p27
aVFor each test case, print two lines.
p28
aVFirst line should contain an integer corresponding to minimum number of operations Devu needs.
p29
aVIn second line, print one of the possible modified strings.
p30
asS'constraints'
p31
(lp32
VConstraints
p33
aVSubtask #1: 20 points
p34
aV1 \u2264 T \u2264 100, 1 \u2264 n \u2264 20, 1 \u2264 k \u2264 n
p35
aVSubtask #2: 35 points
p36
aV1 \u2264 T \u2264 102, 1 \u2264 n \u2264 103, 1 \u2264 k \u2264 n
p37
aVSubtask #3: 45 points
p38
aV1 \u2264 T \u2264 105, 1 \u2264 n \u2264 105, 1 \u2264 k \u2264 n
p39
aVSum of n over all the test cases is \u2264 106
p40
asS'id'
p41
c__builtin__
id
p42
sS'name'
p43
VDEVSTR
p44
sb.