(iproblems
Problem
p0
(dp1
S'time_limit'
p2
(lp3
VTime Limit: 1 sec
p4
asS'source_limit'
p5
(lp6
VSource Limit: 50000 Bytes
p7
asS'description'
p8
V All submissions for this problem are available.\u000aRead problems statements in Mandarin Chinese , Russian and Vietnamese as well.\u000aSergey recently learned about country codes - two letter strings, denoting countries. For example, BY stands for Belarus and IN stands for India. Mesmerized by this new discovery, Sergey now looks for country codes everywhere!\u000aSergey has recently found a string S consisting of uppercase Latin letters. He wants to find the number of different country codes that appear in S as contiguous substrings. For the purpose of this problem, consider that every 2-letter uppercase string is a valid country code.\u000aInput\u000aThe first line of input contains an integer T denoting the number of test cases. The description of T test cases follows.\u000aThe first and only line of each test case contains a string S, consisting of uppercase Latin letters.\u000aOutput\u000aFor each test case, output a single line containing the number of different country codes appearing in the given string.\u000aConstraints\u000a1 \u2264 T \u2264 100\u000aSubtask 1 (35 points): 2 \u2264 |S| \u2264 3\u000aSubtask 2 (65 points): 2 \u2264 |S| \u2264 104\u000aExample\u000aInput:\u000a2\u000aINBY\u000aBYBY\u000a\u000aOutput:\u000a3\u000a2\u000aExplanation\u000aExample case 1. The codes are IN, NB and BY.\u000aExample case 2. The codes are BY and YB.\u000aAuthor: xcwgf666\u000aTester: pavel1996\u000aEditorial: http://discuss.codechef.com/problems/DISTCODE\u000aTags: basic basics cakewalk constructions language ltime31 xcwgf666\u000aDate Added: 3-11-2015\u000aTime Limit: 1 sec\u000aSource Limit: 50000 Bytes\u000aLanguages: ADA, ASM, BASH, BF, C, C99 strict, CAML, CLOJ, CLPS, CPP 4.3.2, CPP 4.9.2, CPP14, CS2, D, ERL, FORT, FS, GO, HASK, ICK, ICON, JAVA, JS, LISP clisp, LISP sbcl, LUA, NEM, NICE, NODEJS, PAS fpc, PAS gpc, PERL, PERL6, PHP, PIKE, PRLG, PYPY, PYTH, PYTH 3.4, RUBY, SCALA, SCM chicken, SCM guile, SCM qobi, ST, TCL, TEXT, WSPC\u000aSUBMIT All submissions for this problem are available.\u000aRead problems statements in Mandarin Chinese , Russian and Vietnamese as well.\u000aSergey recently learned about country codes - two letter strings, denoting countries. For example, BY stands for Belarus and IN stands for India. Mesmerized by this new discovery, Sergey now looks for country codes everywhere!\u000aSergey has recently found a string S consisting of uppercase Latin letters. He wants to find the number of different country codes that appear in S as contiguous substrings. For the purpose of this problem, consider that every 2-letter uppercase string is a valid country code.\u000aInput\u000aThe first line of input contains an integer T denoting the number of test cases. The description of T test cases follows.\u000aThe first and only line of each test case contains a string S, consisting of uppercase Latin letters.\u000aOutput\u000aFor each test case, output a single line containing the number of different country codes appearing in the given string.\u000aConstraints\u000a1 \u2264 T \u2264 100\u000aSubtask 1 (35 points): 2 \u2264 |S| \u2264 3\u000aSubtask 2 (65 points): 2 \u2264 |S| \u2264 104\u000aExample\u000aInput:\u000a2\u000aINBY\u000aBYBY\u000a\u000aOutput:\u000a3\u000a2\u000aExplanation\u000aExample case 1. The codes are IN, NB and BY.\u000aExample case 2. The codes are BY and YB.\u000aAuthor: xcwgf666\u000aTester: pavel1996\u000aEditorial: http://discuss.codechef.com/problems/DISTCODE\u000aTags: basic basics cakewalk constructions language ltime31 xcwgf666\u000aDate Added: 3-11-2015\u000aTime Limit: 1 sec\u000aSource Limit: 50000 Bytes\u000aLanguages: ADA, ASM, BASH, BF, C, C99 strict, CAML, CLOJ, CLPS, CPP 4.3.2, CPP 4.9.2, CPP14, CS2, D, ERL, FORT, FS, GO, HASK, ICK, ICON, JAVA, JS, LISP clisp, LISP sbcl, LUA, NEM, NICE, NODEJS, PAS fpc, PAS gpc, PERL, PERL6, PHP, PIKE, PRLG, PYPY, PYTH, PYTH 3.4, RUBY, SCALA, SCM chicken, SCM guile, SCM qobi, ST, TCL, TEXT, WSPC All submissions for this problem are available. Read problems statements in Mandarin Chinese , Russian and Vietnamese as well. Mandarin Chinese Russian Vietnamese Sergey recently learned about country codes - two letter strings, denoting countries. For example, BY stands for Belarus and IN stands for India. Mesmerized by this new discovery, Sergey now looks for country codes everywhere! country codes BY IN Sergey has recently found a string S consisting of uppercase Latin letters. He wants to find the number of different country codes that appear in S as contiguous substrings. For the purpose of this problem, consider that every 2-letter uppercase string is a valid country code. S S 2 Input The first line of input contains an integer T denoting the number of test cases. The description of T test cases follows. T T The first and only line of each test case contains a string S, consisting of uppercase Latin letters. S Output For each test case, output a single line containing the number of different country codes appearing in the given string. Constraints  1 \u2264 T \u2264 100\u000aSubtask 1 (35 points): 2 \u2264 |S| \u2264 3\u000aSubtask 2 (65 points): 2 \u2264 |S| \u2264 104 1 \u2264 T \u2264 100 1 T 100 Subtask 1 (35 points): 2 \u2264 |S| \u2264 3 2 |S| 3 Subtask 2 (65 points): 2 \u2264 |S| \u2264 104 2 |S| 104 4  Example Input:\u000a2\u000aINBY\u000aBYBY\u000a\u000aOutput:\u000a3\u000a2 Input: 2\u000aINBY\u000aBYBY Output: 3\u000a2 Explanation Example case 1. The codes are IN, NB and BY. Example case 1. IN NB BY Example case 2. The codes are BY and YB. Example case 2. BY YB  Author: xcwgf666\u000aTester: pavel1996\u000aEditorial: http://discuss.codechef.com/problems/DISTCODE\u000aTags: basic basics cakewalk constructions language ltime31 xcwgf666\u000aDate Added: 3-11-2015\u000aTime Limit: 1 sec\u000aSource Limit: 50000 Bytes\u000aLanguages: ADA, ASM, BASH, BF, C, C99 strict, CAML, CLOJ, CLPS, CPP 4.3.2, CPP 4.9.2, CPP14, CS2, D, ERL, FORT, FS, GO, HASK, ICK, ICON, JAVA, JS, LISP clisp, LISP sbcl, LUA, NEM, NICE, NODEJS, PAS fpc, PAS gpc, PERL, PERL6, PHP, PIKE, PRLG, PYPY, PYTH, PYTH 3.4, RUBY, SCALA, SCM chicken, SCM guile, SCM qobi, ST, TCL, TEXT, WSPC Author: xcwgf666\u000aTester: pavel1996\u000aEditorial: http://discuss.codechef.com/problems/DISTCODE\u000aTags: basic basics cakewalk constructions language ltime31 xcwgf666\u000aDate Added: 3-11-2015\u000aTime Limit: 1 sec\u000aSource Limit: 50000 Bytes\u000aLanguages: ADA, ASM, BASH, BF, C, C99 strict, CAML, CLOJ, CLPS, CPP 4.3.2, CPP 4.9.2, CPP14, CS2, D, ERL, FORT, FS, GO, HASK, ICK, ICON, JAVA, JS, LISP clisp, LISP sbcl, LUA, NEM, NICE, NODEJS, PAS fpc, PAS gpc, PERL, PERL6, PHP, PIKE, PRLG, PYPY, PYTH, PYTH 3.4, RUBY, SCALA, SCM chicken, SCM guile, SCM qobi, ST, TCL, TEXT, WSPC Author: xcwgf666 Author: xcwgf666 xcwgf666 Tester: pavel1996 Tester: pavel1996 pavel1996 Editorial: http://discuss.codechef.com/problems/DISTCODE Editorial: http://discuss.codechef.com/problems/DISTCODE http://discuss.codechef.com/problems/DISTCODE Tags: basic basics cakewalk constructions language ltime31 xcwgf666 Tags: basic basics cakewalk constructions language ltime31 xcwgf666 basic basics cakewalk constructions language ltime31 xcwgf666 Date Added: 3-11-2015 Date Added: 3-11-2015 Time Limit: 1 sec Time Limit: 1 sec Source Limit: 50000 Bytes Source Limit: 50000 Bytes Languages: ADA, ASM, BASH, BF, C, C99 strict, CAML, CLOJ, CLPS, CPP 4.3.2, CPP 4.9.2, CPP14, CS2, D, ERL, FORT, FS, GO, HASK, ICK, ICON, JAVA, JS, LISP clisp, LISP sbcl, LUA, NEM, NICE, NODEJS, PAS fpc, PAS gpc, PERL, PERL6, PHP, PIKE, PRLG, PYPY, PYTH, PYTH 3.4, RUBY, SCALA, SCM chicken, SCM guile, SCM qobi, ST, TCL, TEXT, WSPC Languages: ADA, ASM, BASH, BF, C, C99 strict, CAML, CLOJ, CLPS, CPP 4.3.2, CPP 4.9.2, CPP14, CS2, D, ERL, FORT, FS, GO, HASK, ICK, ICON, JAVA, JS, LISP clisp, LISP sbcl, LUA, NEM, NICE, NODEJS, PAS fpc, PAS gpc, PERL, PERL6, PHP, PIKE, PRLG, PYPY, PYTH, PYTH 3.4, RUBY, SCALA, SCM chicken, SCM guile, SCM qobi, ST, TCL, TEXT, WSPC SUBMIT  SUBMIT SUBMIT SUCCESSFUL SUBMISSIONS SUCCESSFUL SUBMISSIONS SUCCESSFUL SUBMISSIONS SUCCESSFUL SUBMISSIONS SUCCESSFUL SUBMISSIONS  
p9
sS'tags'
p10
V basic basics cakewalk constructions language ltime31 xcwgf666
p11
sS'url'
p12
Vhttps://www.codechef.com/problems/DISTCODE
p13
sS'statement'
p14
(lp15
VAll submissions for this problem are available.
p16
aVRead problems statements in Mandarin Chinese , Russian and Vietnamese as well.
p17
aVSergey recently learned about country codes - two letter strings, denoting countries. For example, BY stands for Belarus and IN stands for India. Mesmerized by this new discovery, Sergey now looks for country codes everywhere!
p18
aVSergey has recently found a string S consisting of uppercase Latin letters. He wants to find the number of different country codes that appear in S as contiguous substrings. For the purpose of this problem, consider that every 2-letter uppercase string is a valid country code.
p19
asS'input'
p20
(lp21
VInput
p22
aVThe first line of input contains an integer T denoting the number of test cases. The description of T test cases follows.
p23
aVThe first and only line of each test case contains a string S, consisting of uppercase Latin letters.
p24
aVOutput
p25
aVFor each test case, output a single line containing the number of different country codes appearing in the given string.
p26
asS'constraints'
p27
(lp28
VConstraints
p29
aV1 \u2264 T \u2264 100
p30
aVSubtask 1 (35 points): 2 \u2264 |S| \u2264 3
p31
aVSubtask 2 (65 points): 2 \u2264 |S| \u2264 104
p32
asS'id'
p33
c__builtin__
id
p34
sS'name'
p35
VDISTCODE
p36
sb.