(iproblems
Problem
p0
(dp1
S'time_limit'
p2
(lp3
VTime Limit: 1 sec
p4
asS'source_limit'
p5
(lp6
VSource Limit: 50000 Bytes
p7
asS'description'
p8
V All submissions for this problem are available.\u000aRead problems statements in Mandarin Chinese and Russian as well.\u000aYou have a string S consisting of N uppercase English letters. You are allowed to perform at most one operation of following kind: Choose any position in the string, remove the character at that position and insert it back to any other place in the string.\u000aFind the lexicographically smallest string you can achieve.\u000aInput\u000aThe first line of the input contains an integer T denoting the number of test cases. The description of T test cases follows.\u000aThe first line of each test case contains the single integer N denoting length of string S.\u000aThe second line contains the string S.\u000aOutput\u000aFor each test case, output a single line containing the answer to the corresponding test case.\u000aConstraints\u000a1 \u2264 T \u2264 50\u000a1 \u2264 N \u2264 50\u000aS will consist of uppercase English letters.\u000aExample\u000aInput:\u000a2\u000a4\u000aDCBA\u000a7\u000aXYZZYZZ\u000a\u000aOutput:\u000aADCB\u000aXYYZZZZ\u000aExplanation\u000aExample case 1. The optimal solution here is to choose the last character and put it in the beginning of the string. So the answer will be ADCB\u000aExample case 2. The optimal solution here is to choose the 5-th character (1-based index) and put it between the 2-nd and the 3-rd characters. So the answer will be XYYZZZZ\u000aAuthor: witua\u000aTester: iscsi\u000aEditorial: http://discuss.codechef.com/problems/DIVGOLD\u000aTags: cakewalk cook56 simulation sorting witua\u000aDate Added: 3-03-2015\u000aTime Limit: 1 sec\u000aSource Limit: 50000 Bytes\u000aLanguages: ADA, ASM, BASH, BF, C, C99 strict, CAML, CLOJ, CLPS, CPP 4.3.2, CPP 4.9.2, CPP14, CS2, D, ERL, FORT, FS, GO, HASK, ICK, ICON, JAVA, JS, LISP clisp, LISP sbcl, LUA, NEM, NICE, NODEJS, PAS fpc, PAS gpc, PERL, PERL6, PHP, PIKE, PRLG, PYPY, PYTH, PYTH 3.4, RUBY, SCALA, SCM chicken, SCM guile, SCM qobi, ST, TCL, TEXT, WSPC\u000aSUBMIT All submissions for this problem are available.\u000aRead problems statements in Mandarin Chinese and Russian as well.\u000aYou have a string S consisting of N uppercase English letters. You are allowed to perform at most one operation of following kind: Choose any position in the string, remove the character at that position and insert it back to any other place in the string.\u000aFind the lexicographically smallest string you can achieve.\u000aInput\u000aThe first line of the input contains an integer T denoting the number of test cases. The description of T test cases follows.\u000aThe first line of each test case contains the single integer N denoting length of string S.\u000aThe second line contains the string S.\u000aOutput\u000aFor each test case, output a single line containing the answer to the corresponding test case.\u000aConstraints\u000a1 \u2264 T \u2264 50\u000a1 \u2264 N \u2264 50\u000aS will consist of uppercase English letters.\u000aExample\u000aInput:\u000a2\u000a4\u000aDCBA\u000a7\u000aXYZZYZZ\u000a\u000aOutput:\u000aADCB\u000aXYYZZZZ\u000aExplanation\u000aExample case 1. The optimal solution here is to choose the last character and put it in the beginning of the string. So the answer will be ADCB\u000aExample case 2. The optimal solution here is to choose the 5-th character (1-based index) and put it between the 2-nd and the 3-rd characters. So the answer will be XYYZZZZ\u000aAuthor: witua\u000aTester: iscsi\u000aEditorial: http://discuss.codechef.com/problems/DIVGOLD\u000aTags: cakewalk cook56 simulation sorting witua\u000aDate Added: 3-03-2015\u000aTime Limit: 1 sec\u000aSource Limit: 50000 Bytes\u000aLanguages: ADA, ASM, BASH, BF, C, C99 strict, CAML, CLOJ, CLPS, CPP 4.3.2, CPP 4.9.2, CPP14, CS2, D, ERL, FORT, FS, GO, HASK, ICK, ICON, JAVA, JS, LISP clisp, LISP sbcl, LUA, NEM, NICE, NODEJS, PAS fpc, PAS gpc, PERL, PERL6, PHP, PIKE, PRLG, PYPY, PYTH, PYTH 3.4, RUBY, SCALA, SCM chicken, SCM guile, SCM qobi, ST, TCL, TEXT, WSPC All submissions for this problem are available. Read problems statements in Mandarin Chinese and Russian as well. Mandarin Chinese Russian You have a string S consisting of N uppercase English letters. You are allowed to perform at most one operation of following kind: Choose any position in the string, remove the character at that position and insert it back to any other place in the string. S N Find the lexicographically smallest string you can achieve. lexicographically smallest Input The first line of the input contains an integer T denoting the number of test cases. The description of T test cases follows. T T The first line of each test case contains the single integer N denoting length of string S. N S The second line contains the string S. S Output For each test case, output a single line containing the answer to the corresponding test case. Constraints 1 \u2264 T \u2264 50\u000a1 \u2264 N \u2264 50\u000aS will consist of uppercase English letters. 1 \u2264 T \u2264 50 1 T 50 1 \u2264 N \u2264 50 1 N 50 S will consist of uppercase English letters. S Example Input:\u000a2\u000a4\u000aDCBA\u000a7\u000aXYZZYZZ\u000a\u000aOutput:\u000aADCB\u000aXYYZZZZ Input: Output: Explanation Example case 1. The optimal solution here is to choose the last character and put it in the beginning of the string. So the answer will be ADCB Example case 1. ADCB Example case 2. The optimal solution here is to choose the 5-th character (1-based index) and put it between the 2-nd and the 3-rd characters. So the answer will be XYYZZZZ Example case 2. XYYZZZZ  Author: witua\u000aTester: iscsi\u000aEditorial: http://discuss.codechef.com/problems/DIVGOLD\u000aTags: cakewalk cook56 simulation sorting witua\u000aDate Added: 3-03-2015\u000aTime Limit: 1 sec\u000aSource Limit: 50000 Bytes\u000aLanguages: ADA, ASM, BASH, BF, C, C99 strict, CAML, CLOJ, CLPS, CPP 4.3.2, CPP 4.9.2, CPP14, CS2, D, ERL, FORT, FS, GO, HASK, ICK, ICON, JAVA, JS, LISP clisp, LISP sbcl, LUA, NEM, NICE, NODEJS, PAS fpc, PAS gpc, PERL, PERL6, PHP, PIKE, PRLG, PYPY, PYTH, PYTH 3.4, RUBY, SCALA, SCM chicken, SCM guile, SCM qobi, ST, TCL, TEXT, WSPC Author: witua\u000aTester: iscsi\u000aEditorial: http://discuss.codechef.com/problems/DIVGOLD\u000aTags: cakewalk cook56 simulation sorting witua\u000aDate Added: 3-03-2015\u000aTime Limit: 1 sec\u000aSource Limit: 50000 Bytes\u000aLanguages: ADA, ASM, BASH, BF, C, C99 strict, CAML, CLOJ, CLPS, CPP 4.3.2, CPP 4.9.2, CPP14, CS2, D, ERL, FORT, FS, GO, HASK, ICK, ICON, JAVA, JS, LISP clisp, LISP sbcl, LUA, NEM, NICE, NODEJS, PAS fpc, PAS gpc, PERL, PERL6, PHP, PIKE, PRLG, PYPY, PYTH, PYTH 3.4, RUBY, SCALA, SCM chicken, SCM guile, SCM qobi, ST, TCL, TEXT, WSPC Author: witua Author: witua witua Tester: iscsi Tester: iscsi iscsi Editorial: http://discuss.codechef.com/problems/DIVGOLD Editorial: http://discuss.codechef.com/problems/DIVGOLD http://discuss.codechef.com/problems/DIVGOLD Tags: cakewalk cook56 simulation sorting witua Tags: cakewalk cook56 simulation sorting witua cakewalk cook56 simulation sorting witua Date Added: 3-03-2015 Date Added: 3-03-2015 Time Limit: 1 sec Time Limit: 1 sec Source Limit: 50000 Bytes Source Limit: 50000 Bytes Languages: ADA, ASM, BASH, BF, C, C99 strict, CAML, CLOJ, CLPS, CPP 4.3.2, CPP 4.9.2, CPP14, CS2, D, ERL, FORT, FS, GO, HASK, ICK, ICON, JAVA, JS, LISP clisp, LISP sbcl, LUA, NEM, NICE, NODEJS, PAS fpc, PAS gpc, PERL, PERL6, PHP, PIKE, PRLG, PYPY, PYTH, PYTH 3.4, RUBY, SCALA, SCM chicken, SCM guile, SCM qobi, ST, TCL, TEXT, WSPC Languages: ADA, ASM, BASH, BF, C, C99 strict, CAML, CLOJ, CLPS, CPP 4.3.2, CPP 4.9.2, CPP14, CS2, D, ERL, FORT, FS, GO, HASK, ICK, ICON, JAVA, JS, LISP clisp, LISP sbcl, LUA, NEM, NICE, NODEJS, PAS fpc, PAS gpc, PERL, PERL6, PHP, PIKE, PRLG, PYPY, PYTH, PYTH 3.4, RUBY, SCALA, SCM chicken, SCM guile, SCM qobi, ST, TCL, TEXT, WSPC SUBMIT  SUBMIT SUBMIT SUCCESSFUL SUBMISSIONS SUCCESSFUL SUBMISSIONS SUCCESSFUL SUBMISSIONS SUCCESSFUL SUBMISSIONS SUCCESSFUL SUBMISSIONS  
p9
sS'tags'
p10
V cakewalk cook56 simulation sorting witua
p11
sS'url'
p12
Vhttps://www.codechef.com/problems/DIVGOLD
p13
sS'statement'
p14
(lp15
VAll submissions for this problem are available.
p16
aVRead problems statements in Mandarin Chinese and Russian as well.
p17
aVYou have a string S consisting of N uppercase English letters. You are allowed to perform at most one operation of following kind: Choose any position in the string, remove the character at that position and insert it back to any other place in the string.
p18
aVFind the lexicographically smallest string you can achieve.
p19
asS'input'
p20
(lp21
VInput
p22
aVThe first line of the input contains an integer T denoting the number of test cases. The description of T test cases follows.
p23
aVThe first line of each test case contains the single integer N denoting length of string S.
p24
aVThe second line contains the string S.
p25
aVOutput
p26
aVFor each test case, output a single line containing the answer to the corresponding test case.
p27
asS'constraints'
p28
(lp29
VConstraints
p30
aV1 \u2264 T \u2264 50
p31
aV1 \u2264 N \u2264 50
p32
aVS will consist of uppercase English letters.
p33
asS'id'
p34
c__builtin__
id
p35
sS'name'
p36
VDIVGOLD
p37
sb.