(iproblems
Problem
p0
(dp1
S'time_limit'
p2
(lp3
VTime Limit: 1 sec
p4
asS'source_limit'
p5
(lp6
VSource Limit: 50000 Bytes
p7
asS'description'
p8
V All submissions for this problem are available.\u000aRead problems statements in Mandarin Chinese , Russian and Vietnamese\u000aChef Zidane likes the number 9. He has a number N, and he wants to turn it into a multiple of 9. He cannot add or remove digits, and he can only change one digit at a time. The only allowed operation is to increment or decrement a digit by one, and doing this takes exactly one second. Note that he cannot increase a digit 9 or decrease a digit 0, and the resulting number must not contain any leading zeroes unless N has a single digit.\u000aChef Zidane wants to know the minimum amount of time (in seconds) needed to accomplish this. Please help him, before his kitchen gets overwhelmed with mist!\u000aInput\u000aThe first line of the input contains an integer T denoting the number of test cases. The description of T test cases follows.\u000aEach test case consists of one line containing a single positive integer N.\u000aOutput\u000aFor each test case, output a single line containing the answer.\u000aConstraints\u000a1 \u2264 T \u2264 105\u000a1 \u2264 N \u2264 10105\u000aN will not contain leading zeroes.\u000aEach test file is at most 3Mb in size.\u000aExample\u000aInput:\u000a4\u000a1989\u000a86236\u000a90210\u000a99999999999999999999999999999999999999988\u000a\u000a\u000aOutput:\u000a0\u000a2\u000a3\u000a2\u000aExplanation\u000aExample case 1. 1989 is already divisible by 9, so no operations are needed to be performed.\u000aExample case 2. 86236 can be turned into a multiple of 9 by incrementing the first and third digit (from the left), to get 96336. This takes 2 seconds.\u000aExample case 3. 90210 can be turned into a multiple of 9 by decrementing the third digit twice and the fourth digit once, to get 90000. This takes 3 seconds.\u000aAuthor: kevinsogo\u000aEditorial: http://discuss.codechef.com/problems/DIVNINE\u000aTags: kevinsogo snck15el\u000aDate Added: 3-06-2015\u000aTime Limit: 1 sec\u000aSource Limit: 50000 Bytes\u000aLanguages: ADA, ASM, BASH, BF, C, C99 strict, CAML, CLOJ, CLPS, CPP 4.3.2, CPP 4.9.2, CPP14, CS2, D, ERL, FORT, FS, GO, HASK, ICK, ICON, JAVA, JS, LISP clisp, LISP sbcl, LUA, NEM, NICE, NODEJS, PAS fpc, PAS gpc, PERL, PERL6, PHP, PIKE, PRLG, PYPY, PYTH, PYTH 3.4, RUBY, SCALA, SCM chicken, SCM guile, SCM qobi, ST, TCL, TEXT, WSPC\u000aSUBMIT All submissions for this problem are available.\u000aRead problems statements in Mandarin Chinese , Russian and Vietnamese\u000aChef Zidane likes the number 9. He has a number N, and he wants to turn it into a multiple of 9. He cannot add or remove digits, and he can only change one digit at a time. The only allowed operation is to increment or decrement a digit by one, and doing this takes exactly one second. Note that he cannot increase a digit 9 or decrease a digit 0, and the resulting number must not contain any leading zeroes unless N has a single digit.\u000aChef Zidane wants to know the minimum amount of time (in seconds) needed to accomplish this. Please help him, before his kitchen gets overwhelmed with mist!\u000aInput\u000aThe first line of the input contains an integer T denoting the number of test cases. The description of T test cases follows.\u000aEach test case consists of one line containing a single positive integer N.\u000aOutput\u000aFor each test case, output a single line containing the answer.\u000aConstraints\u000a1 \u2264 T \u2264 105\u000a1 \u2264 N \u2264 10105\u000aN will not contain leading zeroes.\u000aEach test file is at most 3Mb in size.\u000aExample\u000aInput:\u000a4\u000a1989\u000a86236\u000a90210\u000a99999999999999999999999999999999999999988\u000a\u000a\u000aOutput:\u000a0\u000a2\u000a3\u000a2\u000aExplanation\u000aExample case 1. 1989 is already divisible by 9, so no operations are needed to be performed.\u000aExample case 2. 86236 can be turned into a multiple of 9 by incrementing the first and third digit (from the left), to get 96336. This takes 2 seconds.\u000aExample case 3. 90210 can be turned into a multiple of 9 by decrementing the third digit twice and the fourth digit once, to get 90000. This takes 3 seconds.\u000aAuthor: kevinsogo\u000aEditorial: http://discuss.codechef.com/problems/DIVNINE\u000aTags: kevinsogo snck15el\u000aDate Added: 3-06-2015\u000aTime Limit: 1 sec\u000aSource Limit: 50000 Bytes\u000aLanguages: ADA, ASM, BASH, BF, C, C99 strict, CAML, CLOJ, CLPS, CPP 4.3.2, CPP 4.9.2, CPP14, CS2, D, ERL, FORT, FS, GO, HASK, ICK, ICON, JAVA, JS, LISP clisp, LISP sbcl, LUA, NEM, NICE, NODEJS, PAS fpc, PAS gpc, PERL, PERL6, PHP, PIKE, PRLG, PYPY, PYTH, PYTH 3.4, RUBY, SCALA, SCM chicken, SCM guile, SCM qobi, ST, TCL, TEXT, WSPC All submissions for this problem are available. Read problems statements in Mandarin Chinese , Russian and Vietnamese Mandarin Chinese Russian Vietnamese Chef Zidane likes the number 9. He has a number N, and he wants to turn it into a multiple of 9. He cannot add or remove digits, and he can only change one digit at a time. The only allowed operation is to increment or decrement a digit by one, and doing this takes exactly one second. Note that he cannot increase a digit 9 or decrease a digit 0, and the resulting number must not contain any leading zeroes unless N has a single digit. 9 N 9 9 0 N Chef Zidane wants to know the minimum amount of time (in seconds) needed to accomplish this. Please help him, before his kitchen gets overwhelmed with mist! Input The first line of the input contains an integer T denoting the number of test cases. The description of T test cases follows. T T Each test case consists of one line containing a single positive integer N. N Output For each test case, output a single line containing the answer. Constraints 1 \u2264 T \u2264 105\u000a1 \u2264 N \u2264 10105\u000aN will not contain leading zeroes.\u000aEach test file is at most 3Mb in size. 1 \u2264 T \u2264 105 1 T 105 5 1 \u2264 N \u2264 10105 1 N 10105 105 5 N will not contain leading zeroes. N Each test file is at most 3Mb in size.  Example Input:\u000a4\u000a1989\u000a86236\u000a90210\u000a99999999999999999999999999999999999999988\u000a\u000a\u000aOutput:\u000a0\u000a2\u000a3\u000a2 Input: 4\u000a1989\u000a86236\u000a90210\u000a99999999999999999999999999999999999999988 Output: 0\u000a2\u000a3\u000a2  Explanation Example case 1. 1989 is already divisible by 9, so no operations are needed to be performed. Example case 1. Example case 2. 86236 can be turned into a multiple of 9 by incrementing the first and third digit (from the left), to get 96336. This takes 2 seconds. Example case 2. Example case 3. 90210 can be turned into a multiple of 9 by decrementing the third digit twice and the fourth digit once, to get 90000. This takes 3 seconds. Example case 3.  Author: kevinsogo\u000aEditorial: http://discuss.codechef.com/problems/DIVNINE\u000aTags: kevinsogo snck15el\u000aDate Added: 3-06-2015\u000aTime Limit: 1 sec\u000aSource Limit: 50000 Bytes\u000aLanguages: ADA, ASM, BASH, BF, C, C99 strict, CAML, CLOJ, CLPS, CPP 4.3.2, CPP 4.9.2, CPP14, CS2, D, ERL, FORT, FS, GO, HASK, ICK, ICON, JAVA, JS, LISP clisp, LISP sbcl, LUA, NEM, NICE, NODEJS, PAS fpc, PAS gpc, PERL, PERL6, PHP, PIKE, PRLG, PYPY, PYTH, PYTH 3.4, RUBY, SCALA, SCM chicken, SCM guile, SCM qobi, ST, TCL, TEXT, WSPC Author: kevinsogo\u000aEditorial: http://discuss.codechef.com/problems/DIVNINE\u000aTags: kevinsogo snck15el\u000aDate Added: 3-06-2015\u000aTime Limit: 1 sec\u000aSource Limit: 50000 Bytes\u000aLanguages: ADA, ASM, BASH, BF, C, C99 strict, CAML, CLOJ, CLPS, CPP 4.3.2, CPP 4.9.2, CPP14, CS2, D, ERL, FORT, FS, GO, HASK, ICK, ICON, JAVA, JS, LISP clisp, LISP sbcl, LUA, NEM, NICE, NODEJS, PAS fpc, PAS gpc, PERL, PERL6, PHP, PIKE, PRLG, PYPY, PYTH, PYTH 3.4, RUBY, SCALA, SCM chicken, SCM guile, SCM qobi, ST, TCL, TEXT, WSPC Author: kevinsogo Author: kevinsogo kevinsogo Editorial: http://discuss.codechef.com/problems/DIVNINE Editorial: http://discuss.codechef.com/problems/DIVNINE http://discuss.codechef.com/problems/DIVNINE Tags: kevinsogo snck15el Tags: kevinsogo snck15el kevinsogo snck15el Date Added: 3-06-2015 Date Added: 3-06-2015 Time Limit: 1 sec Time Limit: 1 sec Source Limit: 50000 Bytes Source Limit: 50000 Bytes Languages: ADA, ASM, BASH, BF, C, C99 strict, CAML, CLOJ, CLPS, CPP 4.3.2, CPP 4.9.2, CPP14, CS2, D, ERL, FORT, FS, GO, HASK, ICK, ICON, JAVA, JS, LISP clisp, LISP sbcl, LUA, NEM, NICE, NODEJS, PAS fpc, PAS gpc, PERL, PERL6, PHP, PIKE, PRLG, PYPY, PYTH, PYTH 3.4, RUBY, SCALA, SCM chicken, SCM guile, SCM qobi, ST, TCL, TEXT, WSPC Languages: ADA, ASM, BASH, BF, C, C99 strict, CAML, CLOJ, CLPS, CPP 4.3.2, CPP 4.9.2, CPP14, CS2, D, ERL, FORT, FS, GO, HASK, ICK, ICON, JAVA, JS, LISP clisp, LISP sbcl, LUA, NEM, NICE, NODEJS, PAS fpc, PAS gpc, PERL, PERL6, PHP, PIKE, PRLG, PYPY, PYTH, PYTH 3.4, RUBY, SCALA, SCM chicken, SCM guile, SCM qobi, ST, TCL, TEXT, WSPC SUBMIT  SUBMIT SUBMIT SUCCESSFUL SUBMISSIONS SUCCESSFUL SUBMISSIONS SUCCESSFUL SUBMISSIONS SUCCESSFUL SUBMISSIONS SUCCESSFUL SUBMISSIONS  
p9
sS'tags'
p10
V kevinsogo snck15el
p11
sS'url'
p12
Vhttps://www.codechef.com/problems/DIVNINE
p13
sS'statement'
p14
(lp15
VAll submissions for this problem are available.
p16
aVRead problems statements in Mandarin Chinese , Russian and Vietnamese
p17
aVChef Zidane likes the number 9. He has a number N, and he wants to turn it into a multiple of 9. He cannot add or remove digits, and he can only change one digit at a time. The only allowed operation is to increment or decrement a digit by one, and doing this takes exactly one second. Note that he cannot increase a digit 9 or decrease a digit 0, and the resulting number must not contain any leading zeroes unless N has a single digit.
p18
aVChef Zidane wants to know the minimum amount of time (in seconds) needed to accomplish this. Please help him, before his kitchen gets overwhelmed with mist!
p19
asS'input'
p20
(lp21
VInput
p22
aVThe first line of the input contains an integer T denoting the number of test cases. The description of T test cases follows.
p23
aVEach test case consists of one line containing a single positive integer N.
p24
aVOutput
p25
aVFor each test case, output a single line containing the answer.
p26
asS'constraints'
p27
(lp28
VConstraints
p29
aV1 \u2264 T \u2264 105
p30
aV1 \u2264 N \u2264 10105
p31
aVN will not contain leading zeroes.
p32
aVEach test file is at most 3Mb in size.
p33
asS'id'
p34
c__builtin__
id
p35
sS'name'
p36
VDIVNINE
p37
sb.