(iproblems
Problem
p0
(dp1
S'time_limit'
p2
(lp3
VTime Limit: 1 sec
p4
asS'source_limit'
p5
(lp6
VSource Limit: 50000 Bytes
p7
asS'description'
p8
V All submissions for this problem are available.\u000aRead problems statements in Mandarin and Russian. Translations in Vietnamese to be uploaded soon.\u000aThere is new delicious item in Chef's menu - a doughnut chain. Doughnuts connected successively in line forming a chain.\u000a\u000aChain of 3 doughnuts\u000aChef has received an urgent order for making a chain of N doughnuts. He noticed that there are exactly N cooked doughnuts in the kitchen, some of which are already connected in chains. The only thing he needs to do is connect them in one chain.\u000aHe can cut one doughnut (from any position in a chain) into two halves and then use this cut doughnut to link two different chains.\u000aHelp Chef determine the minimum number of cuts needed to complete the order.\u000aInput\u000aThe first line of the input contains an integer T denoting the number of test cases.\u000aThe first line of each test case contains two integer N and M denoting the size of order and number of cooked chains respectively.\u000aThe second line contains M space-separated integers A1, A2, ..., AM denoting the size of the chains.\u000aIt is guaranteed that N is equal to the sum of all Ai's over 1<=i<=M.\u000aOutput\u000aFor each test case, output a single line containing an integer corresponding to the number of cuts needed Chef to make the order.\u000aConstraints and Subtasks\u000a1 \u2264 T \u2264 200\u000a1 \u2264 N \u2264 2*109\u000a1 \u2264 Ai \u2264 105\u000aSubtask 1: 10 points\u000a1 \u2264 M \u2264 2*104\u000aAi = 1\u000aSubtask 2: 30 points\u000a1 \u2264 M \u2264 100\u000aSubtask 3: 60 points\u000a1 \u2264 M \u2264 2*104\u000aExample\u000aInput:\u000a2\u000a11 3\u000a4 3 4\u000a6 3\u000a3 2 1\u000a\u000aOutput:\u000a2\u000a1\u000aExplanation\u000aExample 1: We could cut 2 doughnut from any "chain" and use them to connect chains to the one.\u000aFor example, let's cut it from the first chain. After this we will have chains of sizes 2, 3, 4 and two doughnuts that have been cut. So we could connect the first chain with second and second with third using these two doughnuts.\u000aExample 2: We cut doughnut from the last "chain" and connect the first two chains.\u000aImage for second example. Yellow doughnut has been cut.\u000aAuthor: m0stik\u000aTester: kevinsogo\u000aEditorial: http://discuss.codechef.com/problems/DONUTS\u000aTags: easy greedy m0stik sept15 sorting\u000aDate Added: 30-04-2015\u000aTime Limit: 1 sec\u000aSource Limit: 50000 Bytes\u000aLanguages: ADA, ASM, BASH, BF, C, C99 strict, CAML, CLOJ, CLPS, CPP 4.3.2, CPP 4.9.2, CPP14, CS2, D, ERL, FORT, FS, GO, HASK, ICK, ICON, JAVA, JS, LISP clisp, LISP sbcl, LUA, NEM, NICE, NODEJS, PAS fpc, PAS gpc, PERL, PERL6, PHP, PIKE, PRLG, PYPY, PYTH, PYTH 3.4, RUBY, SCALA, SCM chicken, SCM guile, SCM qobi, ST, TCL, TEXT, WSPC\u000aSUBMIT All submissions for this problem are available.\u000aRead problems statements in Mandarin and Russian. Translations in Vietnamese to be uploaded soon.\u000aThere is new delicious item in Chef's menu - a doughnut chain. Doughnuts connected successively in line forming a chain.\u000a\u000aChain of 3 doughnuts\u000aChef has received an urgent order for making a chain of N doughnuts. He noticed that there are exactly N cooked doughnuts in the kitchen, some of which are already connected in chains. The only thing he needs to do is connect them in one chain.\u000aHe can cut one doughnut (from any position in a chain) into two halves and then use this cut doughnut to link two different chains.\u000aHelp Chef determine the minimum number of cuts needed to complete the order.\u000aInput\u000aThe first line of the input contains an integer T denoting the number of test cases.\u000aThe first line of each test case contains two integer N and M denoting the size of order and number of cooked chains respectively.\u000aThe second line contains M space-separated integers A1, A2, ..., AM denoting the size of the chains.\u000aIt is guaranteed that N is equal to the sum of all Ai's over 1<=i<=M.\u000aOutput\u000aFor each test case, output a single line containing an integer corresponding to the number of cuts needed Chef to make the order.\u000aConstraints and Subtasks\u000a1 \u2264 T \u2264 200\u000a1 \u2264 N \u2264 2*109\u000a1 \u2264 Ai \u2264 105\u000aSubtask 1: 10 points\u000a1 \u2264 M \u2264 2*104\u000aAi = 1\u000aSubtask 2: 30 points\u000a1 \u2264 M \u2264 100\u000aSubtask 3: 60 points\u000a1 \u2264 M \u2264 2*104\u000aExample\u000aInput:\u000a2\u000a11 3\u000a4 3 4\u000a6 3\u000a3 2 1\u000a\u000aOutput:\u000a2\u000a1\u000aExplanation\u000aExample 1: We could cut 2 doughnut from any "chain" and use them to connect chains to the one.\u000aFor example, let's cut it from the first chain. After this we will have chains of sizes 2, 3, 4 and two doughnuts that have been cut. So we could connect the first chain with second and second with third using these two doughnuts.\u000aExample 2: We cut doughnut from the last "chain" and connect the first two chains.\u000aImage for second example. Yellow doughnut has been cut.\u000aAuthor: m0stik\u000aTester: kevinsogo\u000aEditorial: http://discuss.codechef.com/problems/DONUTS\u000aTags: easy greedy m0stik sept15 sorting\u000aDate Added: 30-04-2015\u000aTime Limit: 1 sec\u000aSource Limit: 50000 Bytes\u000aLanguages: ADA, ASM, BASH, BF, C, C99 strict, CAML, CLOJ, CLPS, CPP 4.3.2, CPP 4.9.2, CPP14, CS2, D, ERL, FORT, FS, GO, HASK, ICK, ICON, JAVA, JS, LISP clisp, LISP sbcl, LUA, NEM, NICE, NODEJS, PAS fpc, PAS gpc, PERL, PERL6, PHP, PIKE, PRLG, PYPY, PYTH, PYTH 3.4, RUBY, SCALA, SCM chicken, SCM guile, SCM qobi, ST, TCL, TEXT, WSPC All submissions for this problem are available. Read problems statements in Mandarin and Russian. Translations in Vietnamese to be uploaded soon. Mandarin Russian There is new delicious item in Chef's menu - a doughnut chain. Doughnuts connected successively in line forming a chain.      Chain of 3 doughnuts Chain of 3 doughnuts  Chef has received an urgent order for making a chain of N doughnuts. He noticed that there are exactly N cooked doughnuts in the kitchen, some of which are already connected in chains. The only thing he needs to do is connect them in one chain. N N He can cut one doughnut (from any position in a chain) into two halves and then use this cut doughnut to link two different chains.\u000aHelp Chef determine the minimum number of cuts needed to complete the order.  Input The first line of the input contains an integer T denoting the number of test cases.\u000aThe first line of each test case contains two integer N and M denoting the size of order and number of cooked chains respectively.\u000aThe second line contains M space-separated integers A1, A2, ..., AM denoting the size of the chains. The first line of the input contains an integer T denoting the number of test cases. T The first line of each test case contains two integer N and M denoting the size of order and number of cooked chains respectively. N M The second line contains M space-separated integers A1, A2, ..., AM denoting the size of the chains. M A1 1 A2 2 AM M It is guaranteed that N is equal to the sum of all Ai's over 1<=i<=M. It is guaranteed that N is equal to the sum of all Ai's over 1<=i<=M. N Ai i 1<=i<=M i Output For each test case, output a single line containing an integer corresponding to the number of cuts needed Chef to make the order. Constraints and Subtasks 1 \u2264 T \u2264 200\u000a1 \u2264 N \u2264 2*109\u000a1 \u2264 Ai \u2264 105 1 \u2264 T \u2264 200 1 T 200 1 \u2264 N \u2264 2*109 1 N 2*109 9 1 \u2264 Ai \u2264 105 1 Ai i 105 5 Subtask 1: 10 points Subtask 1: 10 points 1 \u2264 M \u2264 2*104\u000aAi = 1 1 \u2264 M \u2264 2*104 1 M 2*104 4 Ai = 1 Ai = 1 i Subtask 2: 30 points Subtask 2: 30 points 1 \u2264 M \u2264 100 1 \u2264 M \u2264 100 1 M 100 Subtask 3: 60 points Subtask 3: 60 points 1 \u2264 M \u2264 2*104 1 \u2264 M \u2264 2*104 1 M 2*104 4 Example Input:\u000a2\u000a11 3\u000a4 3 4\u000a6 3\u000a3 2 1\u000a\u000aOutput:\u000a2\u000a1 Input: Output: Explanation Example 1: We could cut 2 doughnut from any "chain" and use them to connect chains to the one.\u000aFor example, let's cut it from the first chain. After this we will have chains of sizes 2, 3, 4 and two doughnuts that have been cut. So we could connect the first chain with second and second with third using these two doughnuts. Example 1:   Example 2: We cut doughnut from the last "chain" and connect the first two chains. Example 2:   Image for second example. Yellow doughnut has been cut. Image for second example. Yellow doughnut has been cut.  Author: m0stik\u000aTester: kevinsogo\u000aEditorial: http://discuss.codechef.com/problems/DONUTS\u000aTags: easy greedy m0stik sept15 sorting\u000aDate Added: 30-04-2015\u000aTime Limit: 1 sec\u000aSource Limit: 50000 Bytes\u000aLanguages: ADA, ASM, BASH, BF, C, C99 strict, CAML, CLOJ, CLPS, CPP 4.3.2, CPP 4.9.2, CPP14, CS2, D, ERL, FORT, FS, GO, HASK, ICK, ICON, JAVA, JS, LISP clisp, LISP sbcl, LUA, NEM, NICE, NODEJS, PAS fpc, PAS gpc, PERL, PERL6, PHP, PIKE, PRLG, PYPY, PYTH, PYTH 3.4, RUBY, SCALA, SCM chicken, SCM guile, SCM qobi, ST, TCL, TEXT, WSPC Author: m0stik\u000aTester: kevinsogo\u000aEditorial: http://discuss.codechef.com/problems/DONUTS\u000aTags: easy greedy m0stik sept15 sorting\u000aDate Added: 30-04-2015\u000aTime Limit: 1 sec\u000aSource Limit: 50000 Bytes\u000aLanguages: ADA, ASM, BASH, BF, C, C99 strict, CAML, CLOJ, CLPS, CPP 4.3.2, CPP 4.9.2, CPP14, CS2, D, ERL, FORT, FS, GO, HASK, ICK, ICON, JAVA, JS, LISP clisp, LISP sbcl, LUA, NEM, NICE, NODEJS, PAS fpc, PAS gpc, PERL, PERL6, PHP, PIKE, PRLG, PYPY, PYTH, PYTH 3.4, RUBY, SCALA, SCM chicken, SCM guile, SCM qobi, ST, TCL, TEXT, WSPC Author: m0stik Author: m0stik m0stik Tester: kevinsogo Tester: kevinsogo kevinsogo Editorial: http://discuss.codechef.com/problems/DONUTS Editorial: http://discuss.codechef.com/problems/DONUTS http://discuss.codechef.com/problems/DONUTS Tags: easy greedy m0stik sept15 sorting Tags: easy greedy m0stik sept15 sorting easy greedy m0stik sept15 sorting Date Added: 30-04-2015 Date Added: 30-04-2015 Time Limit: 1 sec Time Limit: 1 sec Source Limit: 50000 Bytes Source Limit: 50000 Bytes Languages: ADA, ASM, BASH, BF, C, C99 strict, CAML, CLOJ, CLPS, CPP 4.3.2, CPP 4.9.2, CPP14, CS2, D, ERL, FORT, FS, GO, HASK, ICK, ICON, JAVA, JS, LISP clisp, LISP sbcl, LUA, NEM, NICE, NODEJS, PAS fpc, PAS gpc, PERL, PERL6, PHP, PIKE, PRLG, PYPY, PYTH, PYTH 3.4, RUBY, SCALA, SCM chicken, SCM guile, SCM qobi, ST, TCL, TEXT, WSPC Languages: ADA, ASM, BASH, BF, C, C99 strict, CAML, CLOJ, CLPS, CPP 4.3.2, CPP 4.9.2, CPP14, CS2, D, ERL, FORT, FS, GO, HASK, ICK, ICON, JAVA, JS, LISP clisp, LISP sbcl, LUA, NEM, NICE, NODEJS, PAS fpc, PAS gpc, PERL, PERL6, PHP, PIKE, PRLG, PYPY, PYTH, PYTH 3.4, RUBY, SCALA, SCM chicken, SCM guile, SCM qobi, ST, TCL, TEXT, WSPC SUBMIT  SUBMIT SUBMIT SUCCESSFUL SUBMISSIONS SUCCESSFUL SUBMISSIONS SUCCESSFUL SUBMISSIONS SUCCESSFUL SUBMISSIONS SUCCESSFUL SUBMISSIONS  
p9
sS'tags'
p10
V easy greedy m0stik sept15 sorting
p11
sS'url'
p12
Vhttps://www.codechef.com/problems/DONUTS
p13
sS'statement'
p14
(lp15
VAll submissions for this problem are available.
p16
aVRead problems statements in Mandarin and Russian. Translations in Vietnamese to be uploaded soon.
p17
aVThere is new delicious item in Chef's menu - a doughnut chain. Doughnuts connected successively in line forming a chain.
p18
aV
p19
aVChain of 3 doughnuts
p20
aVChef has received an urgent order for making a chain of N doughnuts. He noticed that there are exactly N cooked doughnuts in the kitchen, some of which are already connected in chains. The only thing he needs to do is connect them in one chain.
p21
aVHe can cut one doughnut (from any position in a chain) into two halves and then use this cut doughnut to link two different chains.
p22
aVHelp Chef determine the minimum number of cuts needed to complete the order.
p23
asS'input'
p24
(lp25
VInput
p26
aVThe first line of the input contains an integer T denoting the number of test cases.
p27
aVThe first line of each test case contains two integer N and M denoting the size of order and number of cooked chains respectively.
p28
aVThe second line contains M space-separated integers A1, A2, ..., AM denoting the size of the chains.
p29
aVIt is guaranteed that N is equal to the sum of all Ai's over 1<=i<=M.
p30
aVOutput
p31
aVFor each test case, output a single line containing an integer corresponding to the number of cuts needed Chef to make the order.
p32
asS'constraints'
p33
(lp34
VConstraints and Subtasks
p35
aV1 \u2264 T \u2264 200
p36
aV1 \u2264 N \u2264 2*109
p37
aV1 \u2264 Ai \u2264 105
p38
aVSubtask 1: 10 points
p39
aV1 \u2264 M \u2264 2*104
p40
aVAi = 1
p41
aVSubtask 2: 30 points
p42
aV1 \u2264 M \u2264 100
p43
aVSubtask 3: 60 points
p44
aV1 \u2264 M \u2264 2*104
p45
asS'id'
p46
c__builtin__
id
p47
sS'name'
p48
VDONUTS
p49
sb.