(iproblems
Problem
p0
(dp1
S'time_limit'
p2
(lp3
VTime Limit: 1.5 sec
p4
asS'source_limit'
p5
(lp6
VSource Limit: 50000 Bytes
p7
asS'description'
p8
V All submissions for this problem are available.\u000aRead problems statements in Mandarin Chinese and Russian.\u000aYour task is simple.\u000a\u000a\u000aYou need to find the value of\u000a.\u000a\u000a\u000aAs the value could be too large, output it modulo M.\u000aInput\u000aThe first contains an integer T, denoting the number of the test cases.\u000aThen there are T lines, each describing a single test case and contains two space separated integers N and M respectively.\u000aOutput\u000aFor each test case, output the value of summation modulo M on a separate line.\u000aConstraints\u000a1 \u2264 M \u2264 100000\u000aThere are two types of datasets:\u000a1 \u2264 N \u2264 106 , 1 \u2264 T \u2264 3000\u000a106 \u2264 N \u2264 1010 , 1 \u2264 T \u2264 30\u000aExample\u000aInput:\u000a1\u000a4 1000\u000a\u000aOutput:\u000a373\u000aExplanation\u000a14*4 + 24*2 + 34*1 + 44*1 = 373\u000aAuthor: devuy11\u000aTester: xcwgf666\u000aEditorial: http://discuss.codechef.com/problems/FLOORI4\u000aTags: adhoc devuy11 easy math sept14\u000aDate Added: 21-07-2014\u000aTime Limit: 1.5 sec\u000aSource Limit: 50000 Bytes\u000aLanguages: ADA, ASM, BASH, BF, C, C99 strict, CAML, CLOJ, CLPS, CPP 4.3.2, CPP 4.9.2, CPP14, CS2, D, ERL, FORT, FS, GO, HASK, ICK, ICON, JAVA, JS, LISP clisp, LISP sbcl, LUA, NEM, NICE, NODEJS, PAS fpc, PAS gpc, PERL, PERL6, PHP, PIKE, PRLG, PYTH, PYTH 3.4, RUBY, SCALA, SCM guile, SCM qobi, ST, TCL, TEXT, WSPC\u000aSUBMIT All submissions for this problem are available.\u000aRead problems statements in Mandarin Chinese and Russian.\u000aYour task is simple.\u000a\u000a\u000aYou need to find the value of\u000a.\u000a\u000a\u000aAs the value could be too large, output it modulo M.\u000aInput\u000aThe first contains an integer T, denoting the number of the test cases.\u000aThen there are T lines, each describing a single test case and contains two space separated integers N and M respectively.\u000aOutput\u000aFor each test case, output the value of summation modulo M on a separate line.\u000aConstraints\u000a1 \u2264 M \u2264 100000\u000aThere are two types of datasets:\u000a1 \u2264 N \u2264 106 , 1 \u2264 T \u2264 3000\u000a106 \u2264 N \u2264 1010 , 1 \u2264 T \u2264 30\u000aExample\u000aInput:\u000a1\u000a4 1000\u000a\u000aOutput:\u000a373\u000aExplanation\u000a14*4 + 24*2 + 34*1 + 44*1 = 373\u000aAuthor: devuy11\u000aTester: xcwgf666\u000aEditorial: http://discuss.codechef.com/problems/FLOORI4\u000aTags: adhoc devuy11 easy math sept14\u000aDate Added: 21-07-2014\u000aTime Limit: 1.5 sec\u000aSource Limit: 50000 Bytes\u000aLanguages: ADA, ASM, BASH, BF, C, C99 strict, CAML, CLOJ, CLPS, CPP 4.3.2, CPP 4.9.2, CPP14, CS2, D, ERL, FORT, FS, GO, HASK, ICK, ICON, JAVA, JS, LISP clisp, LISP sbcl, LUA, NEM, NICE, NODEJS, PAS fpc, PAS gpc, PERL, PERL6, PHP, PIKE, PRLG, PYTH, PYTH 3.4, RUBY, SCALA, SCM guile, SCM qobi, ST, TCL, TEXT, WSPC All submissions for this problem are available. Read problems statements in Mandarin Chinese and Russian. Mandarin Chinese Russian Your task is simple.\u000a\u000a\u000aYou need to find the value of\u000a.\u000a\u000a\u000aAs the value could be too large, output it modulo M.         M Input The first contains an integer T, denoting the number of the test cases. T Then there are T lines, each describing a single test case and contains two space separated integers N and M respectively. T N M Output For each test case, output the value of summation modulo M on a separate line. M Constraints 1 \u2264 M \u2264 100000 1 \u2264 M \u2264 100000 1 M 100000 There are two types of datasets: 1 \u2264 N \u2264 106 , 1 \u2264 T \u2264 3000\u000a106 \u2264 N \u2264 1010 , 1 \u2264 T \u2264 30 1 \u2264 N \u2264 106 , 1 \u2264 T \u2264 3000 1 N 106 6 1 T 3000 106 \u2264 N \u2264 1010 , 1 \u2264 T \u2264 30 106 6 N 1010 10 1 T 30 Example Input:\u000a1\u000a4 1000\u000a\u000aOutput:\u000a373 Input: Output: Explanation 14*4 + 24*2 + 34*1 + 44*1 = 373 4 4 4 4  Author: devuy11\u000aTester: xcwgf666\u000aEditorial: http://discuss.codechef.com/problems/FLOORI4\u000aTags: adhoc devuy11 easy math sept14\u000aDate Added: 21-07-2014\u000aTime Limit: 1.5 sec\u000aSource Limit: 50000 Bytes\u000aLanguages: ADA, ASM, BASH, BF, C, C99 strict, CAML, CLOJ, CLPS, CPP 4.3.2, CPP 4.9.2, CPP14, CS2, D, ERL, FORT, FS, GO, HASK, ICK, ICON, JAVA, JS, LISP clisp, LISP sbcl, LUA, NEM, NICE, NODEJS, PAS fpc, PAS gpc, PERL, PERL6, PHP, PIKE, PRLG, PYTH, PYTH 3.4, RUBY, SCALA, SCM guile, SCM qobi, ST, TCL, TEXT, WSPC Author: devuy11\u000aTester: xcwgf666\u000aEditorial: http://discuss.codechef.com/problems/FLOORI4\u000aTags: adhoc devuy11 easy math sept14\u000aDate Added: 21-07-2014\u000aTime Limit: 1.5 sec\u000aSource Limit: 50000 Bytes\u000aLanguages: ADA, ASM, BASH, BF, C, C99 strict, CAML, CLOJ, CLPS, CPP 4.3.2, CPP 4.9.2, CPP14, CS2, D, ERL, FORT, FS, GO, HASK, ICK, ICON, JAVA, JS, LISP clisp, LISP sbcl, LUA, NEM, NICE, NODEJS, PAS fpc, PAS gpc, PERL, PERL6, PHP, PIKE, PRLG, PYTH, PYTH 3.4, RUBY, SCALA, SCM guile, SCM qobi, ST, TCL, TEXT, WSPC Author: devuy11 Author: devuy11 devuy11 Tester: xcwgf666 Tester: xcwgf666 xcwgf666 Editorial: http://discuss.codechef.com/problems/FLOORI4 Editorial: http://discuss.codechef.com/problems/FLOORI4 http://discuss.codechef.com/problems/FLOORI4 Tags: adhoc devuy11 easy math sept14 Tags: adhoc devuy11 easy math sept14 adhoc devuy11 easy math sept14 Date Added: 21-07-2014 Date Added: 21-07-2014 Time Limit: 1.5 sec Time Limit: 1.5 sec Source Limit: 50000 Bytes Source Limit: 50000 Bytes Languages: ADA, ASM, BASH, BF, C, C99 strict, CAML, CLOJ, CLPS, CPP 4.3.2, CPP 4.9.2, CPP14, CS2, D, ERL, FORT, FS, GO, HASK, ICK, ICON, JAVA, JS, LISP clisp, LISP sbcl, LUA, NEM, NICE, NODEJS, PAS fpc, PAS gpc, PERL, PERL6, PHP, PIKE, PRLG, PYTH, PYTH 3.4, RUBY, SCALA, SCM guile, SCM qobi, ST, TCL, TEXT, WSPC Languages: ADA, ASM, BASH, BF, C, C99 strict, CAML, CLOJ, CLPS, CPP 4.3.2, CPP 4.9.2, CPP14, CS2, D, ERL, FORT, FS, GO, HASK, ICK, ICON, JAVA, JS, LISP clisp, LISP sbcl, LUA, NEM, NICE, NODEJS, PAS fpc, PAS gpc, PERL, PERL6, PHP, PIKE, PRLG, PYTH, PYTH 3.4, RUBY, SCALA, SCM guile, SCM qobi, ST, TCL, TEXT, WSPC SUBMIT  SUBMIT SUBMIT SUCCESSFUL SUBMISSIONS SUCCESSFUL SUBMISSIONS SUCCESSFUL SUBMISSIONS SUCCESSFUL SUBMISSIONS SUCCESSFUL SUBMISSIONS  
p9
sS'tags'
p10
V adhoc devuy11 easy math sept14
p11
sS'url'
p12
Vhttps://www.codechef.com/problems/FLOORI4
p13
sS'statement'
p14
(lp15
VAll submissions for this problem are available.
p16
aVRead problems statements in Mandarin Chinese and Russian.
p17
aVYour task is simple.
p18
aV
p19
ag19
aVYou need to find the value of
p20
aV.
p21
ag19
ag19
aVAs the value could be too large, output it modulo M.
p22
asS'input'
p23
(lp24
VInput
p25
aVThe first contains an integer T, denoting the number of the test cases.
p26
aVThen there are T lines, each describing a single test case and contains two space separated integers N and M respectively.
p27
aVOutput
p28
aVFor each test case, output the value of summation modulo M on a separate line.
p29
asS'constraints'
p30
(lp31
VConstraints
p32
aV1 \u2264 M \u2264 100000
p33
aVThere are two types of datasets:
p34
aV1 \u2264 N \u2264 106 , 1 \u2264 T \u2264 3000
p35
aV106 \u2264 N \u2264 1010 , 1 \u2264 T \u2264 30
p36
asS'id'
p37
c__builtin__
id
p38
sS'name'
p39
VFLOORI4
p40
sb.