(iproblems
Problem
p0
(dp1
S'time_limit'
p2
(lp3
VTime Limit: 2 sec
p4
asS'source_limit'
p5
(lp6
VSource Limit: 50000 Bytes
p7
asS'description'
p8
V All submissions for this problem are available.\u000aRead problems statements in Mandarin Chinese, Russian and Vietnamese as well.\u000aYou are given two integer arrays A and B each of size N. Let us define interaction of arrays A and B to be the sum of A[i] * B[i] for each i from 1 to N.\u000aYou want to maximize the value of interaction of the arrays. You are allowed to make at most K (possibly zero) operations of following kind.\u000aIn a single operation, you can increase or decrease any of the elements of array A by 1.\u000aFind out the maximum value of interaction of the arrays that you can get.\u000aInput\u000aThe first line of input contains a single integer T denoting number of test cases.\u000aFor each test case:\u000aFirst line contains two space separated integers N, K.\u000aSecond line contains N space separated integers denoting array A.\u000aThird line contains N space separated integers denoting array B.\u000aOutput\u000aFor each test case, output a single integer denoting the answer of the problem.\u000aConstraints\u000a1 \u2264 T \u2264 10\u000a1 \u2264 N \u2264 105\u000a0 \u2264 |A[i]|, |B[i]| \u2264 105\u000a0 \u2264 K \u2264 109\u000aSubtasks\u000aSubtask #1 : (25 points)\u000a1 \u2264 N \u2264 10\u000a0 \u2264 |A[i]|, |B[i]| \u2264 10\u000a0 \u2264 K \u2264 10\u000aSubtask #2 : (35 points)\u000a1 \u2264 N \u2264 1000\u000a0 \u2264 |A[i]|, |B[i]| \u2264 1000\u000a0 \u2264 K \u2264 105\u000aSubtask #3 : (40 points)\u000aNo additional constraints\u000aExample\u000aInput:\u000a2\u000a2 2\u000a1 2\u000a-2 3\u000a3 5\u000a1 2 -3\u000a-2 3 -5\u000a\u000aOutput:\u000a10\u000a44\u000aExplanation\u000aIn the first example,\u000ayou can increase value A[2] using two two operations. Now, A would be [1, 4]. The value of interaction will be 1 * -2 + 4 * 3 = -2 + 12 = 10.\u000aAuthor: admin2\u000aEditorial: http://discuss.codechef.com/problems/MAXISUM\u000aTags: admin2 algorithm march16 simple\u000aDate Added: 6-02-2016\u000aTime Limit: 2 sec\u000aSource Limit: 50000 Bytes\u000aLanguages: ADA, ASM, BASH, BF, C, C99 strict, CAML, CLOJ, CLPS, CPP 4.3.2, CPP 4.9.2, CPP14, CS2, D, ERL, FORT, FS, GO, HASK, ICK, ICON, JAVA, JS, LISP clisp, LISP sbcl, LUA, NEM, NICE, NODEJS, PAS fpc, PAS gpc, PERL, PERL6, PHP, PIKE, PRLG, PYPY, PYTH, PYTH 3.4, RUBY, SCALA, SCM chicken, SCM guile, SCM qobi, ST, TCL, TEXT, WSPC\u000aSUBMIT All submissions for this problem are available.\u000aRead problems statements in Mandarin Chinese, Russian and Vietnamese as well.\u000aYou are given two integer arrays A and B each of size N. Let us define interaction of arrays A and B to be the sum of A[i] * B[i] for each i from 1 to N.\u000aYou want to maximize the value of interaction of the arrays. You are allowed to make at most K (possibly zero) operations of following kind.\u000aIn a single operation, you can increase or decrease any of the elements of array A by 1.\u000aFind out the maximum value of interaction of the arrays that you can get.\u000aInput\u000aThe first line of input contains a single integer T denoting number of test cases.\u000aFor each test case:\u000aFirst line contains two space separated integers N, K.\u000aSecond line contains N space separated integers denoting array A.\u000aThird line contains N space separated integers denoting array B.\u000aOutput\u000aFor each test case, output a single integer denoting the answer of the problem.\u000aConstraints\u000a1 \u2264 T \u2264 10\u000a1 \u2264 N \u2264 105\u000a0 \u2264 |A[i]|, |B[i]| \u2264 105\u000a0 \u2264 K \u2264 109\u000aSubtasks\u000aSubtask #1 : (25 points)\u000a1 \u2264 N \u2264 10\u000a0 \u2264 |A[i]|, |B[i]| \u2264 10\u000a0 \u2264 K \u2264 10\u000aSubtask #2 : (35 points)\u000a1 \u2264 N \u2264 1000\u000a0 \u2264 |A[i]|, |B[i]| \u2264 1000\u000a0 \u2264 K \u2264 105\u000aSubtask #3 : (40 points)\u000aNo additional constraints\u000aExample\u000aInput:\u000a2\u000a2 2\u000a1 2\u000a-2 3\u000a3 5\u000a1 2 -3\u000a-2 3 -5\u000a\u000aOutput:\u000a10\u000a44\u000aExplanation\u000aIn the first example,\u000ayou can increase value A[2] using two two operations. Now, A would be [1, 4]. The value of interaction will be 1 * -2 + 4 * 3 = -2 + 12 = 10.\u000aAuthor: admin2\u000aEditorial: http://discuss.codechef.com/problems/MAXISUM\u000aTags: admin2 algorithm march16 simple\u000aDate Added: 6-02-2016\u000aTime Limit: 2 sec\u000aSource Limit: 50000 Bytes\u000aLanguages: ADA, ASM, BASH, BF, C, C99 strict, CAML, CLOJ, CLPS, CPP 4.3.2, CPP 4.9.2, CPP14, CS2, D, ERL, FORT, FS, GO, HASK, ICK, ICON, JAVA, JS, LISP clisp, LISP sbcl, LUA, NEM, NICE, NODEJS, PAS fpc, PAS gpc, PERL, PERL6, PHP, PIKE, PRLG, PYPY, PYTH, PYTH 3.4, RUBY, SCALA, SCM chicken, SCM guile, SCM qobi, ST, TCL, TEXT, WSPC All submissions for this problem are available. Read problems statements in Mandarin Chinese, Russian and Vietnamese as well. Mandarin Chinese Russian Vietnamese You are given two integer arrays A and B each of size N. Let us define interaction of arrays A and B to be the sum of A[i] * B[i] for each i from 1 to N. A B N interaction A B A[i] * B[i] i 1 N You want to maximize the value of interaction of the arrays. You are allowed to make at most K (possibly zero) operations of following kind. interaction K In a single operation, you can increase or decrease any of the elements of array A by 1. In a single operation, you can increase or decrease any of the elements of array A by 1. A 1 Find out the maximum value of interaction of the arrays that you can get. interaction Input The first line of input contains a single integer T denoting number of test cases.\u000aFor each test case:\u000aFirst line contains two space separated integers N, K.\u000aSecond line contains N space separated integers denoting array A.\u000aThird line contains N space separated integers denoting array B. The first line of input contains a single integer T denoting number of test cases. T For each test case:\u000aFirst line contains two space separated integers N, K.\u000aSecond line contains N space separated integers denoting array A.\u000aThird line contains N space separated integers denoting array B. First line contains two space separated integers N, K.\u000aSecond line contains N space separated integers denoting array A.\u000aThird line contains N space separated integers denoting array B. First line contains two space separated integers N, K. N, K Second line contains N space separated integers denoting array A. N A Third line contains N space separated integers denoting array B. N B Output For each test case, output a single integer denoting the answer of the problem. For each test case, output a single integer denoting the answer of the problem. Constraints 1 \u2264 T \u2264 10\u000a1 \u2264 N \u2264 105\u000a0 \u2264 |A[i]|, |B[i]| \u2264 105\u000a0 \u2264 K \u2264 109 1 \u2264 T \u2264 10 T 10 1 \u2264 N \u2264 105 N 105 5 0 \u2264 |A[i]|, |B[i]| \u2264 105 |A[i]|, |B[i]| 105 5 0 \u2264 K \u2264 109 K 109 9 Subtasks Subtask #1 : (25 points) Subtask #1 : (25 points) 1 \u2264 N \u2264 10\u000a0 \u2264 |A[i]|, |B[i]| \u2264 10\u000a0 \u2264 K \u2264 10 1 \u2264 N \u2264 10 N 10 0 \u2264 |A[i]|, |B[i]| \u2264 10 |A[i]|, |B[i]| 10 0 \u2264 K \u2264 10 K 10 Subtask #2 : (35 points) Subtask #2 : (35 points) 1 \u2264 N \u2264 1000\u000a0 \u2264 |A[i]|, |B[i]| \u2264 1000\u000a0 \u2264 K \u2264 105 1 \u2264 N \u2264 1000 N 1000 0 \u2264 |A[i]|, |B[i]| \u2264 1000 |A[i]|, |B[i]| 1000 0 \u2264 K \u2264 105 K 105 5 Subtask #3 : (40 points) Subtask #3 : (40 points) No additional constraints No additional constraints Example Input:\u000a2\u000a2 2\u000a1 2\u000a-2 3\u000a3 5\u000a1 2 -3\u000a-2 3 -5\u000a\u000aOutput:\u000a10\u000a44 Input: Output: Explanation In the first example,\u000ayou can increase value A[2] using two two operations. Now, A would be [1, 4]. The value of interaction will be 1 * -2 + 4 * 3 = -2 + 12 = 10. In the first example  A[2] A interaction  Author: admin2\u000aEditorial: http://discuss.codechef.com/problems/MAXISUM\u000aTags: admin2 algorithm march16 simple\u000aDate Added: 6-02-2016\u000aTime Limit: 2 sec\u000aSource Limit: 50000 Bytes\u000aLanguages: ADA, ASM, BASH, BF, C, C99 strict, CAML, CLOJ, CLPS, CPP 4.3.2, CPP 4.9.2, CPP14, CS2, D, ERL, FORT, FS, GO, HASK, ICK, ICON, JAVA, JS, LISP clisp, LISP sbcl, LUA, NEM, NICE, NODEJS, PAS fpc, PAS gpc, PERL, PERL6, PHP, PIKE, PRLG, PYPY, PYTH, PYTH 3.4, RUBY, SCALA, SCM chicken, SCM guile, SCM qobi, ST, TCL, TEXT, WSPC Author: admin2\u000aEditorial: http://discuss.codechef.com/problems/MAXISUM\u000aTags: admin2 algorithm march16 simple\u000aDate Added: 6-02-2016\u000aTime Limit: 2 sec\u000aSource Limit: 50000 Bytes\u000aLanguages: ADA, ASM, BASH, BF, C, C99 strict, CAML, CLOJ, CLPS, CPP 4.3.2, CPP 4.9.2, CPP14, CS2, D, ERL, FORT, FS, GO, HASK, ICK, ICON, JAVA, JS, LISP clisp, LISP sbcl, LUA, NEM, NICE, NODEJS, PAS fpc, PAS gpc, PERL, PERL6, PHP, PIKE, PRLG, PYPY, PYTH, PYTH 3.4, RUBY, SCALA, SCM chicken, SCM guile, SCM qobi, ST, TCL, TEXT, WSPC Author: admin2 Author: admin2 admin2 Editorial: http://discuss.codechef.com/problems/MAXISUM Editorial: http://discuss.codechef.com/problems/MAXISUM http://discuss.codechef.com/problems/MAXISUM Tags: admin2 algorithm march16 simple Tags: admin2 algorithm march16 simple admin2 algorithm march16 simple Date Added: 6-02-2016 Date Added: 6-02-2016 Time Limit: 2 sec Time Limit: 2 sec Source Limit: 50000 Bytes Source Limit: 50000 Bytes Languages: ADA, ASM, BASH, BF, C, C99 strict, CAML, CLOJ, CLPS, CPP 4.3.2, CPP 4.9.2, CPP14, CS2, D, ERL, FORT, FS, GO, HASK, ICK, ICON, JAVA, JS, LISP clisp, LISP sbcl, LUA, NEM, NICE, NODEJS, PAS fpc, PAS gpc, PERL, PERL6, PHP, PIKE, PRLG, PYPY, PYTH, PYTH 3.4, RUBY, SCALA, SCM chicken, SCM guile, SCM qobi, ST, TCL, TEXT, WSPC Languages: ADA, ASM, BASH, BF, C, C99 strict, CAML, CLOJ, CLPS, CPP 4.3.2, CPP 4.9.2, CPP14, CS2, D, ERL, FORT, FS, GO, HASK, ICK, ICON, JAVA, JS, LISP clisp, LISP sbcl, LUA, NEM, NICE, NODEJS, PAS fpc, PAS gpc, PERL, PERL6, PHP, PIKE, PRLG, PYPY, PYTH, PYTH 3.4, RUBY, SCALA, SCM chicken, SCM guile, SCM qobi, ST, TCL, TEXT, WSPC SUBMIT  SUBMIT SUBMIT SUCCESSFUL SUBMISSIONS SUCCESSFUL SUBMISSIONS SUCCESSFUL SUBMISSIONS SUCCESSFUL SUBMISSIONS SUCCESSFUL SUBMISSIONS  
p9
sS'tags'
p10
V admin2 algorithm march16 simple
p11
sS'url'
p12
Vhttps://www.codechef.com/problems/MAXISUM
p13
sS'statement'
p14
(lp15
VAll submissions for this problem are available.
p16
aVRead problems statements in Mandarin Chinese, Russian and Vietnamese as well.
p17
aVYou are given two integer arrays A and B each of size N. Let us define interaction of arrays A and B to be the sum of A[i] * B[i] for each i from 1 to N.
p18
aVYou want to maximize the value of interaction of the arrays. You are allowed to make at most K (possibly zero) operations of following kind.
p19
aVIn a single operation, you can increase or decrease any of the elements of array A by 1.
p20
aVFind out the maximum value of interaction of the arrays that you can get.
p21
asS'input'
p22
(lp23
VInput
p24
aVThe first line of input contains a single integer T denoting number of test cases.
p25
aVFor each test case:
p26
aVFirst line contains two space separated integers N, K.
p27
aVSecond line contains N space separated integers denoting array A.
p28
aVThird line contains N space separated integers denoting array B.
p29
aVOutput
p30
aVFor each test case, output a single integer denoting the answer of the problem.
p31
asS'constraints'
p32
(lp33
VConstraints
p34
aV1 \u2264 T \u2264 10
p35
aV1 \u2264 N \u2264 105
p36
aV0 \u2264 |A[i]|, |B[i]| \u2264 105
p37
aV0 \u2264 K \u2264 109
p38
aVSubtasks
p39
aVSubtask #1 : (25 points)
p40
aV1 \u2264 N \u2264 10
p41
aV0 \u2264 |A[i]|, |B[i]| \u2264 10
p42
aV0 \u2264 K \u2264 10
p43
aVSubtask #2 : (35 points)
p44
aV1 \u2264 N \u2264 1000
p45
aV0 \u2264 |A[i]|, |B[i]| \u2264 1000
p46
aV0 \u2264 K \u2264 105
p47
aVSubtask #3 : (40 points)
p48
aVNo additional constraints
p49
asS'id'
p50
c__builtin__
id
p51
sS'name'
p52
VMAXISUM
p53
sb.