(iproblems
Problem
p0
(dp1
S'time_limit'
p2
(lp3
VTime Limit: 1 sec
p4
asS'source_limit'
p5
(lp6
VSource Limit: 50000 Bytes
p7
asS'description'
p8
V All submissions for this problem are available.\u000aRead problems statements in Mandarin Chinese and Russian.\u000a  Chef loves arrays. But he really loves a specific kind of them - Rainbow Arrays.\u000aThe array is a Rainbow Array if it has such a structure:\u000aThe first a1 elements equal to 1.\u000aThe next a2 elements equal to 2.\u000aThe next a3 elements equal to 3.\u000aThe next a4 elements equal to 4.\u000aThe next a5 elements equal to 5.\u000aThe next a6 elements equal to 6.\u000aThe next a7 elements equal to 7.\u000aThe next a6 elements equal to 6.\u000aThe next a5 elements equal to 5.\u000aThe next a4 elements equal to 4.\u000aThe next a3 elements equal to 3.\u000aThe next a2 elements equal to 2.\u000aThe next a1 elements equal to 1.\u000aai is a positive integer, the variables with the same index (a1 in the first statement and a1 in the last one, for example) are equal.\u000aThere are no any other elements in array.\u000aFor example, {1,1,2,2,2,3,4,5,5,6,7,7,7,6,5,5,4,3,2,2,2,1,1} is a Rainbow Array.\u000aThe array {1,2,3,4,5,6,7,6,6,5,4,3,2,1} is not a Rainbow Array, because the sizes of the blocks with the element 6 are different.\u000aPlease help Chef to count the number of different Rainbow Arrays that contain exactly N elements.\u000aInput\u000aThe first line contains a single integer N.\u000aOutput\u000aOutput the number of different Rainbow Arrays with N elements, modulo 10^9+7.\u000aConstraints\u000a1 \u2264 N \u2264 106\u000a  Example\u000aInput #1:\u000a10 \u000a\u000aOutput #1:\u000a0\u000aInput #2:\u000a13\u000a\u000aOutput #2:\u000a1\u000aInput #3:\u000a14\u000a\u000aOutput #3:\u000a1\u000aInput #4:\u000a15\u000a\u000aOutput #4:\u000a7\u000a \u000a Author: berezin\u000aTester: xcwgf666\u000aEditorial: http://discuss.codechef.com/problems/RAINBOWB\u000aTags: berezin combinations math sept14 simple\u000aDate Added: 17-03-2014\u000aTime Limit: 1 sec\u000aSource Limit: 50000 Bytes\u000aLanguages: ADA, ASM, BASH, BF, C, C99 strict, CAML, CLOJ, CLPS, CPP 4.3.2, CPP 4.9.2, CPP14, CS2, D, ERL, FORT, FS, GO, HASK, ICK, ICON, JAVA, JS, LISP clisp, LISP sbcl, LUA, NEM, NICE, NODEJS, PAS fpc, PAS gpc, PERL, PERL6, PHP, PIKE, PRLG, PYTH, PYTH 3.4, RUBY, SCALA, SCM guile, SCM qobi, ST, TCL, TEXT, WSPC\u000aSUBMIT All submissions for this problem are available.\u000aRead problems statements in Mandarin Chinese and Russian.\u000a  Chef loves arrays. But he really loves a specific kind of them - Rainbow Arrays.\u000aThe array is a Rainbow Array if it has such a structure:\u000aThe first a1 elements equal to 1.\u000aThe next a2 elements equal to 2.\u000aThe next a3 elements equal to 3.\u000aThe next a4 elements equal to 4.\u000aThe next a5 elements equal to 5.\u000aThe next a6 elements equal to 6.\u000aThe next a7 elements equal to 7.\u000aThe next a6 elements equal to 6.\u000aThe next a5 elements equal to 5.\u000aThe next a4 elements equal to 4.\u000aThe next a3 elements equal to 3.\u000aThe next a2 elements equal to 2.\u000aThe next a1 elements equal to 1.\u000aai is a positive integer, the variables with the same index (a1 in the first statement and a1 in the last one, for example) are equal.\u000aThere are no any other elements in array.\u000aFor example, {1,1,2,2,2,3,4,5,5,6,7,7,7,6,5,5,4,3,2,2,2,1,1} is a Rainbow Array.\u000aThe array {1,2,3,4,5,6,7,6,6,5,4,3,2,1} is not a Rainbow Array, because the sizes of the blocks with the element 6 are different.\u000aPlease help Chef to count the number of different Rainbow Arrays that contain exactly N elements.\u000aInput\u000aThe first line contains a single integer N.\u000aOutput\u000aOutput the number of different Rainbow Arrays with N elements, modulo 10^9+7.\u000aConstraints\u000a1 \u2264 N \u2264 106\u000a  Example\u000aInput #1:\u000a10 \u000a\u000aOutput #1:\u000a0\u000aInput #2:\u000a13\u000a\u000aOutput #2:\u000a1\u000aInput #3:\u000a14\u000a\u000aOutput #3:\u000a1\u000aInput #4:\u000a15\u000a\u000aOutput #4:\u000a7\u000a \u000a Author: berezin\u000aTester: xcwgf666\u000aEditorial: http://discuss.codechef.com/problems/RAINBOWB\u000aTags: berezin combinations math sept14 simple\u000aDate Added: 17-03-2014\u000aTime Limit: 1 sec\u000aSource Limit: 50000 Bytes\u000aLanguages: ADA, ASM, BASH, BF, C, C99 strict, CAML, CLOJ, CLPS, CPP 4.3.2, CPP 4.9.2, CPP14, CS2, D, ERL, FORT, FS, GO, HASK, ICK, ICON, JAVA, JS, LISP clisp, LISP sbcl, LUA, NEM, NICE, NODEJS, PAS fpc, PAS gpc, PERL, PERL6, PHP, PIKE, PRLG, PYTH, PYTH 3.4, RUBY, SCALA, SCM guile, SCM qobi, ST, TCL, TEXT, WSPC All submissions for this problem are available. Read problems statements in Mandarin Chinese and Russian. Mandarin Chinese Russian   Chef loves arrays. But he really loves a specific kind of them - Rainbow Arrays. Rainbow Arrays The array is a Rainbow Array if it has such a structure: Rainbow Array The first a1 elements equal to 1.\u000aThe next a2 elements equal to 2.\u000aThe next a3 elements equal to 3.\u000aThe next a4 elements equal to 4.\u000aThe next a5 elements equal to 5.\u000aThe next a6 elements equal to 6.\u000aThe next a7 elements equal to 7.\u000aThe next a6 elements equal to 6.\u000aThe next a5 elements equal to 5.\u000aThe next a4 elements equal to 4.\u000aThe next a3 elements equal to 3.\u000aThe next a2 elements equal to 2.\u000aThe next a1 elements equal to 1.\u000aai is a positive integer, the variables with the same index (a1 in the first statement and a1 in the last one, for example) are equal.\u000aThere are no any other elements in array. The first a1 elements equal to 1. a1 1 1 The next a2 elements equal to 2. a2 2 2 The next a3 elements equal to 3. a3 3 3 The next a4 elements equal to 4. a4 4 4 The next a5 elements equal to 5. a5 5 5 The next a6 elements equal to 6. a6 6 6 The next a7 elements equal to 7. a7 7 7 The next a6 elements equal to 6. a6 6 6 The next a5 elements equal to 5. a5 5 5 The next a4 elements equal to 4. a4 4 4 The next a3 elements equal to 3. a3 3 3 The next a2 elements equal to 2. a2 2 2 The next a1 elements equal to 1. a1 1 1 ai is a positive integer, the variables with the same index (a1 in the first statement and a1 in the last one, for example) are equal. ai i a1 1 a1 1 There are no any other elements in array. For example, {1,1,2,2,2,3,4,5,5,6,7,7,7,6,5,5,4,3,2,2,2,1,1} is a Rainbow Array.\u000aThe array {1,2,3,4,5,6,7,6,6,5,4,3,2,1} is not a Rainbow Array, because the sizes of the blocks with the element 6 are different. 1,1,2,2,2,3,4,5,5,6,7,7,7,6,5,5,4,3,2,2,2,1,1 Rainbow Array  1,2,3,4,5,6,7,6,6,5,4,3,2,1 Rainbow Array 6 Please help Chef to count the number of different Rainbow Arrays that contain exactly N elements. Rainbow Arrays N Input The first line contains a single integer N. N Output Output the number of different Rainbow Arrays with N elements, modulo 10^9+7. N 10^9+7 Constraints 1 \u2264 N \u2264 106 1 \u2264 N \u2264 106 1 N 106 6   Example Input #1:\u000a10 \u000a\u000aOutput #1:\u000a0\u000aInput #2:\u000a13\u000a\u000aOutput #2:\u000a1\u000aInput #3:\u000a14\u000a\u000aOutput #3:\u000a1\u000aInput #4:\u000a15\u000a\u000aOutput #4:\u000a7\u000a  Input #1: Output #1: Input #2:\u000a13\u000a\u000aOutput #2:\u000a1\u000aInput #3:\u000a14\u000a\u000aOutput #3:\u000a1\u000aInput #4:\u000a15\u000a\u000aOutput #4:\u000a7\u000a  Input #2: Output #2: Input #3:\u000a14\u000a\u000aOutput #3:\u000a1\u000aInput #4:\u000a15\u000a\u000aOutput #4:\u000a7\u000a  Input #3: Output #3: Input #4:\u000a15\u000a\u000aOutput #4:\u000a7 Input #4: Output #4:    Author: berezin\u000aTester: xcwgf666\u000aEditorial: http://discuss.codechef.com/problems/RAINBOWB\u000aTags: berezin combinations math sept14 simple\u000aDate Added: 17-03-2014\u000aTime Limit: 1 sec\u000aSource Limit: 50000 Bytes\u000aLanguages: ADA, ASM, BASH, BF, C, C99 strict, CAML, CLOJ, CLPS, CPP 4.3.2, CPP 4.9.2, CPP14, CS2, D, ERL, FORT, FS, GO, HASK, ICK, ICON, JAVA, JS, LISP clisp, LISP sbcl, LUA, NEM, NICE, NODEJS, PAS fpc, PAS gpc, PERL, PERL6, PHP, PIKE, PRLG, PYTH, PYTH 3.4, RUBY, SCALA, SCM guile, SCM qobi, ST, TCL, TEXT, WSPC Author: berezin\u000aTester: xcwgf666\u000aEditorial: http://discuss.codechef.com/problems/RAINBOWB\u000aTags: berezin combinations math sept14 simple\u000aDate Added: 17-03-2014\u000aTime Limit: 1 sec\u000aSource Limit: 50000 Bytes\u000aLanguages: ADA, ASM, BASH, BF, C, C99 strict, CAML, CLOJ, CLPS, CPP 4.3.2, CPP 4.9.2, CPP14, CS2, D, ERL, FORT, FS, GO, HASK, ICK, ICON, JAVA, JS, LISP clisp, LISP sbcl, LUA, NEM, NICE, NODEJS, PAS fpc, PAS gpc, PERL, PERL6, PHP, PIKE, PRLG, PYTH, PYTH 3.4, RUBY, SCALA, SCM guile, SCM qobi, ST, TCL, TEXT, WSPC Author: berezin Author: berezin berezin Tester: xcwgf666 Tester: xcwgf666 xcwgf666 Editorial: http://discuss.codechef.com/problems/RAINBOWB Editorial: http://discuss.codechef.com/problems/RAINBOWB http://discuss.codechef.com/problems/RAINBOWB Tags: berezin combinations math sept14 simple Tags: berezin combinations math sept14 simple berezin combinations math sept14 simple Date Added: 17-03-2014 Date Added: 17-03-2014 Time Limit: 1 sec Time Limit: 1 sec Source Limit: 50000 Bytes Source Limit: 50000 Bytes Languages: ADA, ASM, BASH, BF, C, C99 strict, CAML, CLOJ, CLPS, CPP 4.3.2, CPP 4.9.2, CPP14, CS2, D, ERL, FORT, FS, GO, HASK, ICK, ICON, JAVA, JS, LISP clisp, LISP sbcl, LUA, NEM, NICE, NODEJS, PAS fpc, PAS gpc, PERL, PERL6, PHP, PIKE, PRLG, PYTH, PYTH 3.4, RUBY, SCALA, SCM guile, SCM qobi, ST, TCL, TEXT, WSPC Languages: ADA, ASM, BASH, BF, C, C99 strict, CAML, CLOJ, CLPS, CPP 4.3.2, CPP 4.9.2, CPP14, CS2, D, ERL, FORT, FS, GO, HASK, ICK, ICON, JAVA, JS, LISP clisp, LISP sbcl, LUA, NEM, NICE, NODEJS, PAS fpc, PAS gpc, PERL, PERL6, PHP, PIKE, PRLG, PYTH, PYTH 3.4, RUBY, SCALA, SCM guile, SCM qobi, ST, TCL, TEXT, WSPC SUBMIT  SUBMIT SUBMIT SUCCESSFUL SUBMISSIONS SUCCESSFUL SUBMISSIONS SUCCESSFUL SUBMISSIONS SUCCESSFUL SUBMISSIONS SUCCESSFUL SUBMISSIONS  
p9
sS'tags'
p10
V berezin combinations math sept14 simple
p11
sS'url'
p12
Vhttps://www.codechef.com/problems/RAINBOWB
p13
sS'statement'
p14
(lp15
VAll submissions for this problem are available.
p16
aVRead problems statements in Mandarin Chinese and Russian.
p17
aVChef loves arrays. But he really loves a specific kind of them - Rainbow Arrays.
p18
aVThe array is a Rainbow Array if it has such a structure:
p19
aVThe first a1 elements equal to 1.
p20
aVThe next a2 elements equal to 2.
p21
aVThe next a3 elements equal to 3.
p22
aVThe next a4 elements equal to 4.
p23
aVThe next a5 elements equal to 5.
p24
aVThe next a6 elements equal to 6.
p25
aVThe next a7 elements equal to 7.
p26
aVThe next a6 elements equal to 6.
p27
aVThe next a5 elements equal to 5.
p28
aVThe next a4 elements equal to 4.
p29
aVThe next a3 elements equal to 3.
p30
aVThe next a2 elements equal to 2.
p31
aVThe next a1 elements equal to 1.
p32
aVai is a positive integer, the variables with the same index (a1 in the first statement and a1 in the last one, for example) are equal.
p33
aVThere are no any other elements in array.
p34
aVFor example, {1,1,2,2,2,3,4,5,5,6,7,7,7,6,5,5,4,3,2,2,2,1,1} is a Rainbow Array.
p35
aVThe array {1,2,3,4,5,6,7,6,6,5,4,3,2,1} is not a Rainbow Array, because the sizes of the blocks with the element 6 are different.
p36
aVPlease help Chef to count the number of different Rainbow Arrays that contain exactly N elements.
p37
asS'input'
p38
(lp39
VInput
p40
aVThe first line contains a single integer N.
p41
aVOutput
p42
aVOutput the number of different Rainbow Arrays with N elements, modulo 10^9+7.
p43
asS'constraints'
p44
(lp45
VConstraints
p46
aV1 \u2264 N \u2264 106
p47
asS'id'
p48
c__builtin__
id
p49
sS'name'
p50
VRAINBOWB
p51
sb.