(iproblems
Problem
p0
(dp1
S'time_limit'
p2
(lp3
VTime Limit: 1 sec
p4
asS'source_limit'
p5
(lp6
VSource Limit: 50000 Bytes
p7
asS'description'
p8
V All submissions for this problem are available.\u000aRead problems statements in Mandarin Chinese and Russian.\u000aAll bandits are afraid of Sheriff. Sheriff constantly fights crime, but when bandits lay low, he gets bored and starts to entertain himself.\u000aThis time Sheriff gathered all the bandits in his garden and ordered them to line up. After the whistle all bandits should change the order in which they stand.\u000aSheriff gave all the bandits numbers from 1 to N. For each place i he determined the unique position j. After whistling the bandit staying on position i should run to the j-th position. Sheriff loved seeing how the bandits move around, and he continued whistling until the evening. He finished the game only when he noticed that the bandits are in the same order in which they were standing originally.\u000aNow the Sheriff asks the question: How many times has he whistled?\u000a  Input\u000aThe first line of the input contains an integer T denoting the number of test cases. The description of T test cases follows.\u000aThe first line of each test case contains a single integer N denoting the number of bandits. The second line contains N space-separated integers A1, A2, ..., AN denoting that the bandit staying on position i should run to the Ai-th position after the whistle.\u000a  Output\u000aFor each test case, output a single line containing number of times the sheriff had to whistle, print it modulo 10^9 + 7.\u000a  Constraints\u000a1 \u2264 T \u2264 5\u000a1 \u2264 N \u2264 100000\u000aAll Ai are distinct numbers from 1 to N\u000a  Example\u000a \u000aInput:\u000a\u000a2\u000a3\u000a1 2 3\u000a5\u000a2 3 1 5 4\u000a\u000aOutput:\u000a\u000a1\u000a6\u000a  Explanation\u000a \u000aExample case 2.\u000athe bandits positions are:\u000a0. 1 2 3 4 5\u000a1. 3 1 2 5 4\u000a2. 2 3 1 4 5\u000a3. 1 2 3 5 4\u000a4. 3 1 2 4 5\u000a5. 2 3 1 5 4\u000a6. 1 2 3 4 5.\u000aAuthor: berezin\u000aEditorial: http://discuss.codechef.com/problems/SGARDEN\u000aTags: berezin easy july14 lcm\u000aDate Added: 22-01-2014\u000aTime Limit: 1 sec\u000aSource Limit: 50000 Bytes\u000aLanguages: ADA, ASM, BASH, BF, C, C99 strict, CAML, CLOJ, CLPS, CPP 4.3.2, CPP 4.9.2, CPP14, CS2, D, ERL, FORT, FS, GO, HASK, ICK, ICON, JAVA, JS, LISP clisp, LISP sbcl, LUA, NEM, NICE, NODEJS, PAS fpc, PAS gpc, PERL, PERL6, PHP, PIKE, PRLG, PYTH, PYTH 3.4, RUBY, SCALA, SCM guile, SCM qobi, ST, TCL, TEXT, WSPC\u000aSUBMIT All submissions for this problem are available.\u000aRead problems statements in Mandarin Chinese and Russian.\u000aAll bandits are afraid of Sheriff. Sheriff constantly fights crime, but when bandits lay low, he gets bored and starts to entertain himself.\u000aThis time Sheriff gathered all the bandits in his garden and ordered them to line up. After the whistle all bandits should change the order in which they stand.\u000aSheriff gave all the bandits numbers from 1 to N. For each place i he determined the unique position j. After whistling the bandit staying on position i should run to the j-th position. Sheriff loved seeing how the bandits move around, and he continued whistling until the evening. He finished the game only when he noticed that the bandits are in the same order in which they were standing originally.\u000aNow the Sheriff asks the question: How many times has he whistled?\u000a  Input\u000aThe first line of the input contains an integer T denoting the number of test cases. The description of T test cases follows.\u000aThe first line of each test case contains a single integer N denoting the number of bandits. The second line contains N space-separated integers A1, A2, ..., AN denoting that the bandit staying on position i should run to the Ai-th position after the whistle.\u000a  Output\u000aFor each test case, output a single line containing number of times the sheriff had to whistle, print it modulo 10^9 + 7.\u000a  Constraints\u000a1 \u2264 T \u2264 5\u000a1 \u2264 N \u2264 100000\u000aAll Ai are distinct numbers from 1 to N\u000a  Example\u000a \u000aInput:\u000a\u000a2\u000a3\u000a1 2 3\u000a5\u000a2 3 1 5 4\u000a\u000aOutput:\u000a\u000a1\u000a6\u000a  Explanation\u000a \u000aExample case 2.\u000athe bandits positions are:\u000a0. 1 2 3 4 5\u000a1. 3 1 2 5 4\u000a2. 2 3 1 4 5\u000a3. 1 2 3 5 4\u000a4. 3 1 2 4 5\u000a5. 2 3 1 5 4\u000a6. 1 2 3 4 5.\u000aAuthor: berezin\u000aEditorial: http://discuss.codechef.com/problems/SGARDEN\u000aTags: berezin easy july14 lcm\u000aDate Added: 22-01-2014\u000aTime Limit: 1 sec\u000aSource Limit: 50000 Bytes\u000aLanguages: ADA, ASM, BASH, BF, C, C99 strict, CAML, CLOJ, CLPS, CPP 4.3.2, CPP 4.9.2, CPP14, CS2, D, ERL, FORT, FS, GO, HASK, ICK, ICON, JAVA, JS, LISP clisp, LISP sbcl, LUA, NEM, NICE, NODEJS, PAS fpc, PAS gpc, PERL, PERL6, PHP, PIKE, PRLG, PYTH, PYTH 3.4, RUBY, SCALA, SCM guile, SCM qobi, ST, TCL, TEXT, WSPC All submissions for this problem are available. Read problems statements in Mandarin Chinese and Russian. Mandarin Chinese Russian All bandits are afraid of Sheriff. Sheriff constantly fights crime, but when bandits lay low, he gets bored and starts to entertain himself. This time Sheriff gathered all the bandits in his garden and ordered them to line up. After the whistle all bandits should change the order in which they stand. Sheriff gave all the bandits numbers from 1 to N. For each place i he determined the unique position j. After whistling the bandit staying on position i should run to the j-th position. Sheriff loved seeing how the bandits move around, and he continued whistling until the evening. He finished the game only when he noticed that the bandits are in the same order in which they were standing originally. i unique j i j Now the Sheriff asks the question: How many times has he whistled?   Input The first line of the input contains an integer T denoting the number of test cases. The description of T test cases follows.\u000aThe first line of each test case contains a single integer N denoting the number of bandits. The second line contains N space-separated integers A1, A2, ..., AN denoting that the bandit staying on position i should run to the Ai-th position after the whistle. The first line of the input contains an integer T denoting the number of test cases. The description of T test cases follows. T T The first line of each test case contains a single integer N denoting the number of bandits. The second line contains N space-separated integers A1, A2, ..., AN denoting that the bandit staying on position i should run to the Ai-th position after the whistle. N N A1 1 A2 2 AN N i Ai i   Output For each test case, output a single line containing number of times the sheriff had to whistle, print it modulo 10^9 + 7. For each test case, output a single line containing number of times the sheriff had to whistle, print it modulo 10^9 + 7.   Constraints 1 \u2264 T \u2264 5\u000a1 \u2264 N \u2264 100000\u000aAll Ai are distinct numbers from 1 to N 1 \u2264 T \u2264 5 1 T 5 1 \u2264 N \u2264 100000 1 N 100000 All Ai are distinct numbers from 1 to N Ai i 1 N   Example  \u000aInput:\u000a\u000a2\u000a3\u000a1 2 3\u000a5\u000a2 3 1 5 4\u000a\u000aOutput:\u000a\u000a1\u000a6 Input:\u000a\u000a2\u000a3\u000a1 2 3\u000a5\u000a2 3 1 5 4\u000a\u000aOutput:\u000a\u000a1\u000a6 Input: Output:   Explanation  \u000aExample case 2.\u000athe bandits positions are:\u000a0. 1 2 3 4 5\u000a1. 3 1 2 5 4\u000a2. 2 3 1 4 5\u000a3. 1 2 3 5 4\u000a4. 3 1 2 4 5\u000a5. 2 3 1 5 4\u000a6. 1 2 3 4 5. Example case 2.\u000athe bandits positions are:\u000a0. 1 2 3 4 5\u000a1. 3 1 2 5 4\u000a2. 2 3 1 4 5\u000a3. 1 2 3 5 4\u000a4. 3 1 2 4 5\u000a5. 2 3 1 5 4\u000a6. 1 2 3 4 5. Example case 2.  Author: berezin\u000aEditorial: http://discuss.codechef.com/problems/SGARDEN\u000aTags: berezin easy july14 lcm\u000aDate Added: 22-01-2014\u000aTime Limit: 1 sec\u000aSource Limit: 50000 Bytes\u000aLanguages: ADA, ASM, BASH, BF, C, C99 strict, CAML, CLOJ, CLPS, CPP 4.3.2, CPP 4.9.2, CPP14, CS2, D, ERL, FORT, FS, GO, HASK, ICK, ICON, JAVA, JS, LISP clisp, LISP sbcl, LUA, NEM, NICE, NODEJS, PAS fpc, PAS gpc, PERL, PERL6, PHP, PIKE, PRLG, PYTH, PYTH 3.4, RUBY, SCALA, SCM guile, SCM qobi, ST, TCL, TEXT, WSPC Author: berezin\u000aEditorial: http://discuss.codechef.com/problems/SGARDEN\u000aTags: berezin easy july14 lcm\u000aDate Added: 22-01-2014\u000aTime Limit: 1 sec\u000aSource Limit: 50000 Bytes\u000aLanguages: ADA, ASM, BASH, BF, C, C99 strict, CAML, CLOJ, CLPS, CPP 4.3.2, CPP 4.9.2, CPP14, CS2, D, ERL, FORT, FS, GO, HASK, ICK, ICON, JAVA, JS, LISP clisp, LISP sbcl, LUA, NEM, NICE, NODEJS, PAS fpc, PAS gpc, PERL, PERL6, PHP, PIKE, PRLG, PYTH, PYTH 3.4, RUBY, SCALA, SCM guile, SCM qobi, ST, TCL, TEXT, WSPC Author: berezin Author: berezin berezin Editorial: http://discuss.codechef.com/problems/SGARDEN Editorial: http://discuss.codechef.com/problems/SGARDEN http://discuss.codechef.com/problems/SGARDEN Tags: berezin easy july14 lcm Tags: berezin easy july14 lcm berezin easy july14 lcm Date Added: 22-01-2014 Date Added: 22-01-2014 Time Limit: 1 sec Time Limit: 1 sec Source Limit: 50000 Bytes Source Limit: 50000 Bytes Languages: ADA, ASM, BASH, BF, C, C99 strict, CAML, CLOJ, CLPS, CPP 4.3.2, CPP 4.9.2, CPP14, CS2, D, ERL, FORT, FS, GO, HASK, ICK, ICON, JAVA, JS, LISP clisp, LISP sbcl, LUA, NEM, NICE, NODEJS, PAS fpc, PAS gpc, PERL, PERL6, PHP, PIKE, PRLG, PYTH, PYTH 3.4, RUBY, SCALA, SCM guile, SCM qobi, ST, TCL, TEXT, WSPC Languages: ADA, ASM, BASH, BF, C, C99 strict, CAML, CLOJ, CLPS, CPP 4.3.2, CPP 4.9.2, CPP14, CS2, D, ERL, FORT, FS, GO, HASK, ICK, ICON, JAVA, JS, LISP clisp, LISP sbcl, LUA, NEM, NICE, NODEJS, PAS fpc, PAS gpc, PERL, PERL6, PHP, PIKE, PRLG, PYTH, PYTH 3.4, RUBY, SCALA, SCM guile, SCM qobi, ST, TCL, TEXT, WSPC SUBMIT  SUBMIT SUBMIT SUCCESSFUL SUBMISSIONS SUCCESSFUL SUBMISSIONS SUCCESSFUL SUBMISSIONS SUCCESSFUL SUBMISSIONS SUCCESSFUL SUBMISSIONS  
p9
sS'tags'
p10
V berezin easy july14 lcm
p11
sS'url'
p12
Vhttps://www.codechef.com/problems/SGARDEN
p13
sS'statement'
p14
(lp15
VAll submissions for this problem are available.
p16
aVRead problems statements in Mandarin Chinese and Russian.
p17
aVAll bandits are afraid of Sheriff. Sheriff constantly fights crime, but when bandits lay low, he gets bored and starts to entertain himself.
p18
aVThis time Sheriff gathered all the bandits in his garden and ordered them to line up. After the whistle all bandits should change the order in which they stand.
p19
aVSheriff gave all the bandits numbers from 1 to N. For each place i he determined the unique position j. After whistling the bandit staying on position i should run to the j-th position. Sheriff loved seeing how the bandits move around, and he continued whistling until the evening. He finished the game only when he noticed that the bandits are in the same order in which they were standing originally.
p20
aVNow the Sheriff asks the question: How many times has he whistled?
p21
asS'input'
p22
(lp23
VInput
p24
aVThe first line of the input contains an integer T denoting the number of test cases. The description of T test cases follows.
p25
aVThe first line of each test case contains a single integer N denoting the number of bandits. The second line contains N space-separated integers A1, A2, ..., AN denoting that the bandit staying on position i should run to the Ai-th position after the whistle.
p26
aVOutput
p27
aVFor each test case, output a single line containing number of times the sheriff had to whistle, print it modulo 10^9 + 7.
p28
asS'constraints'
p29
(lp30
VConstraints
p31
aV1 \u2264 T \u2264 5
p32
aV1 \u2264 N \u2264 100000
p33
aVAll Ai are distinct numbers from 1 to N
p34
asS'id'
p35
c__builtin__
id
p36
sS'name'
p37
VSGARDEN
p38
sb.