ccopy_reg
_reconstructor
p0
(csklearn.feature_extraction.text
CountVectorizer
p1
c__builtin__
object
p2
Ntp3
Rp4
(dp5
S'decode_error'
p6
Vstrict
p7
sS'lowercase'
p8
I01
sS'stop_words'
p9
NsS'vocabulary'
p10
NsS'tokenizer'
p11
NsS'encoding'
p12
Vutf-8
p13
sS'token_pattern'
p14
V(?u)\u005cb\u005cw\u005cw+\u005cb
p15
sS'max_df'
p16
F1.0
sS'fixed_vocabulary_'
p17
I00
sS'analyzer'
p18
Vword
p19
sS'vocabulary_'
p20
(dp21
Vlimited
p22
cnumpy.core.multiarray
scalar
p23
(cnumpy
dtype
p24
(S'i4'
p25
I0
I1
tp26
Rp27
(I3
S'<'
p28
NNNI-1
I-1
I0
tp29
bS'\x86\x05\x00\x00'
p30
tp31
Rp32
sVsimilarity
p33
g23
(g27
S'n\x08\x00\x00'
p34
tp35
Rp36
sVall
p37
g23
(g27
S'\x96\x00\x00\x00'
p38
tp39
Rp40
sVyellow
p41
g23
(g27
S'b\n\x00\x00'
p42
tp43
Rp44
sVfour
p45
g23
(g27
S'\x15\x04\x00\x00'
p46
tp47
Rp48
sVsleep
p49
g23
(g27
S'\x80\x08\x00\x00'
p50
tp51
Rp52
sVconsists
p53
g23
(g27
S'I\x02\x00\x00'
p54
tp55
Rp56
sVcaptain
p57
g23
(g27
S'\x9a\x01\x00\x00'
p58
tp59
Rp60
sVsaved
p61
g23
(g27
S'\x15\x08\x00\x00'
p62
tp63
Rp64
sVequiprobable
p65
g23
(g27
S'w\x03\x00\x00'
p66
tp67
Rp68
sVwhose
p69
g23
(g27
S'"\n\x00\x00'
p70
tp71
Rp72
sVcalculate
p73
g23
(g27
S'\x8a\x01\x00\x00'
p74
tp75
Rp76
sVlinguini
p77
g23
(g27
S'\x8a\x05\x00\x00'
p78
tp79
Rp80
sVparis
p81
g23
(g27
S'\xbc\x06\x00\x00'
p82
tp83
Rp84
sVsegments
p85
g23
(g27
S'2\x08\x00\x00'
p86
tp87
Rp88
sVlist
p89
g23
(g27
S'\x8e\x05\x00\x00'
p90
tp91
Rp92
sVbike
p93
g23
(g27
S':\x01\x00\x00'
p94
tp95
Rp96
sVswap
p97
g23
(g27
S'\x05\t\x00\x00'
p98
tp99
Rp100
sVabra
p101
g23
(g27
S']\x00\x00\x00'
p102
tp103
Rp104
sVlord
p105
g23
(g27
S'\xa6\x05\x00\x00'
p106
tp107
Rp108
sVworth
p109
g23
(g27
S'F\n\x00\x00'
p110
tp111
Rp112
sVxth
p113
g23
(g27
S'Y\n\x00\x00'
p114
tp115
Rp116
sVdigit
p117
g23
(g27
S'\xfb\x02\x00\x00'
p118
tp119
Rp120
sVrescue
p121
g23
(g27
S'\xc2\x07\x00\x00'
p122
tp123
Rp124
sVactivation
p125
g23
(g27
S'o\x00\x00\x00'
p126
tp127
Rp128
sVconnects
p129
g23
(g27
S'?\x02\x00\x00'
p130
tp131
Rp132
sVevery
p133
g23
(g27
S'\x88\x03\x00\x00'
p134
tp135
Rp136
sVaffect
p137
g23
(g27
S'\x80\x00\x00\x00'
p138
tp139
Rp140
sVbringing
p141
g23
(g27
S'c\x01\x00\x00'
p142
tp143
Rp144
sVtickets
p145
g23
(g27
S'O\t\x00\x00'
p146
tp147
Rp148
sVschool
p149
g23
(g27
S'\x1c\x08\x00\x00'
p150
tp151
Rp152
sVastral
p153
g23
(g27
S'\xec\x00\x00\x00'
p154
tp155
Rp156
sVinternally
p157
g23
(g27
S'\xf8\x04\x00\x00'
p158
tp159
Rp160
sVprogression
p161
g23
(g27
S':\x07\x00\x00'
p162
tp163
Rp164
sVinvestigator
p165
g23
(g27
S'\x0b\x05\x00\x00'
p166
tp167
Rp168
sVwooden
p169
g23
(g27
S'=\n\x00\x00'
p170
tp171
Rp172
sVsolution
p173
g23
(g27
S'\x88\x08\x00\x00'
p174
tp175
Rp176
sVvector
p177
g23
(g27
S'\xdf\t\x00\x00'
p178
tp179
Rp180
sVannounced
p181
g23
(g27
S'\xb2\x00\x00\x00'
p182
tp183
Rp184
sVindices
p185
g23
(g27
S'\xd7\x04\x00\x00'
p186
tp187
Rp188
sVenjoy
p189
g23
(g27
S'f\x03\x00\x00'
p190
tp191
Rp192
sVchew
p193
g23
(g27
S'\xcc\x01\x00\x00'
p194
tp195
Rp196
sV10n
p197
g23
(g27
S'\x11\x00\x00\x00'
p198
tp199
Rp200
sVtired
p201
g23
(g27
S'V\t\x00\x00'
p202
tp203
Rp204
sVchef
p205
g23
(g27
S'\xc3\x01\x00\x00'
p206
tp207
Rp208
sVdish
p209
g23
(g27
S'\x13\x03\x00\x00'
p210
tp211
Rp212
sVsecond
p213
g23
(g27
S'&\x08\x00\x00'
p214
tp215
Rp216
sVeven
p217
g23
(g27
S'\x83\x03\x00\x00'
p218
tp219
Rp220
sVcooking
p221
g23
(g27
S'h\x02\x00\x00'
p222
tp223
Rp224
sVwhile
p225
g23
(g27
S'\x1f\n\x00\x00'
p226
tp227
Rp228
sVsupplied
p229
g23
(g27
S'\xfd\x08\x00\x00'
p230
tp231
Rp232
sVommunity
p233
g23
(g27
S'\x80\x06\x00\x00'
p234
tp235
Rp236
sVabove
p237
g23
(g27
S'\\\x00\x00\x00'
p238
tp239
Rp240
sVconduct
p241
g23
(g27
S'5\x02\x00\x00'
p242
tp243
Rp244
sVnew
p245
g23
(g27
S'S\x06\x00\x00'
p246
tp247
Rp248
sVincreasing
p249
g23
(g27
S'\xd0\x04\x00\x00'
p250
tp251
Rp252
sVever
p253
g23
(g27
S'\x87\x03\x00\x00'
p254
tp255
Rp256
sVconsisting
p257
g23
(g27
S'H\x02\x00\x00'
p258
tp259
Rp260
sVtold
p261
g23
(g27
S'_\t\x00\x00'
p262
tp263
Rp264
sVspecialist
p265
g23
(g27
S'\x9e\x08\x00\x00'
p266
tp267
Rp268
sVextremly
p269
g23
(g27
S'\xac\x03\x00\x00'
p270
tp271
Rp272
sVjems
p273
g23
(g27
S' \x05\x00\x00'
p274
tp275
Rp276
sVsimultaneously
p277
g23
(g27
S's\x08\x00\x00'
p278
tp279
Rp280
sVnever
p281
g23
(g27
S'R\x06\x00\x00'
p282
tp283
Rp284
sVequals
p285
g23
(g27
S't\x03\x00\x00'
p286
tp287
Rp288
sVmet
p289
g23
(g27
S'\xf8\x05\x00\x00'
p290
tp291
Rp292
sV108
p293
g23
(g27
S'\x0f\x00\x00\x00'
p294
tp295
Rp296
sV109
p297
g23
(g27
S'\x10\x00\x00\x00'
p298
tp299
Rp300
sVchina
p301
g23
(g27
S'\xd2\x01\x00\x00'
p302
tp303
Rp304
sV102
p305
g23
(g27
S'\x0b\x00\x00\x00'
p306
tp307
Rp308
sVpath
p309
g23
(g27
S'\xc8\x06\x00\x00'
p310
tp311
Rp312
sV100
p313
g23
(g27
S'\x06\x00\x00\x00'
p314
tp315
Rp316
sV107
p317
g23
(g27
S'\x0e\x00\x00\x00'
p318
tp319
Rp320
sVgrowing
p321
g23
(g27
S'o\x04\x00\x00'
p322
tp323
Rp324
sV105
p325
g23
(g27
S'\r\x00\x00\x00'
p326
tp327
Rp328
sVdigits
p329
g23
(g27
S'\xfc\x02\x00\x00'
p330
tp331
Rp332
sVdaughter
p333
g23
(g27
S'\xa8\x02\x00\x00'
p334
tp335
Rp336
sVitems
p337
g23
(g27
S'\x18\x05\x00\x00'
p338
tp339
Rp340
sVstudy
p341
g23
(g27
S'\xe0\x08\x00\x00'
p342
tp343
Rp344
sVignoring
p345
g23
(g27
S'\xba\x04\x00\x00'
p346
tp347
Rp348
sVmilitary
p349
g23
(g27
S'\x01\x06\x00\x00'
p350
tp351
Rp352
sVsuitable
p353
g23
(g27
S'\xf8\x08\x00\x00'
p354
tp355
Rp356
sVchanges
p357
g23
(g27
S'\xbb\x01\x00\x00'
p358
tp359
Rp360
sVdevta
p361
g23
(g27
S'\xe9\x02\x00\x00'
p362
tp363
Rp364
sVdiameter
p365
g23
(g27
S'\xf3\x02\x00\x00'
p366
tp367
Rp368
sVprojection
p369
g23
(g27
S'=\x07\x00\x00'
p370
tp371
Rp372
sVstray
p373
g23
(g27
S'\xd4\x08\x00\x00'
p374
tp375
Rp376
sVseven
p377
g23
(g27
S'I\x08\x00\x00'
p378
tp379
Rp380
sVcounty
p381
g23
(g27
S'\x81\x02\x00\x00'
p382
tp383
Rp384
sVguests
p385
g23
(g27
S'w\x04\x00\x00'
p386
tp387
Rp388
sVorg
p389
g23
(g27
S'\x97\x06\x00\x00'
p390
tp391
Rp392
sVcounts
p393
g23
(g27
S'\x80\x02\x00\x00'
p394
tp395
Rp396
sVtotal
p397
g23
(g27
S'f\t\x00\x00'
p398
tp399
Rp400
sVunit
p401
g23
(g27
S'\xb7\t\x00\x00'
p402
tp403
Rp404
sVdevastation
p405
g23
(g27
S'\xe3\x02\x00\x00'
p406
tp407
Rp408
sVwould
p409
g23
(g27
S'G\n\x00\x00'
p410
tp411
Rp412
sVarmy
p413
g23
(g27
S'\xcd\x00\x00\x00'
p414
tp415
Rp416
sVremainder
p417
g23
(g27
S'\xaa\x07\x00\x00'
p418
tp419
Rp420
sVcoins
p421
g23
(g27
S'\xff\x01\x00\x00'
p422
tp423
Rp424
sVbundles
p425
g23
(g27
S'r\x01\x00\x00'
p426
tp427
Rp428
sVchooses
p429
g23
(g27
S'\xd6\x01\x00\x00'
p430
tp431
Rp432
sVtm
p433
g23
(g27
S'X\t\x00\x00'
p434
tp435
Rp436
sVcall
p437
g23
(g27
S'\x8f\x01\x00\x00'
p438
tp439
Rp440
sVtherefore
p441
g23
(g27
S':\t\x00\x00'
p442
tp443
Rp444
sVtype
p445
g23
(g27
S'\xa6\t\x00\x00'
p446
tp447
Rp448
sVtell
p449
g23
(g27
S"'\t\x00\x00"
p450
tp451
Rp452
sVseparated
p453
g23
(g27
S'?\x08\x00\x00'
p454
tp455
Rp456
sVinsterested
p457
g23
(g27
S'\xea\x04\x00\x00'
p458
tp459
Rp460
sVcomposite
p461
g23
(g27
S'*\x02\x00\x00'
p462
tp463
Rp464
sVaware
p465
g23
(g27
S'\x03\x01\x00\x00'
p466
tp467
Rp468
sV99
p469
g23
(g27
S'J\x00\x00\x00'
p470
tp471
Rp472
sVphone
p473
g23
(g27
S'\xdd\x06\x00\x00'
p474
tp475
Rp476
sV91
p477
g23
(g27
S'I\x00\x00\x00'
p478
tp479
Rp480
sVmust
p481
g23
(g27
S'5\x06\x00\x00'
p482
tp483
Rp484
sVcandies
p485
g23
(g27
S'\x94\x01\x00\x00'
p486
tp487
Rp488
sVword
p489
g23
(g27
S'>\n\x00\x00'
p490
tp491
Rp492
sVplayer
p493
g23
(g27
S'\xf7\x06\x00\x00'
p494
tp495
Rp496
sVwork
p497
g23
(g27
S'@\n\x00\x00'
p498
tp499
Rp500
sVmi
p501
g23
(g27
S'\xfd\x05\x00\x00'
p502
tp503
Rp504
sVcant
p505
g23
(g27
S'\x97\x01\x00\x00'
p506
tp507
Rp508
sVmr
p509
g23
(g27
S'+\x06\x00\x00'
p510
tp511
Rp512
sVroot
p513
g23
(g27
S'\xee\x07\x00\x00'
p514
tp515
Rp516
sVexample
p517
g23
(g27
S'\x91\x03\x00\x00'
p518
tp519
Rp520
sVwang
p521
g23
(g27
S'\x01\n\x00\x00'
p522
tp523
Rp524
sVgive
p525
g23
(g27
S'L\x04\x00\x00'
p526
tp527
Rp528
sVcurrency
p529
g23
(g27
S'\x94\x02\x00\x00'
p530
tp531
Rp532
sVfibonacci
p533
g23
(g27
S'\xe0\x03\x00\x00'
p534
tp535
Rp536
sVwant
p537
g23
(g27
S'\x02\n\x00\x00'
p538
tp539
Rp540
sVdavid
p541
g23
(g27
S'\xa9\x02\x00\x00'
p542
tp543
Rp544
sVattract
p545
g23
(g27
S'\xf7\x00\x00\x00'
p546
tp547
Rp548
sVabsolute
p549
g23
(g27
S'a\x00\x00\x00'
p550
tp551
Rp552
sVend
p553
g23
(g27
S'b\x03\x00\x00'
p554
tp555
Rp556
sVturn
p557
g23
(g27
S'\x9c\t\x00\x00'
p558
tp559
Rp560
sVprovide
p561
g23
(g27
S'K\x07\x00\x00'
p562
tp563
Rp564
sVtravel
p565
g23
(g27
S'\x80\t\x00\x00'
p566
tp567
Rp568
sVfeature
p569
g23
(g27
S'\xd1\x03\x00\x00'
p570
tp571
Rp572
sVmachine
p573
g23
(g27
S'\xbd\x05\x00\x00'
p574
tp575
Rp576
sVadjacent
p577
g23
(g27
S'z\x00\x00\x00'
p578
tp579
Rp580
sVanswer
p581
g23
(g27
S'\xb5\x00\x00\x00'
p582
tp583
Rp584
sVordinary
p585
g23
(g27
S'\x94\x06\x00\x00'
p586
tp587
Rp588
sVancestor
p589
g23
(g27
S'\xab\x00\x00\x00'
p590
tp591
Rp592
sVunvisited
p593
g23
(g27
S'\xc3\t\x00\x00'
p594
tp595
Rp596
sVciels
p597
g23
(g27
S'\xdf\x01\x00\x00'
p598
tp599
Rp600
sVcosted
p601
g23
(g27
S'u\x02\x00\x00'
p602
tp603
Rp604
sVdescription
p605
g23
(g27
S'\xd3\x02\x00\x00'
p606
tp607
Rp608
sVmess
p609
g23
(g27
S'\xf5\x05\x00\x00'
p610
tp611
Rp612
sVafter
p613
g23
(g27
S'\x82\x00\x00\x00'
p614
tp615
Rp616
sVdiagram
p617
g23
(g27
S'\xf0\x02\x00\x00'
p618
tp619
Rp620
sVdinosaurs
p621
g23
(g27
S'\x02\x03\x00\x00'
p622
tp623
Rp624
sVwrong
p625
g23
(g27
S'K\n\x00\x00'
p626
tp627
Rp628
sVlaw
p629
g23
(g27
S'`\x05\x00\x00'
p630
tp631
Rp632
sVparallel
p633
g23
(g27
S'\xb8\x06\x00\x00'
p634
tp635
Rp636
sVtypes
p637
g23
(g27
S'\xa7\t\x00\x00'
p638
tp639
Rp640
sVlas
p641
g23
(g27
S'X\x05\x00\x00'
p642
tp643
Rp644
sVinfinte
p645
g23
(g27
S'\xdd\x04\x00\x00'
p646
tp647
Rp648
sVsets
p649
g23
(g27
S'H\x08\x00\x00'
p650
tp651
Rp652
sVwins
p653
g23
(g27
S'0\n\x00\x00'
p654
tp655
Rp656
sVappreciate
p657
g23
(g27
S'\xc1\x00\x00\x00'
p658
tp659
Rp660
sVsumming
p661
g23
(g27
S'\xfa\x08\x00\x00'
p662
tp663
Rp664
sVgreet
p665
g23
(g27
S'f\x04\x00\x00'
p666
tp667
Rp668
sVjungle
p669
g23
(g27
S'+\x05\x00\x00'
p670
tp671
Rp672
sVkeeps
p673
g23
(g27
S'2\x05\x00\x00'
p674
tp675
Rp676
sVfan
p677
g23
(g27
S'\xc7\x03\x00\x00'
p678
tp679
Rp680
sV1000
p681
g23
(g27
S'\x07\x00\x00\x00'
p682
tp683
Rp684
sVorder
p685
g23
(g27
S'\x92\x06\x00\x00'
p686
tp687
Rp688
sVoperations
p689
g23
(g27
S'\x89\x06\x00\x00'
p690
tp691
Rp692
sVover
p693
g23
(g27
S'\xa0\x06\x00\x00'
p694
tp695
Rp696
sVsatisfied
p697
g23
(g27
S'\x10\x08\x00\x00'
p698
tp699
Rp700
sVbanged
p701
g23
(g27
S'\x15\x01\x00\x00'
p702
tp703
Rp704
sVsaving
p705
g23
(g27
S'\x16\x08\x00\x00'
p706
tp707
Rp708
sVsatisfies
p709
g23
(g27
S'\x11\x08\x00\x00'
p710
tp711
Rp712
sVscoring
p713
g23
(g27
S'!\x08\x00\x00'
p714
tp715
Rp716
sVfit
p717
g23
(g27
S'\xf0\x03\x00\x00'
p718
tp719
Rp720
sVdirectional
p721
g23
(g27
S'\x06\x03\x00\x00'
p722
tp723
Rp724
sVpersonal
p725
g23
(g27
S'\xda\x06\x00\x00'
p726
tp727
Rp728
sVbetter
p729
g23
(g27
S'4\x01\x00\x00'
p730
tp731
Rp732
sVeasier
p733
g23
(g27
S'D\x03\x00\x00'
p734
tp735
Rp736
sVeugene
p737
g23
(g27
S'\x81\x03\x00\x00'
p738
tp739
Rp740
sVmaximal
p741
g23
(g27
S'\xdd\x05\x00\x00'
p742
tp743
Rp744
sVthen
p745
g23
(g27
S'6\t\x00\x00'
p746
tp747
Rp748
sVthem
p749
g23
(g27
S'5\t\x00\x00'
p750
tp751
Rp752
sVaffected
p753
g23
(g27
S'\x81\x00\x00\x00'
p754
tp755
Rp756
sVtourist
p757
g23
(g27
S'l\t\x00\x00'
p758
tp759
Rp760
sVthei
p761
g23
(g27
S'4\t\x00\x00'
p762
tp763
Rp764
sVliras
p765
g23
(g27
S'\x8d\x05\x00\x00'
p766
tp767
Rp768
sVmxn
p769
g23
(g27
S'7\x06\x00\x00'
p770
tp771
Rp772
sVthey
p773
g23
(g27
S'<\t\x00\x00'
p774
tp775
Rp776
sVone
p777
g23
(g27
S'\x83\x06\x00\x00'
p778
tp779
Rp780
sVchurus
p781
g23
(g27
S'\xdb\x01\x00\x00'
p782
tp783
Rp784
sVbread
p785
g23
(g27
S']\x01\x00\x00'
p786
tp787
Rp788
sVrepresents
p789
g23
(g27
S'\xbd\x07\x00\x00'
p790
tp791
Rp792
sVclassified
p793
g23
(g27
S'\xef\x01\x00\x00'
p794
tp795
Rp796
sVlucy
p797
g23
(g27
S'\xba\x05\x00\x00'
p798
tp799
Rp800
sVgood
p801
g23
(g27
S'X\x04\x00\x00'
p802
tp803
Rp804
sVshiro
p805
g23
(g27
S'X\x08\x00\x00'
p806
tp807
Rp808
sVeach
p809
g23
(g27
S'A\x03\x00\x00'
p810
tp811
Rp812
sVwent
p813
g23
(g27
S'\x16\n\x00\x00'
p814
tp815
Rp816
sVinterfering
p817
g23
(g27
S'\xf4\x04\x00\x00'
p818
tp819
Rp820
sVside
p821
g23
(g27
S'h\x08\x00\x00'
p822
tp823
Rp824
sVbone
p825
g23
(g27
S'K\x01\x00\x00'
p826
tp827
Rp828
sVlasting
p829
g23
(g27
S'Z\x05\x00\x00'
p830
tp831
Rp832
sVcandy
p833
g23
(g27
S'\x95\x01\x00\x00'
p834
tp835
Rp836
sVfinancial
p837
g23
(g27
S'\xe7\x03\x00\x00'
p838
tp839
Rp840
sVdirectly
p841
g23
(g27
S'\x08\x03\x00\x00'
p842
tp843
Rp844
sVseries
p845
g23
(g27
S'D\x08\x00\x00'
p846
tp847
Rp848
sVtrain
p849
g23
(g27
S'z\t\x00\x00'
p850
tp851
Rp852
sVmetaphysical
p853
g23
(g27
S'\xf9\x05\x00\x00'
p854
tp855
Rp856
sVjoined
p857
g23
(g27
S'#\x05\x00\x00'
p858
tp859
Rp860
sVtaught
p861
g23
(g27
S'\x1d\t\x00\x00'
p862
tp863
Rp864
sVforgot
p865
g23
(g27
S'\x08\x04\x00\x00'
p866
tp867
Rp868
sVring
p869
g23
(g27
S'\xdf\x07\x00\x00'
p870
tp871
Rp872
sVby
p873
g23
(g27
S'{\x01\x00\x00'
p874
tp875
Rp876
sVnetwork
p877
g23
(g27
S'Q\x06\x00\x00'
p878
tp879
Rp880
sVdriving
p881
g23
(g27
S'6\x03\x00\x00'
p882
tp883
Rp884
sVrs
p885
g23
(g27
S'\xf9\x07\x00\x00'
p886
tp887
Rp888
sVgod
p889
g23
(g27
S'T\x04\x00\x00'
p890
tp891
Rp892
sVcollaborated
p893
g23
(g27
S'\x02\x02\x00\x00'
p894
tp895
Rp896
sVre
p897
g23
(g27
S'~\x07\x00\x00'
p898
tp899
Rp900
sVencourage
p901
g23
(g27
S'_\x03\x00\x00'
p902
tp903
Rp904
sVmultiply
p905
g23
(g27
S'0\x06\x00\x00'
p906
tp907
Rp908
sVgot
p909
g23
(g27
S'[\x04\x00\x00'
p910
tp911
Rp912
sVnewly
p913
g23
(g27
S'T\x06\x00\x00'
p914
tp915
Rp916
sVofcourse
p917
g23
(g27
S'w\x06\x00\x00'
p918
tp919
Rp920
sVri
p921
g23
(g27
S'\xd9\x07\x00\x00'
p922
tp923
Rp924
sVlinear
p925
g23
(g27
S'\x88\x05\x00\x00'
p926
tp927
Rp928
sV1s
p929
g23
(g27
S' \x00\x00\x00'
p930
tp931
Rp932
sVfree
p933
g23
(g27
S'\x19\x04\x00\x00'
p934
tp935
Rp936
sVstandard
p937
g23
(g27
S'\xb5\x08\x00\x00'
p938
tp939
Rp940
sVnth
p941
g23
(g27
S'h\x06\x00\x00'
p942
tp943
Rp944
sVian
p945
g23
(g27
S'\xad\x04\x00\x00'
p946
tp947
Rp948
sVsubsequences
p949
g23
(g27
S'\xe9\x08\x00\x00'
p950
tp951
Rp952
sVrain
p953
g23
(g27
S'n\x07\x00\x00'
p954
tp955
Rp956
sVestimate
p957
g23
(g27
S'~\x03\x00\x00'
p958
tp959
Rp960
sVwanted
p961
g23
(g27
S'\x03\n\x00\x00'
p962
tp963
Rp964
sVr4
p965
g23
(g27
S'h\x07\x00\x00'
p966
tp967
Rp968
sVr5
p969
g23
(g27
S'i\x07\x00\x00'
p970
tp971
Rp972
sVate
p973
g23
(g27
S'\xee\x00\x00\x00'
p974
tp975
Rp976
sVr1
p977
g23
(g27
S'e\x07\x00\x00'
p978
tp979
Rp980
sVr2
p981
g23
(g27
S'f\x07\x00\x00'
p982
tp983
Rp984
sVcreated
p985
g23
(g27
S'\x87\x02\x00\x00'
p986
tp987
Rp988
sVstarts
p989
g23
(g27
S'\xbc\x08\x00\x00'
p990
tp991
Rp992
sVmessages
p993
g23
(g27
S'\xf7\x05\x00\x00'
p994
tp995
Rp996
sVdays
p997
g23
(g27
S'\xac\x02\x00\x00'
p998
tp999
Rp1000
sVcreates
p1001
g23
(g27
S'\x88\x02\x00\x00'
p1002
tp1003
Rp1004
sVloudness
p1005
g23
(g27
S'\xaf\x05\x00\x00'
p1006
tp1007
Rp1008
sVloud
p1009
g23
(g27
S'\xae\x05\x00\x00'
p1010
tp1011
Rp1012
sVxuj
p1013
g23
(g27
S'Z\n\x00\x00'
p1014
tp1015
Rp1016
sVpurpose
p1017
g23
(g27
S'Q\x07\x00\x00'
p1018
tp1019
Rp1020
sValready
p1021
g23
(g27
S'\x9c\x00\x00\x00'
p1022
tp1023
Rp1024
sVcharacters
p1025
g23
(g27
S'\xbe\x01\x00\x00'
p1026
tp1027
Rp1028
sVmeet
p1029
g23
(g27
S'\xea\x05\x00\x00'
p1030
tp1031
Rp1032
sVlovable
p1033
g23
(g27
S'\xb0\x05\x00\x00'
p1034
tp1035
Rp1036
sVdelicious
p1037
g23
(g27
S'\xc5\x02\x00\x00'
p1038
tp1039
Rp1040
sVenumerate
p1041
g23
(g27
S'o\x03\x00\x00'
p1042
tp1043
Rp1044
sVclarity
p1045
g23
(g27
S'\xec\x01\x00\x00'
p1046
tp1047
Rp1048
sVcartesian
p1049
g23
(g27
S'\xa3\x01\x00\x00'
p1050
tp1051
Rp1052
sVservice
p1053
g23
(g27
S'F\x08\x00\x00'
p1054
tp1055
Rp1056
sVsimilarly
p1057
g23
(g27
S'o\x08\x00\x00'
p1058
tp1059
Rp1060
sVtop
p1061
g23
(g27
S'd\t\x00\x00'
p1062
tp1063
Rp1064
sVgirls
p1065
g23
(g27
S'K\x04\x00\x00'
p1066
tp1067
Rp1068
sVapproximately
p1069
g23
(g27
S'\xc3\x00\x00\x00'
p1070
tp1071
Rp1072
sVneeded
p1073
g23
(g27
S'H\x06\x00\x00'
p1074
tp1075
Rp1076
sVmaster
p1077
g23
(g27
S'\xd4\x05\x00\x00'
p1078
tp1079
Rp1080
sVtoo
p1081
g23
(g27
S'b\t\x00\x00'
p1082
tp1083
Rp1084
sVinconvenient
p1085
g23
(g27
S'\xcd\x04\x00\x00'
p1086
tp1087
Rp1088
sVdogs
p1089
g23
(g27
S'(\x03\x00\x00'
p1090
tp1091
Rp1092
sVlisten
p1093
g23
(g27
S'\x8f\x05\x00\x00'
p1094
tp1095
Rp1096
sVcentered
p1097
g23
(g27
S'\xb0\x01\x00\x00'
p1098
tp1099
Rp1100
sVvillager
p1101
g23
(g27
S'\xf0\t\x00\x00'
p1102
tp1103
Rp1104
sVvillages
p1105
g23
(g27
S'\xf2\t\x00\x00'
p1106
tp1107
Rp1108
sVesoteric
p1109
g23
(g27
S'{\x03\x00\x00'
p1110
tp1111
Rp1112
sVtook
p1113
g23
(g27
S'c\t\x00\x00'
p1114
tp1115
Rp1116
sVwisdom
p1117
g23
(g27
S'1\n\x00\x00'
p1118
tp1119
Rp1120
sVtask
p1121
g23
(g27
S'\x19\t\x00\x00'
p1122
tp1123
Rp1124
sVsomewhat
p1125
g23
(g27
S'\x94\x08\x00\x00'
p1126
tp1127
Rp1128
sVbegins
p1129
g23
(g27
S'*\x01\x00\x00'
p1130
tp1131
Rp1132
sVdistance
p1133
g23
(g27
S'\x18\x03\x00\x00'
p1134
tp1135
Rp1136
sVperfectly
p1137
g23
(g27
S'\xd2\x06\x00\x00'
p1138
tp1139
Rp1140
sVrampage
p1141
g23
(g27
S'r\x07\x00\x00'
p1142
tp1143
Rp1144
sVdivisible
p1145
g23
(g27
S'"\x03\x00\x00'
p1146
tp1147
Rp1148
sVtree
p1149
g23
(g27
S'\x88\t\x00\x00'
p1150
tp1151
Rp1152
sVrate
p1153
g23
(g27
S'z\x07\x00\x00'
p1154
tp1155
Rp1156
sVfinal
p1157
g23
(g27
S'\xe5\x03\x00\x00'
p1158
tp1159
Rp1160
sVproject
p1161
g23
(g27
S'<\x07\x00\x00'
p1162
tp1163
Rp1164
sVmatter
p1165
g23
(g27
S'\xdb\x05\x00\x00'
p1166
tp1167
Rp1168
sVclasses
p1169
g23
(g27
S'\xee\x01\x00\x00'
p1170
tp1171
Rp1172
sVkth
p1173
g23
(g27
S'N\x05\x00\x00'
p1174
tp1175
Rp1176
sVhistorical
p1177
g23
(g27
S'\x9a\x04\x00\x00'
p1178
tp1179
Rp1180
sVspoiled
p1181
g23
(g27
S'\xa9\x08\x00\x00'
p1182
tp1183
Rp1184
sVknights
p1185
g23
(g27
S'H\x05\x00\x00'
p1186
tp1187
Rp1188
sVfeeling
p1189
g23
(g27
S'\xd4\x03\x00\x00'
p1190
tp1191
Rp1192
sVpowers
p1193
g23
(g27
S'\x11\x07\x00\x00'
p1194
tp1195
Rp1196
sVchuru
p1197
g23
(g27
S'\xda\x01\x00\x00'
p1198
tp1199
Rp1200
sVrunner
p1201
g23
(g27
S'\xff\x07\x00\x00'
p1202
tp1203
Rp1204
sVmind
p1205
g23
(g27
S'\x03\x06\x00\x00'
p1206
tp1207
Rp1208
sVanup
p1209
g23
(g27
S'\xb8\x00\x00\x00'
p1210
tp1211
Rp1212
sVmanner
p1213
g23
(g27
S'\xcc\x05\x00\x00'
p1214
tp1215
Rp1216
sVseem
p1217
g23
(g27
S'/\x08\x00\x00'
p1218
tp1219
Rp1220
sVregulate
p1221
g23
(g27
S'\xa1\x07\x00\x00'
p1222
tp1223
Rp1224
sVseek
p1225
g23
(g27
S'.\x08\x00\x00'
p1226
tp1227
Rp1228
sVtells
p1229
g23
(g27
S'(\t\x00\x00'
p1230
tp1231
Rp1232
sVforced
p1233
g23
(g27
S'\x02\x04\x00\x00'
p1234
tp1235
Rp1236
sVstrength
p1237
g23
(g27
S'\xd5\x08\x00\x00'
p1238
tp1239
Rp1240
sVconvenient
p1241
g23
(g27
S'_\x02\x00\x00'
p1242
tp1243
Rp1244
sVlatter
p1245
g23
(g27
S'_\x05\x00\x00'
p1246
tp1247
Rp1248
sVdevtas
p1249
g23
(g27
S'\xea\x02\x00\x00'
p1250
tp1251
Rp1252
sVoriented
p1253
g23
(g27
S'\x9a\x06\x00\x00'
p1254
tp1255
Rp1256
sVchest
p1257
g23
(g27
S'\xcb\x01\x00\x00'
p1258
tp1259
Rp1260
sVcausing
p1261
g23
(g27
S'\xa9\x01\x00\x00'
p1262
tp1263
Rp1264
sVforces
p1265
g23
(g27
S'\x03\x04\x00\x00'
p1266
tp1267
Rp1268
sVindexed
p1269
g23
(g27
S'\xd3\x04\x00\x00'
p1270
tp1271
Rp1272
sVdegenerated
p1273
g23
(g27
S'\xc1\x02\x00\x00'
p1274
tp1275
Rp1276
sVreversed
p1277
g23
(g27
S'\xd6\x07\x00\x00'
p1278
tp1279
Rp1280
sVcircles
p1281
g23
(g27
S'\xe3\x01\x00\x00'
p1282
tp1283
Rp1284
sVblue
p1285
g23
(g27
S'D\x01\x00\x00'
p1286
tp1287
Rp1288
sVexactly
p1289
g23
(g27
S'\x8f\x03\x00\x00'
p1290
tp1291
Rp1292
sVmother
p1293
g23
(g27
S'$\x06\x00\x00'
p1294
tp1295
Rp1296
sVdial
p1297
g23
(g27
S'\xf1\x02\x00\x00'
p1298
tp1299
Rp1300
sVoptimized
p1301
g23
(g27
S'\x8d\x06\x00\x00'
p1302
tp1303
Rp1304
sVregular
p1305
g23
(g27
S'\xa0\x07\x00\x00'
p1306
tp1307
Rp1308
sVplenty
p1309
g23
(g27
S'\xfe\x06\x00\x00'
p1310
tp1311
Rp1312
sVentry
p1313
g23
(g27
S'n\x03\x00\x00'
p1314
tp1315
Rp1316
sVexercises
p1317
g23
(g27
S'\x9a\x03\x00\x00'
p1318
tp1319
Rp1320
sVcoin
p1321
g23
(g27
S'\xfe\x01\x00\x00'
p1322
tp1323
Rp1324
sVcalculated
p1325
g23
(g27
S'\x8b\x01\x00\x00'
p1326
tp1327
Rp1328
sVdog
p1329
g23
(g27
S"'\x03\x00\x00"
p1330
tp1331
Rp1332
sVpoints
p1333
g23
(g27
S'\x02\x07\x00\x00'
p1334
tp1335
Rp1336
sVtech
p1337
g23
(g27
S'%\t\x00\x00'
p1338
tp1339
Rp1340
sVrupees
p1341
g23
(g27
S'\x03\x08\x00\x00'
p1342
tp1343
Rp1344
sVsum
p1345
g23
(g27
S'\xf9\x08\x00\x00'
p1346
tp1347
Rp1348
sVcame
p1349
g23
(g27
S'\x93\x01\x00\x00'
p1350
tp1351
Rp1352
sVsaying
p1353
g23
(g27
S'\x19\x08\x00\x00'
p1354
tp1355
Rp1356
sVselected
p1357
g23
(g27
S'4\x08\x00\x00'
p1358
tp1359
Rp1360
sVhunger
p1361
g23
(g27
S'\xa8\x04\x00\x00'
p1362
tp1363
Rp1364
sVcba
p1365
g23
(g27
S'\xab\x01\x00\x00'
p1366
tp1367
Rp1368
sVrandom
p1369
g23
(g27
S's\x07\x00\x00'
p1370
tp1371
Rp1372
sVprix
p1373
g23
(g27
S'&\x07\x00\x00'
p1374
tp1375
Rp1376
sVcolors
p1377
g23
(g27
S'\x0e\x02\x00\x00'
p1378
tp1379
Rp1380
sVsolutions
p1381
g23
(g27
S'\x89\x08\x00\x00'
p1382
tp1383
Rp1384
sVparticipate
p1385
g23
(g27
S'\xbe\x06\x00\x00'
p1386
tp1387
Rp1388
sVearth
p1389
g23
(g27
S'C\x03\x00\x00'
p1390
tp1391
Rp1392
sVtouches
p1393
g23
(g27
S'h\t\x00\x00'
p1394
tp1395
Rp1396
sVbusy
p1397
g23
(g27
S'w\x01\x00\x00'
p1398
tp1399
Rp1400
sVcousins
p1401
g23
(g27
S'\x84\x02\x00\x00'
p1402
tp1403
Rp1404
sV14476
p1405
g23
(g27
S'\x1a\x00\x00\x00'
p1406
tp1407
Rp1408
sVbush
p1409
g23
(g27
S't\x01\x00\x00'
p1410
tp1411
Rp1412
sVversion
p1413
g23
(g27
S'\xe5\t\x00\x00'
p1414
tp1415
Rp1416
sVrich
p1417
g23
(g27
S'\xda\x07\x00\x00'
p1418
tp1419
Rp1420
sVannounce
p1421
g23
(g27
S'\xb1\x00\x00\x00'
p1422
tp1423
Rp1424
sVconstant
p1425
g23
(g27
S'J\x02\x00\x00'
p1426
tp1427
Rp1428
sVrectangle
p1429
g23
(g27
S'\x96\x07\x00\x00'
p1430
tp1431
Rp1432
sVborrowed
p1433
g23
(g27
S'P\x01\x00\x00'
p1434
tp1435
Rp1436
sVtiles
p1437
g23
(g27
S'R\t\x00\x00'
p1438
tp1439
Rp1440
sVdi
p1441
g23
(g27
S'\xef\x02\x00\x00'
p1442
tp1443
Rp1444
sVagni
p1445
g23
(g27
S'\x87\x00\x00\x00'
p1446
tp1447
Rp1448
sVwatch
p1449
g23
(g27
S'\x08\n\x00\x00'
p1450
tp1451
Rp1452
sVdc
p1453
g23
(g27
S'\xad\x02\x00\x00'
p1454
tp1455
Rp1456
sVda
p1457
g23
(g27
S'\xa1\x02\x00\x00'
p1458
tp1459
Rp1460
sVpocket
p1461
g23
(g27
S'\x00\x07\x00\x00'
p1462
tp1463
Rp1464
sVwatson
p1465
g23
(g27
S'\x0b\n\x00\x00'
p1466
tp1467
Rp1468
sVmeditate
p1469
g23
(g27
S'\xe7\x05\x00\x00'
p1470
tp1471
Rp1472
sVdespite
p1473
g23
(g27
S'\xd7\x02\x00\x00'
p1474
tp1475
Rp1476
sVreport
p1477
g23
(g27
S'\xb8\x07\x00\x00'
p1478
tp1479
Rp1480
sV15
p1481
g23
(g27
S'\x1b\x00\x00\x00'
p1482
tp1483
Rp1484
sVdt
p1485
g23
(g27
S':\x03\x00\x00'
p1486
tp1487
Rp1488
sVdr
p1489
g23
(g27
S'.\x03\x00\x00'
p1490
tp1491
Rp1492
sVds
p1493
g23
(g27
S'9\x03\x00\x00'
p1494
tp1495
Rp1496
sVunfortunately
p1497
g23
(g27
S'\xb1\t\x00\x00'
p1498
tp1499
Rp1500
sVruns
p1501
g23
(g27
S'\x01\x08\x00\x00'
p1502
tp1503
Rp1504
sVcountries
p1505
g23
(g27
S'~\x02\x00\x00'
p1506
tp1507
Rp1508
sVkindom
p1509
g23
(g27
S'<\x05\x00\x00'
p1510
tp1511
Rp1512
sVdips
p1513
g23
(g27
S'\x03\x03\x00\x00'
p1514
tp1515
Rp1516
sVmethod
p1517
g23
(g27
S'\xfa\x05\x00\x00'
p1518
tp1519
Rp1520
sVtwice
p1521
g23
(g27
S'\xa4\t\x00\x00'
p1522
tp1523
Rp1524
sVbad
p1525
g23
(g27
S'\x0f\x01\x00\x00'
p1526
tp1527
Rp1528
sVtraversed
p1529
g23
(g27
S'\x86\t\x00\x00'
p1530
tp1531
Rp1532
sV18
p1533
g23
(g27
S'\x1e\x00\x00\x00'
p1534
tp1535
Rp1536
sVdecides
p1537
g23
(g27
S'\xb3\x02\x00\x00'
p1538
tp1539
Rp1540
sVfair
p1541
g23
(g27
S'\xbe\x03\x00\x00'
p1542
tp1543
Rp1544
sVdepends
p1545
g23
(g27
S'\xce\x02\x00\x00'
p1546
tp1547
Rp1548
sVdecided
p1549
g23
(g27
S'\xb2\x02\x00\x00'
p1550
tp1551
Rp1552
sVradius
p1553
g23
(g27
S'm\x07\x00\x00'
p1554
tp1555
Rp1556
sVprojections
p1557
g23
(g27
S'>\x07\x00\x00'
p1558
tp1559
Rp1560
sVfail
p1561
g23
(g27
S'\xbd\x03\x00\x00'
p1562
tp1563
Rp1564
sVweird
p1565
g23
(g27
S'\x14\n\x00\x00'
p1566
tp1567
Rp1568
sVbest
p1569
g23
(g27
S'3\x01\x00\x00'
p1570
tp1571
Rp1572
sV00
p1573
g23
(g27
S'\x00\x00\x00\x00'
p1574
tp1575
Rp1576
sVsaid
p1577
g23
(g27
S'\t\x08\x00\x00'
p1578
tp1579
Rp1580
sVlots
p1581
g23
(g27
S'\xad\x05\x00\x00'
p1582
tp1583
Rp1584
sVaway
p1585
g23
(g27
S'\x04\x01\x00\x00'
p1586
tp1587
Rp1588
sVrings
p1589
g23
(g27
S'\xe0\x07\x00\x00'
p1590
tp1591
Rp1592
sVsymmetric
p1593
g23
(g27
S'\x08\t\x00\x00'
p1594
tp1595
Rp1596
sVstamps
p1597
g23
(g27
S'\xb3\x08\x00\x00'
p1598
tp1599
Rp1600
sVscore
p1601
g23
(g27
S'\x1f\x08\x00\x00'
p1602
tp1603
Rp1604
sVdisprove
p1605
g23
(g27
S'\x16\x03\x00\x00'
p1606
tp1607
Rp1608
sVsimplest
p1609
g23
(g27
S'q\x08\x00\x00'
p1610
tp1611
Rp1612
sVira
p1613
g23
(g27
S'\x12\x05\x00\x00'
p1614
tp1615
Rp1616
sVprevious
p1617
g23
(g27
S'\x1f\x07\x00\x00'
p1618
tp1619
Rp1620
sVshields
p1621
g23
(g27
S'W\x08\x00\x00'
p1622
tp1623
Rp1624
sVlazy
p1625
g23
(g27
S'a\x05\x00\x00'
p1626
tp1627
Rp1628
sVmen
p1629
g23
(g27
S'\xef\x05\x00\x00'
p1630
tp1631
Rp1632
sVterms
p1633
g23
(g27
S'+\t\x00\x00'
p1634
tp1635
Rp1636
sVextend
p1637
g23
(g27
S'\xa9\x03\x00\x00'
p1638
tp1639
Rp1640
sVciphers
p1641
g23
(g27
S'\xe1\x01\x00\x00'
p1642
tp1643
Rp1644
sVhowever
p1645
g23
(g27
S'\xa4\x04\x00\x00'
p1646
tp1647
Rp1648
sVpackages
p1649
g23
(g27
S'\xaa\x06\x00\x00'
p1650
tp1651
Rp1652
sVimprove
p1653
g23
(g27
S'\xc6\x04\x00\x00'
p1654
tp1655
Rp1656
sVreceived
p1657
g23
(g27
S'\x8d\x07\x00\x00'
p1658
tp1659
Rp1660
sVprotect
p1661
g23
(g27
S'E\x07\x00\x00'
p1662
tp1663
Rp1664
sVplanner
p1665
g23
(g27
S'\xf1\x06\x00\x00'
p1666
tp1667
Rp1668
sVcountry
p1669
g23
(g27
S'\x7f\x02\x00\x00'
p1670
tp1671
Rp1672
sVill
p1673
g23
(g27
S'\xbc\x04\x00\x00'
p1674
tp1675
Rp1676
sVcup
p1677
g23
(g27
S'\x90\x02\x00\x00'
p1678
tp1679
Rp1680
sVplayers
p1681
g23
(g27
S'\xf8\x06\x00\x00'
p1682
tp1683
Rp1684
sVgames
p1685
g23
(g27
S'8\x04\x00\x00'
p1686
tp1687
Rp1688
sVplanned
p1689
g23
(g27
S'\xf0\x06\x00\x00'
p1690
tp1691
Rp1692
sVreceives
p1693
g23
(g27
S'\x8e\x07\x00\x00'
p1694
tp1695
Rp1696
sVfaces
p1697
g23
(g27
S'\xb5\x03\x00\x00'
p1698
tp1699
Rp1700
sVcom
p1701
g23
(g27
S'\x12\x02\x00\x00'
p1702
tp1703
Rp1704
sVasked
p1705
g23
(g27
S'\xe0\x00\x00\x00'
p1706
tp1707
Rp1708
sValternate
p1709
g23
(g27
S'\x9e\x00\x00\x00'
p1710
tp1711
Rp1712
sVtough
p1713
g23
(g27
S'j\t\x00\x00'
p1714
tp1715
Rp1716
sVheight
p1717
g23
(g27
S'\x8d\x04\x00\x00'
p1718
tp1719
Rp1720
sVexclusive_or
p1721
g23
(g27
S'\x99\x03\x00\x00'
p1722
tp1723
Rp1724
sVrepresented
p1725
g23
(g27
S'\xbb\x07\x00\x00'
p1726
tp1727
Rp1728
sVpolynomial
p1729
g23
(g27
S'\x06\x07\x00\x00'
p1730
tp1731
Rp1732
sVtrust
p1733
g23
(g27
S'\x97\t\x00\x00'
p1734
tp1735
Rp1736
sVasks
p1737
g23
(g27
S'\xe2\x00\x00\x00'
p1738
tp1739
Rp1740
sVthree
p1741
g23
(g27
S'J\t\x00\x00'
p1742
tp1743
Rp1744
sVquickly
p1745
g23
(g27
S'b\x07\x00\x00'
p1746
tp1747
Rp1748
sVmuch
p1749
g23
(g27
S',\x06\x00\x00'
p1750
tp1751
Rp1752
sVinterest
p1753
g23
(g27
S'\xf0\x04\x00\x00'
p1754
tp1755
Rp1756
sVexpected
p1757
g23
(g27
S'\xa1\x03\x00\x00'
p1758
tp1759
Rp1760
sVentered
p1761
g23
(g27
S'j\x03\x00\x00'
p1762
tp1763
Rp1764
sVobtained
p1765
g23
(g27
S'p\x06\x00\x00'
p1766
tp1767
Rp1768
sVlife
p1769
g23
(g27
S'\x81\x05\x00\x00'
p1770
tp1771
Rp1772
sVfamilies
p1773
g23
(g27
S'\xc4\x03\x00\x00'
p1774
tp1775
Rp1776
sVattacked
p1777
g23
(g27
S'\xf3\x00\x00\x00'
p1778
tp1779
Rp1780
sVgovernment
p1781
g23
(g27
S'\\\x04\x00\x00'
p1782
tp1783
Rp1784
sVchild
p1785
g23
(g27
S'\xcf\x01\x00\x00'
p1786
tp1787
Rp1788
sVcatch
p1789
g23
(g27
S'\xa6\x01\x00\x00'
p1790
tp1791
Rp1792
sVapplied
p1793
g23
(g27
S'\xbf\x00\x00\x00'
p1794
tp1795
Rp1796
sVremy
p1797
g23
(g27
S'\xb3\x07\x00\x00'
p1798
tp1799
Rp1800
sVexception
p1801
g23
(g27
S'\x95\x03\x00\x00'
p1802
tp1803
Rp1804
sVherculean
p1805
g23
(g27
S'\x93\x04\x00\x00'
p1806
tp1807
Rp1808
sVair
p1809
g23
(g27
S'\x8c\x00\x00\x00'
p1810
tp1811
Rp1812
sVeuclidean
p1813
g23
(g27
S'\x80\x03\x00\x00'
p1814
tp1815
Rp1816
sVnear
p1817
g23
(g27
S'C\x06\x00\x00'
p1818
tp1819
Rp1820
sVsuppose
p1821
g23
(g27
S'\xff\x08\x00\x00'
p1822
tp1823
Rp1824
sVteachers
p1825
g23
(g27
S' \t\x00\x00'
p1826
tp1827
Rp1828
sVitinerary
p1829
g23
(g27
S'\x1b\x05\x00\x00'
p1830
tp1831
Rp1832
sVproperty
p1833
g23
(g27
S'B\x07\x00\x00'
p1834
tp1835
Rp1836
sVemployees
p1837
g23
(g27
S'[\x03\x00\x00'
p1838
tp1839
Rp1840
sVcylinder
p1841
g23
(g27
S'\x9f\x02\x00\x00'
p1842
tp1843
Rp1844
sVshiros
p1845
g23
(g27
S'Y\x08\x00\x00'
p1846
tp1847
Rp1848
sVplayed
p1849
g23
(g27
S'\xf6\x06\x00\x00'
p1850
tp1851
Rp1852
sVis
p1853
g23
(g27
S'\x15\x05\x00\x00'
p1854
tp1855
Rp1856
sVit
p1857
g23
(g27
S'\x16\x05\x00\x00'
p1858
tp1859
Rp1860
sVilya
p1861
g23
(g27
S'\xbd\x04\x00\x00'
p1862
tp1863
Rp1864
sVik
p1865
g23
(g27
S'\xbb\x04\x00\x00'
p1866
tp1867
Rp1868
sVin
p1869
g23
(g27
S'\xc7\x04\x00\x00'
p1870
tp1871
Rp1872
sVladdus
p1873
g23
(g27
S'S\x05\x00\x00'
p1874
tp1875
Rp1876
sVie
p1877
g23
(g27
S'\xb8\x04\x00\x00'
p1878
tp1879
Rp1880
sVid
p1881
g23
(g27
S'\xb0\x04\x00\x00'
p1882
tp1883
Rp1884
sVif
p1885
g23
(g27
S'\xb9\x04\x00\x00'
p1886
tp1887
Rp1888
sVgrown
p1889
g23
(g27
S'p\x04\x00\x00'
p1890
tp1891
Rp1892
sVcontaining
p1893
g23
(g27
S'U\x02\x00\x00'
p1894
tp1895
Rp1896
sVperform
p1897
g23
(g27
S'\xd3\x06\x00\x00'
p1898
tp1899
Rp1900
sVsuggest
p1901
g23
(g27
S'\xf6\x08\x00\x00'
p1902
tp1903
Rp1904
sVmake
p1905
g23
(g27
S'\xc5\x05\x00\x00'
p1906
tp1907
Rp1908
sVintersecting
p1909
g23
(g27
S'\xfc\x04\x00\x00'
p1910
tp1911
Rp1912
sVsplit
p1913
g23
(g27
S'\xa7\x08\x00\x00'
p1914
tp1915
Rp1916
sVseveral
p1917
g23
(g27
S'J\x08\x00\x00'
p1918
tp1919
Rp1920
sVgrows
p1921
g23
(g27
S'q\x04\x00\x00'
p1922
tp1923
Rp1924
sVwheel
p1925
g23
(g27
S'\x19\n\x00\x00'
p1926
tp1927
Rp1928
sVfairly
p1929
g23
(g27
S'\xbf\x03\x00\x00'
p1930
tp1931
Rp1932
sVi1
p1933
g23
(g27
S'\xab\x04\x00\x00'
p1934
tp1935
Rp1936
sVi2
p1937
g23
(g27
S'\xac\x04\x00\x00'
p1938
tp1939
Rp1940
sVevil
p1941
g23
(g27
S'\x8e\x03\x00\x00'
p1942
tp1943
Rp1944
sVhand
p1945
g23
(g27
S'|\x04\x00\x00'
p1946
tp1947
Rp1948
sVa2f
p1949
g23
(g27
S'P\x00\x00\x00'
p1950
tp1951
Rp1952
sVjealous
p1953
g23
(g27
S'\x1e\x05\x00\x00'
p1954
tp1955
Rp1956
sVovers
p1957
g23
(g27
S'\xa3\x06\x00\x00'
p1958
tp1959
Rp1960
sVcycle
p1961
g23
(g27
S'\x9c\x02\x00\x00'
p1962
tp1963
Rp1964
sVkilometre
p1965
g23
(g27
S'9\x05\x00\x00'
p1966
tp1967
Rp1968
sVyoure
p1969
g23
(g27
S'l\n\x00\x00'
p1970
tp1971
Rp1972
sVgreatest
p1973
g23
(g27
S'd\x04\x00\x00'
p1974
tp1975
Rp1976
sVroma
p1977
g23
(g27
S'\xed\x07\x00\x00'
p1978
tp1979
Rp1980
sVthe
p1981
g23
(g27
S'3\t\x00\x00'
p1982
tp1983
Rp1984
sVleft
p1985
g23
(g27
S'm\x05\x00\x00'
p1986
tp1987
Rp1988
sVproposed
p1989
g23
(g27
S'C\x07\x00\x00'
p1990
tp1991
Rp1992
sVsentence
p1993
g23
(g27
S'>\x08\x00\x00'
p1994
tp1995
Rp1996
sVkali
p1997
g23
(g27
S'.\x05\x00\x00'
p1998
tp1999
Rp2000
sVchefton
p2001
g23
(g27
S'\xc7\x01\x00\x00'
p2002
tp2003
Rp2004
sVassigned
p2005
g23
(g27
S'\xe6\x00\x00\x00'
p2006
tp2007
Rp2008
sVproposes
p2009
g23
(g27
S'D\x07\x00\x00'
p2010
tp2011
Rp2012
sVfarther
p2013
g23
(g27
S'\xc9\x03\x00\x00'
p2014
tp2015
Rp2016
sVfacts
p2017
g23
(g27
S'\xbc\x03\x00\x00'
p2018
tp2019
Rp2020
sVfollowed
p2021
g23
(g27
S'\xfb\x03\x00\x00'
p2022
tp2023
Rp2024
sVyes
p2025
g23
(g27
S'c\n\x00\x00'
p2026
tp2027
Rp2028
sVrotates
p2029
g23
(g27
S'\xf1\x07\x00\x00'
p2030
tp2031
Rp2032
sVyet
p2033
g23
(g27
S'e\n\x00\x00'
p2034
tp2035
Rp2036
sVsucceeding
p2037
g23
(g27
S'\xf1\x08\x00\x00'
p2038
tp2039
Rp2040
sVsecure
p2041
g23
(g27
S'+\x08\x00\x00'
p2042
tp2043
Rp2044
sVnote
p2045
g23
(g27
S'b\x06\x00\x00'
p2046
tp2047
Rp2048
sVmagically
p2049
g23
(g27
S'\xc2\x05\x00\x00'
p2050
tp2051
Rp2052
sVinfinitely
p2053
g23
(g27
S'\xdc\x04\x00\x00'
p2054
tp2055
Rp2056
sVcharacter
p2057
g23
(g27
S'\xbd\x01\x00\x00'
p2058
tp2059
Rp2060
sVbelongs
p2061
g23
(g27
S'0\x01\x00\x00'
p2062
tp2063
Rp2064
sVprisoner
p2065
g23
(g27
S'%\x07\x00\x00'
p2066
tp2067
Rp2068
sVboard
p2069
g23
(g27
S'F\x01\x00\x00'
p2070
tp2071
Rp2072
sVeasy
p2073
g23
(g27
S'G\x03\x00\x00'
p2074
tp2075
Rp2076
sVsave
p2077
g23
(g27
S'\x14\x08\x00\x00'
p2078
tp2079
Rp2080
sVlatest
p2081
g23
(g27
S']\x05\x00\x00'
p2082
tp2083
Rp2084
sVgave
p2085
g23
(g27
S':\x04\x00\x00'
p2086
tp2087
Rp2088
sVmunicipal
p2089
g23
(g27
S'3\x06\x00\x00'
p2090
tp2091
Rp2092
sVpossible
p2093
g23
(g27
S'\r\x07\x00\x00'
p2094
tp2095
Rp2096
sVpossibly
p2097
g23
(g27
S'\x0e\x07\x00\x00'
p2098
tp2099
Rp2100
sVboxes
p2101
g23
(g27
S'X\x01\x00\x00'
p2102
tp2103
Rp2104
sVjudge
p2105
g23
(g27
S'&\x05\x00\x00'
p2106
tp2107
Rp2108
sVbyteland
p2109
g23
(g27
S'|\x01\x00\x00'
p2110
tp2111
Rp2112
sVunique
p2113
g23
(g27
S'\xb5\t\x00\x00'
p2114
tp2115
Rp2116
sVadvanced
p2117
g23
(g27
S'~\x00\x00\x00'
p2118
tp2119
Rp2120
sVvidhis
p2121
g23
(g27
S'\xed\t\x00\x00'
p2122
tp2123
Rp2124
sVappearing
p2125
g23
(g27
S'\xbd\x00\x00\x00'
p2126
tp2127
Rp2128
sVgift
p2129
g23
(g27
S'F\x04\x00\x00'
p2130
tp2131
Rp2132
sVperforming
p2133
g23
(g27
S'\xd5\x06\x00\x00'
p2134
tp2135
Rp2136
sV50
p2137
g23
(g27
S'=\x00\x00\x00'
p2138
tp2139
Rp2140
sVspecific
p2141
g23
(g27
S'\x9f\x08\x00\x00'
p2142
tp2143
Rp2144
sVsteps
p2145
g23
(g27
S'\xc6\x08\x00\x00'
p2146
tp2147
Rp2148
sVofficer
p2149
g23
(g27
S'{\x06\x00\x00'
p2150
tp2151
Rp2152
sVarbitrary
p2153
g23
(g27
S'\xc6\x00\x00\x00'
p2154
tp2155
Rp2156
sVtowards
p2157
g23
(g27
S'p\t\x00\x00'
p2158
tp2159
Rp2160
sVladdu
p2161
g23
(g27
S'R\x05\x00\x00'
p2162
tp2163
Rp2164
sVright
p2165
g23
(g27
S'\xdc\x07\x00\x00'
p2166
tp2167
Rp2168
sVold
p2169
g23
(g27
S'\x7f\x06\x00\x00'
p2170
tp2171
Rp2172
sVdeal
p2173
g23
(g27
S'\xaf\x02\x00\x00'
p2174
tp2175
Rp2176
sVpeople
p2177
g23
(g27
S'\xd0\x06\x00\x00'
p2178
tp2179
Rp2180
sVsridhar
p2181
g23
(g27
S'\xb0\x08\x00\x00'
p2182
tp2183
Rp2184
sVsomehow
p2185
g23
(g27
S'\x90\x08\x00\x00'
p2186
tp2187
Rp2188
sVdead
p2189
g23
(g27
S'\xae\x02\x00\x00'
p2190
tp2191
Rp2192
sValice
p2193
g23
(g27
S'\x95\x00\x00\x00'
p2194
tp2195
Rp2196
sVintern
p2197
g23
(g27
S'\xf7\x04\x00\x00'
p2198
tp2199
Rp2200
sVescape
p2201
g23
(g27
S'z\x03\x00\x00'
p2202
tp2203
Rp2204
sVcontests
p2205
g23
(g27
S'Y\x02\x00\x00'
p2206
tp2207
Rp2208
sVglance
p2209
g23
(g27
S'P\x04\x00\x00'
p2210
tp2211
Rp2212
sVconfusing
p2213
g23
(g27
S':\x02\x00\x00'
p2214
tp2215
Rp2216
sVfor
p2217
g23
(g27
S'\x01\x04\x00\x00'
p2218
tp2219
Rp2220
sVbottom
p2221
g23
(g27
S'R\x01\x00\x00'
p2222
tp2223
Rp2224
sVexhausts
p2225
g23
(g27
S'\x9c\x03\x00\x00'
p2226
tp2227
Rp2228
sVinvestigations
p2229
g23
(g27
S'\n\x05\x00\x00'
p2230
tp2231
Rp2232
sVeverything
p2233
g23
(g27
S'\x8c\x03\x00\x00'
p2234
tp2235
Rp2236
sVasking
p2237
g23
(g27
S'\xe1\x00\x00\x00'
p2238
tp2239
Rp2240
sVavatar
p2241
g23
(g27
S'\xfd\x00\x00\x00'
p2242
tp2243
Rp2244
sVholiday
p2245
g23
(g27
S'\x9c\x04\x00\x00'
p2246
tp2247
Rp2248
sVnight
p2249
g23
(g27
S'W\x06\x00\x00'
p2250
tp2251
Rp2252
sVdisappeared
p2253
g23
(g27
S'\t\x03\x00\x00'
p2254
tp2255
Rp2256
sVlosing
p2257
g23
(g27
S'\xaa\x05\x00\x00'
p2258
tp2259
Rp2260
sVtetris
p2261
g23
(g27
S'/\t\x00\x00'
p2262
tp2263
Rp2264
sVproperties
p2265
g23
(g27
S'A\x07\x00\x00'
p2266
tp2267
Rp2268
sVtakes
p2269
g23
(g27
S'\x14\t\x00\x00'
p2270
tp2271
Rp2272
sVbytelandia
p2273
g23
(g27
S'}\x01\x00\x00'
p2274
tp2275
Rp2276
sVdollars
p2277
g23
(g27
S')\x03\x00\x00'
p2278
tp2279
Rp2280
sVcitizens
p2281
g23
(g27
S'\xe9\x01\x00\x00'
p2282
tp2283
Rp2284
sVdinner
p2285
g23
(g27
S'\x00\x03\x00\x00'
p2286
tp2287
Rp2288
sVruntime
p2289
g23
(g27
S'\x02\x08\x00\x00'
p2290
tp2291
Rp2292
sVautomatically
p2293
g23
(g27
S'\xfb\x00\x00\x00'
p2294
tp2295
Rp2296
sVraised
p2297
g23
(g27
S'p\x07\x00\x00'
p2298
tp2299
Rp2300
sVcontains
p2301
g23
(g27
S'V\x02\x00\x00'
p2302
tp2303
Rp2304
sVdials
p2305
g23
(g27
S'\xf2\x02\x00\x00'
p2306
tp2307
Rp2308
sVwasting
p2309
g23
(g27
S'\x07\n\x00\x00'
p2310
tp2311
Rp2312
sVpays
p2313
g23
(g27
S'\xce\x06\x00\x00'
p2314
tp2315
Rp2316
sVobtaining
p2317
g23
(g27
S'q\x06\x00\x00'
p2318
tp2319
Rp2320
sVbound
p2321
g23
(g27
S'S\x01\x00\x00'
p2322
tp2323
Rp2324
sVson
p2325
g23
(g27
S'\x95\x08\x00\x00'
p2326
tp2327
Rp2328
sVlies
p2329
g23
(g27
S'\x80\x05\x00\x00'
p2330
tp2331
Rp2332
sVbalanced
p2333
g23
(g27
S'\x11\x01\x00\x00'
p2334
tp2335
Rp2336
sVfrightened
p2337
g23
(g27
S'!\x04\x00\x00'
p2338
tp2339
Rp2340
sVrounds
p2341
g23
(g27
S'\xf5\x07\x00\x00'
p2342
tp2343
Rp2344
sVcombinatorics
p2345
g23
(g27
S'\x13\x02\x00\x00'
p2346
tp2347
Rp2348
sVamazingly
p2349
g23
(g27
S'\xa3\x00\x00\x00'
p2350
tp2351
Rp2352
sVinitial
p2353
g23
(g27
S'\xe3\x04\x00\x00'
p2354
tp2355
Rp2356
sVtransform
p2357
g23
(g27
S'|\t\x00\x00'
p2358
tp2359
Rp2360
sVfight
p2361
g23
(g27
S'\xe2\x03\x00\x00'
p2362
tp2363
Rp2364
sVwidth
p2365
g23
(g27
S'(\n\x00\x00'
p2366
tp2367
Rp2368
sVvictorious
p2369
g23
(g27
S'\xeb\t\x00\x00'
p2370
tp2371
Rp2372
sVway
p2373
g23
(g27
S'\x0c\n\x00\x00'
p2374
tp2375
Rp2376
sVtriplets
p2377
g23
(g27
S'\x91\t\x00\x00'
p2378
tp2379
Rp2380
sVoverhead
p2381
g23
(g27
S'\xa1\x06\x00\x00'
p2382
tp2383
Rp2384
sVwar
p2385
g23
(g27
S'\x05\n\x00\x00'
p2386
tp2387
Rp2388
sVhappy
p2389
g23
(g27
S'\x80\x04\x00\x00'
p2390
tp2391
Rp2392
sVhead
p2393
g23
(g27
S'\x88\x04\x00\x00'
p2394
tp2395
Rp2396
sVform
p2397
g23
(g27
S'\n\x04\x00\x00'
p2398
tp2399
Rp2400
sVoffer
p2401
g23
(g27
S'y\x06\x00\x00'
p2402
tp2403
Rp2404
sVforming
p2405
g23
(g27
S'\x0e\x04\x00\x00'
p2406
tp2407
Rp2408
sVbecoming
p2409
g23
(g27
S'%\x01\x00\x00'
p2410
tp2411
Rp2412
sVdenoting
p2413
g23
(g27
S'\xcc\x02\x00\x00'
p2414
tp2415
Rp2416
sVencoded
p2417
g23
(g27
S'^\x03\x00\x00'
p2418
tp2419
Rp2420
sVremoved
p2421
g23
(g27
S'\xb2\x07\x00\x00'
p2422
tp2423
Rp2424
sVtrue
p2425
g23
(g27
S'\x94\t\x00\x00'
p2426
tp2427
Rp2428
sVadmiration
p2429
g23
(g27
S'|\x00\x00\x00'
p2430
tp2431
Rp2432
sVarrays
p2433
g23
(g27
S'\xd1\x00\x00\x00'
p2434
tp2435
Rp2436
sVinside
p2437
g23
(g27
S'\xe6\x04\x00\x00'
p2438
tp2439
Rp2440
sVmaximum
p2441
g23
(g27
S'\xdf\x05\x00\x00'
p2442
tp2443
Rp2444
sVdelete
p2445
g23
(g27
S'\xc3\x02\x00\x00'
p2446
tp2447
Rp2448
sV150
p2449
g23
(g27
S'\x1c\x00\x00\x00'
p2450
tp2451
Rp2452
sVcobbled
p2453
g23
(g27
S'\xfb\x01\x00\x00'
p2454
tp2455
Rp2456
sVguesses
p2457
g23
(g27
S'u\x04\x00\x00'
p2458
tp2459
Rp2460
sVsticks
p2461
g23
(g27
S'\xc7\x08\x00\x00'
p2462
tp2463
Rp2464
sVinclusive
p2465
g23
(g27
S'\xcb\x04\x00\x00'
p2466
tp2467
Rp2468
sVupset
p2469
g23
(g27
S'\xca\t\x00\x00'
p2470
tp2471
Rp2472
sVtournament
p2473
g23
(g27
S'n\t\x00\x00'
p2474
tp2475
Rp2476
sVdecrypting
p2477
g23
(g27
S'\xb7\x02\x00\x00'
p2478
tp2479
Rp2480
sVa1f
p2481
g23
(g27
S'N\x00\x00\x00'
p2482
tp2483
Rp2484
sVexist
p2485
g23
(g27
S'\x9d\x03\x00\x00'
p2486
tp2487
Rp2488
sVpromised
p2489
g23
(g27
S'?\x07\x00\x00'
p2490
tp2491
Rp2492
sVface
p2493
g23
(g27
S'\xb4\x03\x00\x00'
p2494
tp2495
Rp2496
sVmold
p2497
g23
(g27
S'\x18\x06\x00\x00'
p2498
tp2499
Rp2500
sVcheck
p2501
g23
(g27
S'\xc1\x01\x00\x00'
p2502
tp2503
Rp2504
sVconstructed
p2505
g23
(g27
S'N\x02\x00\x00'
p2506
tp2507
Rp2508
sVni
p2509
g23
(g27
S'V\x06\x00\x00'
p2510
tp2511
Rp2512
sV123
p2513
g23
(g27
S'\x18\x00\x00\x00'
p2514
tp2515
Rp2516
sVno
p2517
g23
(g27
S'Y\x06\x00\x00'
p2518
tp2519
Rp2520
sVwhereas
p2521
g23
(g27
S'\x1c\n\x00\x00'
p2522
tp2523
Rp2524
sVgenerally
p2525
g23
(g27
S'>\x04\x00\x00'
p2526
tp2527
Rp2528
sVsuccessful
p2529
g23
(g27
S'\xf2\x08\x00\x00'
p2530
tp2531
Rp2532
sVinterested
p2533
g23
(g27
S'\xf1\x04\x00\x00'
p2534
tp2535
Rp2536
sVtest
p2537
g23
(g27
S',\t\x00\x00'
p2538
tp2539
Rp2540
sVtie
p2541
g23
(g27
S'P\t\x00\x00'
p2542
tp2543
Rp2544
sVnt
p2545
g23
(g27
S'g\x06\x00\x00'
p2546
tp2547
Rp2548
sVroll
p2549
g23
(g27
S'\xeb\x07\x00\x00'
p2550
tp2551
Rp2552
sVnode
p2553
g23
(g27
S'[\x06\x00\x00'
p2554
tp2555
Rp2556
sVpicture
p2557
g23
(g27
S'\xe1\x06\x00\x00'
p2558
tp2559
Rp2560
sVmodels
p2561
g23
(g27
S'\x13\x06\x00\x00'
p2562
tp2563
Rp2564
sVwhy
p2565
g23
(g27
S'#\n\x00\x00'
p2566
tp2567
Rp2568
sVfelt
p2569
g23
(g27
S'\xd9\x03\x00\x00'
p2570
tp2571
Rp2572
sVuniformly
p2573
g23
(g27
S'\xb3\t\x00\x00'
p2574
tp2575
Rp2576
sVpolite
p2577
g23
(g27
S'\x03\x07\x00\x00'
p2578
tp2579
Rp2580
sVjourney
p2581
g23
(g27
S'$\x05\x00\x00'
p2582
tp2583
Rp2584
sVscores
p2585
g23
(g27
S' \x08\x00\x00'
p2586
tp2587
Rp2588
sVvariable
p2589
g23
(g27
S'\xd8\t\x00\x00'
p2590
tp2591
Rp2592
sVfaster
p2593
g23
(g27
S'\xcc\x03\x00\x00'
p2594
tp2595
Rp2596
sVassume
p2597
g23
(g27
S'\xe8\x00\x00\x00'
p2598
tp2599
Rp2600
sVinterval
p2601
g23
(g27
S'\xfe\x04\x00\x00'
p2602
tp2603
Rp2604
sVtogether
p2605
g23
(g27
S'\\\t\x00\x00'
p2606
tp2607
Rp2608
sVtime
p2609
g23
(g27
S'T\t\x00\x00'
p2610
tp2611
Rp2612
sVnxm
p2613
g23
(g27
S'm\x06\x00\x00'
p2614
tp2615
Rp2616
sVn1
p2617
g23
(g27
S'9\x06\x00\x00'
p2618
tp2619
Rp2620
sVn2
p2621
g23
(g27
S':\x06\x00\x00'
p2622
tp2623
Rp2624
sVbackward
p2625
g23
(g27
S'\x0e\x01\x00\x00'
p2626
tp2627
Rp2628
sVgranama
p2629
g23
(g27
S']\x04\x00\x00'
p2630
tp2631
Rp2632
sVshop
p2633
g23
(g27
S'[\x08\x00\x00'
p2634
tp2635
Rp2636
sVcoach
p2637
g23
(g27
S'\xfa\x01\x00\x00'
p2638
tp2639
Rp2640
sVmanaged
p2641
g23
(g27
S'\xc9\x05\x00\x00'
p2642
tp2643
Rp2644
sVdance
p2645
g23
(g27
S'\xa3\x02\x00\x00'
p2646
tp2647
Rp2648
sVparticular
p2649
g23
(g27
S'\xbf\x06\x00\x00'
p2650
tp2651
Rp2652
sVactivated
p2653
g23
(g27
S'n\x00\x00\x00'
p2654
tp2655
Rp2656
sVfocus
p2657
g23
(g27
S'\xf9\x03\x00\x00'
p2658
tp2659
Rp2660
sVinvent
p2661
g23
(g27
S'\x03\x05\x00\x00'
p2662
tp2663
Rp2664
sVlubrication
p2665
g23
(g27
S'\xb8\x05\x00\x00'
p2666
tp2667
Rp2668
sVleads
p2669
g23
(g27
S'e\x05\x00\x00'
p2670
tp2671
Rp2672
sVbattle
p2673
g23
(g27
S'\x1b\x01\x00\x00'
p2674
tp2675
Rp2676
sVchair
p2677
g23
(g27
S'\xb4\x01\x00\x00'
p2678
tp2679
Rp2680
sVinvolved
p2681
g23
(g27
S'\x0e\x05\x00\x00'
p2682
tp2683
Rp2684
sVrectangles
p2685
g23
(g27
S'\x97\x07\x00\x00'
p2686
tp2687
Rp2688
sVrecharge
p2689
g23
(g27
S'\x91\x07\x00\x00'
p2690
tp2691
Rp2692
sVvenice
p2693
g23
(g27
S'\xe2\t\x00\x00'
p2694
tp2695
Rp2696
sVdepend
p2697
g23
(g27
S'\xcd\x02\x00\x00'
p2698
tp2699
Rp2700
sVclarification
p2701
g23
(g27
S'\xeb\x01\x00\x00'
p2702
tp2703
Rp2704
sVzone
p2705
g23
(g27
S'q\n\x00\x00'
p2706
tp2707
Rp2708
sVgraph
p2709
g23
(g27
S'_\x04\x00\x00'
p2710
tp2711
Rp2712
sVtechnique
p2713
g23
(g27
S'&\t\x00\x00'
p2714
tp2715
Rp2716
sVfather
p2717
g23
(g27
S'\xcf\x03\x00\x00'
p2718
tp2719
Rp2720
sVcharge
p2721
g23
(g27
S'\xbf\x01\x00\x00'
p2722
tp2723
Rp2724
sVmarks
p2725
g23
(g27
S'\xd2\x05\x00\x00'
p2726
tp2727
Rp2728
sVbrown
p2729
g23
(g27
S'g\x01\x00\x00'
p2730
tp2731
Rp2732
sVstring
p2733
g23
(g27
S'\xd7\x08\x00\x00'
p2734
tp2735
Rp2736
sVfrequencies
p2737
g23
(g27
S'\x1a\x04\x00\x00'
p2738
tp2739
Rp2740
sVchoice
p2741
g23
(g27
S'\xd4\x01\x00\x00'
p2742
tp2743
Rp2744
sVsherlock
p2745
g23
(g27
S'S\x08\x00\x00'
p2746
tp2747
Rp2748
sVvegas
p2749
g23
(g27
S'\xe1\t\x00\x00'
p2750
tp2751
Rp2752
sVentries
p2753
g23
(g27
S'm\x03\x00\x00'
p2754
tp2755
Rp2756
sVcook
p2757
g23
(g27
S'e\x02\x00\x00'
p2758
tp2759
Rp2760
sVkadabras
p2761
g23
(g27
S'-\x05\x00\x00'
p2762
tp2763
Rp2764
sVminute
p2765
g23
(g27
S'\x08\x06\x00\x00'
p2766
tp2767
Rp2768
sVimpressive
p2769
g23
(g27
S'\xc5\x04\x00\x00'
p2770
tp2771
Rp2772
sVsolves
p2773
g23
(g27
S'\x8d\x08\x00\x00'
p2774
tp2775
Rp2776
sVsolver
p2777
g23
(g27
S'\x8c\x08\x00\x00'
p2778
tp2779
Rp2780
sVturns
p2781
g23
(g27
S'\x9e\t\x00\x00'
p2782
tp2783
Rp2784
sVbrother
p2785
g23
(g27
S'e\x01\x00\x00'
p2786
tp2787
Rp2788
sVtravels
p2789
g23
(g27
S'\x85\t\x00\x00'
p2790
tp2791
Rp2792
sVsolved
p2793
g23
(g27
S'\x8b\x08\x00\x00'
p2794
tp2795
Rp2796
sVbikes
p2797
g23
(g27
S';\x01\x00\x00'
p2798
tp2799
Rp2800
sVteam
p2801
g23
(g27
S'"\t\x00\x00'
p2802
tp2803
Rp2804
sVguy
p2805
g23
(g27
S'z\x04\x00\x00'
p2806
tp2807
Rp2808
sVround
p2809
g23
(g27
S'\xf3\x07\x00\x00'
p2810
tp2811
Rp2812
sVupper
p2813
g23
(g27
S'\xc8\t\x00\x00'
p2814
tp2815
Rp2816
sVtalked
p2817
g23
(g27
S'\x17\t\x00\x00'
p2818
tp2819
Rp2820
sVslower
p2821
g23
(g27
S'\x83\x08\x00\x00'
p2822
tp2823
Rp2824
sVminion
p2825
g23
(g27
S'\x07\x06\x00\x00'
p2826
tp2827
Rp2828
sVsign
p2829
g23
(g27
S'l\x08\x00\x00'
p2830
tp2831
Rp2832
sVcost
p2833
g23
(g27
S't\x02\x00\x00'
p2834
tp2835
Rp2836
sVrun
p2837
g23
(g27
S'\xfe\x07\x00\x00'
p2838
tp2839
Rp2840
sVappear
p2841
g23
(g27
S'\xbc\x00\x00\x00'
p2842
tp2843
Rp2844
sVximembers
p2845
g23
(g27
S'T\n\x00\x00'
p2846
tp2847
Rp2848
sVcurrent
p2849
g23
(g27
S'\x95\x02\x00\x00'
p2850
tp2851
Rp2852
sV1018
p2853
g23
(g27
S'\n\x00\x00\x00'
p2854
tp2855
Rp2856
sVgoes
p2857
g23
(g27
S'U\x04\x00\x00'
p2858
tp2859
Rp2860
sVshared
p2861
g23
(g27
S'N\x08\x00\x00'
p2862
tp2863
Rp2864
sVfalling
p2865
g23
(g27
S'\xc1\x03\x00\x00'
p2866
tp2867
Rp2868
sVbn
p2869
g23
(g27
S'E\x01\x00\x00'
p2870
tp2871
Rp2872
sVfilled
p2873
g23
(g27
S'\xe4\x03\x00\x00'
p2874
tp2875
Rp2876
sVsatisfy
p2877
g23
(g27
S'\x12\x08\x00\x00'
p2878
tp2879
Rp2880
sVburn
p2881
g23
(g27
S's\x01\x00\x00'
p2882
tp2883
Rp2884
sVunderstanding
p2885
g23
(g27
S'\xad\t\x00\x00'
p2886
tp2887
Rp2888
sVwater
p2889
g23
(g27
S'\n\n\x00\x00'
p2890
tp2891
Rp2892
sVcoloring
p2893
g23
(g27
S'\x0c\x02\x00\x00'
p2894
tp2895
Rp2896
sVgroups
p2897
g23
(g27
S'm\x04\x00\x00'
p2898
tp2899
Rp2900
sValong
p2901
g23
(g27
S'\x9a\x00\x00\x00'
p2902
tp2903
Rp2904
sVteaches
p2905
g23
(g27
S'!\t\x00\x00'
p2906
tp2907
Rp2908
sVappears
p2909
g23
(g27
S'\xbe\x00\x00\x00'
p2910
tp2911
Rp2912
sVchange
p2913
g23
(g27
S'\xba\x01\x00\x00'
p2914
tp2915
Rp2916
sVwait
p2917
g23
(g27
S'\xfc\t\x00\x00'
p2918
tp2919
Rp2920
sVbox
p2921
g23
(g27
S'W\x01\x00\x00'
p2922
tp2923
Rp2924
sVboy
p2925
g23
(g27
S'Y\x01\x00\x00'
p2926
tp2927
Rp2928
sVbrilliant
p2929
g23
(g27
S'b\x01\x00\x00'
p2930
tp2931
Rp2932
sVvectors
p2933
g23
(g27
S'\xe0\t\x00\x00'
p2934
tp2935
Rp2936
sVusually
p2937
g23
(g27
S'\xd4\t\x00\x00'
p2938
tp2939
Rp2940
sVbob
p2941
g23
(g27
S'H\x01\x00\x00'
p2942
tp2943
Rp2944
sVtasks
p2945
g23
(g27
S'\x1a\t\x00\x00'
p2946
tp2947
Rp2948
sVlove
p2949
g23
(g27
S'\xb1\x05\x00\x00'
p2950
tp2951
Rp2952
sVciel
p2953
g23
(g27
S'\xde\x01\x00\x00'
p2954
tp2955
Rp2956
sVf2
p2957
g23
(g27
S'\xb0\x03\x00\x00'
p2958
tp2959
Rp2960
sVmarked
p2961
g23
(g27
S'\xcf\x05\x00\x00'
p2962
tp2963
Rp2964
sVbullock
p2965
g23
(g27
S'o\x01\x00\x00'
p2966
tp2967
Rp2968
sV1st
p2969
g23
(g27
S'!\x00\x00\x00'
p2970
tp2971
Rp2972
sVwicktes
p2973
g23
(g27
S"'\n\x00\x00"
p2974
tp2975
Rp2976
sVcrisis
p2977
g23
(g27
S'\x8b\x02\x00\x00'
p2978
tp2979
Rp2980
sVmarket
p2981
g23
(g27
S'\xd0\x05\x00\x00'
p2982
tp2983
Rp2984
sVeverybody
p2985
g23
(g27
S'\x89\x03\x00\x00'
p2986
tp2987
Rp2988
sVwealth
p2989
g23
(g27
S'\x0f\n\x00\x00'
p2990
tp2991
Rp2992
sVworking
p2993
g23
(g27
S'A\n\x00\x00'
p2994
tp2995
Rp2996
sVprove
p2997
g23
(g27
S'J\x07\x00\x00'
p2998
tp2999
Rp3000
sVpositive
p3001
g23
(g27
S'\x0b\x07\x00\x00'
p3002
tp3003
Rp3004
sVangry
p3005
g23
(g27
S'\xaf\x00\x00\x00'
p3006
tp3007
Rp3008
sV747
p3009
g23
(g27
S'C\x00\x00\x00'
p3010
tp3011
Rp3012
sVvisit
p3013
g23
(g27
S'\xf5\t\x00\x00'
p3014
tp3015
Rp3016
sVwicket
p3017
g23
(g27
S'%\n\x00\x00'
p3018
tp3019
Rp3020
sVlive
p3021
g23
(g27
S'\x94\x05\x00\x00'
p3022
tp3023
Rp3024
sVgoing
p3025
g23
(g27
S'V\x04\x00\x00'
p3026
tp3027
Rp3028
sVwondering
p3029
g23
(g27
S'9\n\x00\x00'
p3030
tp3031
Rp3032
sVcriteria
p3033
g23
(g27
S'\x8c\x02\x00\x00'
p3034
tp3035
Rp3036
sVtoday
p3037
g23
(g27
S'[\t\x00\x00'
p3038
tp3039
Rp3040
sVwicked
p3041
g23
(g27
S'$\n\x00\x00'
p3042
tp3043
Rp3044
sVsharing
p3045
g23
(g27
S'O\x08\x00\x00'
p3046
tp3047
Rp3048
sVacbd
p3049
g23
(g27
S'b\x00\x00\x00'
p3050
tp3051
Rp3052
sVshare
p3053
g23
(g27
S'M\x08\x00\x00'
p3054
tp3055
Rp3056
sVcorresponding
p3057
g23
(g27
S'q\x02\x00\x00'
p3058
tp3059
Rp3060
sVcases
p3061
g23
(g27
S'\xa5\x01\x00\x00'
p3062
tp3063
Rp3064
sVgiven
p3065
g23
(g27
S'M\x04\x00\x00'
p3066
tp3067
Rp3068
sVfly
p3069
g23
(g27
S'\xf8\x03\x00\x00'
p3070
tp3071
Rp3072
sVanything
p3073
g23
(g27
S'\xba\x00\x00\x00'
p3074
tp3075
Rp3076
sVavoiding
p3077
g23
(g27
S'\x02\x01\x00\x00'
p3078
tp3079
Rp3080
sVpretend
p3081
g23
(g27
S'\x1c\x07\x00\x00'
p3082
tp3083
Rp3084
sVmodified
p3085
g23
(g27
S'\x14\x06\x00\x00'
p3086
tp3087
Rp3088
sVbelieves
p3089
g23
(g27
S'.\x01\x00\x00'
p3090
tp3091
Rp3092
sVreviews
p3093
g23
(g27
S'\xd7\x07\x00\x00'
p3094
tp3095
Rp3096
sVsous
p3097
g23
(g27
S'\x9a\x08\x00\x00'
p3098
tp3099
Rp3100
sVvalues
p3101
g23
(g27
S'\xd7\t\x00\x00'
p3102
tp3103
Rp3104
sVfollowing
p3105
g23
(g27
S'\xfc\x03\x00\x00'
p3106
tp3107
Rp3108
sVcab
p3109
g23
(g27
S'\x87\x01\x00\x00'
p3110
tp3111
Rp3112
sVarrive
p3113
g23
(g27
S'\xd4\x00\x00\x00'
p3114
tp3115
Rp3116
sVgeeky
p3117
g23
(g27
S'<\x04\x00\x00'
p3118
tp3119
Rp3120
sVclassrooms
p3121
g23
(g27
S'\xf1\x01\x00\x00'
p3122
tp3123
Rp3124
sVmonths
p3125
g23
(g27
S'\x1d\x06\x00\x00'
p3126
tp3127
Rp3128
sVfigure
p3129
g23
(g27
S'\xe3\x03\x00\x00'
p3130
tp3131
Rp3132
sVdecember
p3133
g23
(g27
S'\xb0\x02\x00\x00'
p3134
tp3135
Rp3136
sVawesome
p3137
g23
(g27
S'\x05\x01\x00\x00'
p3138
tp3139
Rp3140
sVpermutations
p3141
g23
(g27
S'\xd7\x06\x00\x00'
p3142
tp3143
Rp3144
sVconfused
p3145
g23
(g27
S'9\x02\x00\x00'
p3146
tp3147
Rp3148
sVagent
p3149
g23
(g27
S'\x84\x00\x00\x00'
p3150
tp3151
Rp3152
sVsample
p3153
g23
(g27
S'\x0b\x08\x00\x00'
p3154
tp3155
Rp3156
sVlocks
p3157
g23
(g27
S'\x9d\x05\x00\x00'
p3158
tp3159
Rp3160
sVchih
p3161
g23
(g27
S'\xce\x01\x00\x00'
p3162
tp3163
Rp3164
sVperformed
p3165
g23
(g27
S'\xd4\x06\x00\x00'
p3166
tp3167
Rp3168
sVallowed
p3169
g23
(g27
S'\x98\x00\x00\x00'
p3170
tp3171
Rp3172
sVcounting
p3173
g23
(g27
S'}\x02\x00\x00'
p3174
tp3175
Rp3176
sVevidently
p3177
g23
(g27
S'\x8d\x03\x00\x00'
p3178
tp3179
Rp3180
sVlistens
p3181
g23
(g27
S'\x91\x05\x00\x00'
p3182
tp3183
Rp3184
sVfortunately
p3185
g23
(g27
S'\x11\x04\x00\x00'
p3186
tp3187
Rp3188
sVdiscussion
p3189
g23
(g27
S'\x10\x03\x00\x00'
p3190
tp3191
Rp3192
sVwatching
p3193
g23
(g27
S'\t\n\x00\x00'
p3194
tp3195
Rp3196
sVrange
p3197
g23
(g27
S'w\x07\x00\x00'
p3198
tp3199
Rp3200
sVwrite
p3201
g23
(g27
S'I\n\x00\x00'
p3202
tp3203
Rp3204
sVtill
p3205
g23
(g27
S'S\t\x00\x00'
p3206
tp3207
Rp3208
sVrubik
p3209
g23
(g27
S'\xfa\x07\x00\x00'
p3210
tp3211
Rp3212
sVelephant
p3213
g23
(g27
S'W\x03\x00\x00'
p3214
tp3215
Rp3216
sVtile
p3217
g23
(g27
S'Q\t\x00\x00'
p3218
tp3219
Rp3220
sVoptimal
p3221
g23
(g27
S'\x8b\x06\x00\x00'
p3222
tp3223
Rp3224
sVguarantee
p3225
g23
(g27
S'r\x04\x00\x00'
p3226
tp3227
Rp3228
sVparameter
p3229
g23
(g27
S'\xb9\x06\x00\x00'
p3230
tp3231
Rp3232
sVmap
p3233
g23
(g27
S'\xce\x05\x00\x00'
p3234
tp3235
Rp3236
sVproduct
p3237
g23
(g27
S'1\x07\x00\x00'
p3238
tp3239
Rp3240
sVexplorer
p3241
g23
(g27
S'\xa5\x03\x00\x00'
p3242
tp3243
Rp3244
sVinformation
p3245
g23
(g27
S'\xdf\x04\x00\x00'
p3246
tp3247
Rp3248
sVmay
p3249
g23
(g27
S'\xe0\x05\x00\x00'
p3250
tp3251
Rp3252
sVmax
p3253
g23
(g27
S'\xdc\x05\x00\x00'
p3254
tp3255
Rp3256
sVneeds
p3257
g23
(g27
S'I\x06\x00\x00'
p3258
tp3259
Rp3260
sVstraightforwardly
p3261
g23
(g27
S'\xd1\x08\x00\x00'
p3262
tp3263
Rp3264
sVbirthday
p3265
g23
(g27
S'>\x01\x00\x00'
p3266
tp3267
Rp3268
sVdesigned
p3269
g23
(g27
S'\xd4\x02\x00\x00'
p3270
tp3271
Rp3272
sVdate
p3273
g23
(g27
S'\xa7\x02\x00\x00'
p3274
tp3275
Rp3276
sVsuch
p3277
g23
(g27
S'\xf3\x08\x00\x00'
p3278
tp3279
Rp3280
sVguys
p3281
g23
(g27
S'{\x04\x00\x00'
p3282
tp3283
Rp3284
sVgrow
p3285
g23
(g27
S'n\x04\x00\x00'
p3286
tp3287
Rp3288
sVman
p3289
g23
(g27
S'\xc8\x05\x00\x00'
p3290
tp3291
Rp3292
sVclassroom
p3293
g23
(g27
S'\xf0\x01\x00\x00'
p3294
tp3295
Rp3296
sVvayu
p3297
g23
(g27
S'\xde\t\x00\x00'
p3298
tp3299
Rp3300
sVremember
p3301
g23
(g27
S'\xae\x07\x00\x00'
p3302
tp3303
Rp3304
sVsucceeded
p3305
g23
(g27
S'\xf0\x08\x00\x00'
p3306
tp3307
Rp3308
sVwhenever
p3309
g23
(g27
S'\x1b\n\x00\x00'
p3310
tp3311
Rp3312
sVmaybe
p3313
g23
(g27
S'\xe1\x05\x00\x00'
p3314
tp3315
Rp3316
sVapproximation
p3317
g23
(g27
S'\xc4\x00\x00\x00'
p3318
tp3319
Rp3320
sVkillers
p3321
g23
(g27
S'8\x05\x00\x00'
p3322
tp3323
Rp3324
sVso
p3325
g23
(g27
S'\x86\x08\x00\x00'
p3326
tp3327
Rp3328
sVdevu
p3329
g23
(g27
S'\xeb\x02\x00\x00'
p3330
tp3331
Rp3332
sVdefinitions
p3333
g23
(g27
S'\xc0\x02\x00\x00'
p3334
tp3335
Rp3336
sVtruce
p3337
g23
(g27
S'\x93\t\x00\x00'
p3338
tp3339
Rp3340
sVtalk
p3341
g23
(g27
S'\x16\t\x00\x00'
p3342
tp3343
Rp3344
sVbreaking
p3345
g23
(g27
S'`\x01\x00\x00'
p3346
tp3347
Rp3348
sVshield
p3349
g23
(g27
S'U\x08\x00\x00'
p3350
tp3351
Rp3352
sVwishing
p3353
g23
(g27
S'3\n\x00\x00'
p3354
tp3355
Rp3356
sVyears
p3357
g23
(g27
S'a\n\x00\x00'
p3358
tp3359
Rp3360
sVprofessors
p3361
g23
(g27
S'4\x07\x00\x00'
p3362
tp3363
Rp3364
sVcourse
p3365
g23
(g27
S'\x82\x02\x00\x00'
p3366
tp3367
Rp3368
sVtth
p3369
g23
(g27
S'\x9a\t\x00\x00'
p3370
tp3371
Rp3372
sVcuts
p3373
g23
(g27
S'\x99\x02\x00\x00'
p3374
tp3375
Rp3376
sVdiffers
p3377
g23
(g27
S'\xf9\x02\x00\x00'
p3378
tp3379
Rp3380
sVstatements
p3381
g23
(g27
S'\xbf\x08\x00\x00'
p3382
tp3383
Rp3384
sVcold
p3385
g23
(g27
S'\x01\x02\x00\x00'
p3386
tp3387
Rp3388
sVstill
p3389
g23
(g27
S'\xc8\x08\x00\x00'
p3390
tp3391
Rp3392
sVbirds
p3393
g23
(g27
S'=\x01\x00\x00'
p3394
tp3395
Rp3396
sVshudders
p3397
g23
(g27
S'e\x08\x00\x00'
p3398
tp3399
Rp3400
sVavid
p3401
g23
(g27
S'\x00\x01\x00\x00'
p3402
tp3403
Rp3404
sVgroup
p3405
g23
(g27
S'l\x04\x00\x00'
p3406
tp3407
Rp3408
sVinteresting
p3409
g23
(g27
S'\xf2\x04\x00\x00'
p3410
tp3411
Rp3412
sVdecreases
p3413
g23
(g27
S'\xb6\x02\x00\x00'
p3414
tp3415
Rp3416
sVforms
p3417
g23
(g27
S'\x0f\x04\x00\x00'
p3418
tp3419
Rp3420
sVcontinue
p3421
g23
(g27
S'[\x02\x00\x00'
p3422
tp3423
Rp3424
sVmain
p3425
g23
(g27
S'\xc3\x05\x00\x00'
p3426
tp3427
Rp3428
sVnon
p3429
g23
(g27
S']\x06\x00\x00'
p3430
tp3431
Rp3432
sVthereby
p3433
g23
(g27
S'9\t\x00\x00'
p3434
tp3435
Rp3436
sVrokda
p3437
g23
(g27
S'\xe9\x07\x00\x00'
p3438
tp3439
Rp3440
sVprofession
p3441
g23
(g27
S'2\x07\x00\x00'
p3442
tp3443
Rp3444
sVinsomnia
p3445
g23
(g27
S'\xe7\x04\x00\x00'
p3446
tp3447
Rp3448
sVboats
p3449
g23
(g27
S'G\x01\x00\x00'
p3450
tp3451
Rp3452
sVtouching
p3453
g23
(g27
S'i\t\x00\x00'
p3454
tp3455
Rp3456
sVnot
p3457
g23
(g27
S'a\x06\x00\x00'
p3458
tp3459
Rp3460
sVnow
p3461
g23
(g27
S'f\x06\x00\x00'
p3462
tp3463
Rp3464
sVkilled
p3465
g23
(g27
S'7\x05\x00\x00'
p3466
tp3467
Rp3468
sVwont
p3469
g23
(g27
S';\n\x00\x00'
p3470
tp3471
Rp3472
sVinversion
p3473
g23
(g27
S'\x06\x05\x00\x00'
p3474
tp3475
Rp3476
sVequality
p3477
g23
(g27
S'r\x03\x00\x00'
p3478
tp3479
Rp3480
sVname
p3481
g23
(g27
S'=\x06\x00\x00'
p3482
tp3483
Rp3484
sVdrop
p3485
g23
(g27
S'7\x03\x00\x00'
p3486
tp3487
Rp3488
sVpossibilities
p3489
g23
(g27
S'\x0c\x07\x00\x00'
p3490
tp3491
Rp3492
sVintrigued
p3493
g23
(g27
S'\x00\x05\x00\x00'
p3494
tp3495
Rp3496
sVbowling
p3497
g23
(g27
S'V\x01\x00\x00'
p3498
tp3499
Rp3500
sVentirely
p3501
g23
(g27
S'l\x03\x00\x00'
p3502
tp3503
Rp3504
sVturtle
p3505
g23
(g27
S'\x9f\t\x00\x00'
p3506
tp3507
Rp3508
sVen
p3509
g23
(g27
S']\x03\x00\x00'
p3510
tp3511
Rp3512
sVretrieve
p3513
g23
(g27
S'\xd0\x07\x00\x00'
p3514
tp3515
Rp3516
sVek
p3517
g23
(g27
S'T\x03\x00\x00'
p3518
tp3519
Rp3520
sVchallenged
p3521
g23
(g27
S'\xb7\x01\x00\x00'
p3522
tp3523
Rp3524
sVeg
p3525
g23
(g27
S'R\x03\x00\x00'
p3526
tp3527
Rp3528
sVchallenges
p3529
g23
(g27
S'\xb8\x01\x00\x00'
p3530
tp3531
Rp3532
sVyear
p3533
g23
(g27
S'`\n\x00\x00'
p3534
tp3535
Rp3536
sVcolorings
p3537
g23
(g27
S'\r\x02\x00\x00'
p3538
tp3539
Rp3540
sVgirl
p3541
g23
(g27
S'I\x04\x00\x00'
p3542
tp3543
Rp3544
sVcalling
p3545
g23
(g27
S'\x91\x01\x00\x00'
p3546
tp3547
Rp3548
sVneighbourhood
p3549
g23
(g27
S'N\x06\x00\x00'
p3550
tp3551
Rp3552
sVplans
p3553
g23
(g27
S'\xf3\x06\x00\x00'
p3554
tp3555
Rp3556
sVliving
p3557
g23
(g27
S'\x96\x05\x00\x00'
p3558
tp3559
Rp3560
sVshown
p3561
g23
(g27
S'b\x08\x00\x00'
p3562
tp3563
Rp3564
sVcontainer
p3565
g23
(g27
S'T\x02\x00\x00'
p3566
tp3567
Rp3568
sVopened
p3569
g23
(g27
S'\x87\x06\x00\x00'
p3570
tp3571
Rp3572
sV3rd
p3573
g23
(g27
S'5\x00\x00\x00'
p3574
tp3575
Rp3576
sVspace
p3577
g23
(g27
S'\x9b\x08\x00\x00'
p3578
tp3579
Rp3580
sVprofit
p3581
g23
(g27
S'5\x07\x00\x00'
p3582
tp3583
Rp3584
sVfurthermore
p3585
g23
(g27
S'.\x04\x00\x00'
p3586
tp3587
Rp3588
sVthirst
p3589
g23
(g27
S'F\t\x00\x00'
p3590
tp3591
Rp3592
sVbawanian
p3593
g23
(g27
S'\x1d\x01\x00\x00'
p3594
tp3595
Rp3596
sVlooking
p3597
g23
(g27
S'\xa3\x05\x00\x00'
p3598
tp3599
Rp3600
sVcollisions
p3601
g23
(g27
S'\t\x02\x00\x00'
p3602
tp3603
Rp3604
sVcontained
p3605
g23
(g27
S'S\x02\x00\x00'
p3606
tp3607
Rp3608
sVstuff
p3609
g23
(g27
S'\xe1\x08\x00\x00'
p3610
tp3611
Rp3612
sVshameless
p3613
g23
(g27
S'K\x08\x00\x00'
p3614
tp3615
Rp3616
sVinternet
p3617
g23
(g27
S'\xf9\x04\x00\x00'
p3618
tp3619
Rp3620
sVformula
p3621
g23
(g27
S'\x10\x04\x00\x00'
p3622
tp3623
Rp3624
sVreceiving
p3625
g23
(g27
S'\x8f\x07\x00\x00'
p3626
tp3627
Rp3628
sVcorrect
p3629
g23
(g27
S'm\x02\x00\x00'
p3630
tp3631
Rp3632
sVshows
p3633
g23
(g27
S'c\x08\x00\x00'
p3634
tp3635
Rp3636
sVvaruna
p3637
g23
(g27
S'\xdc\t\x00\x00'
p3638
tp3639
Rp3640
sVajai
p3641
g23
(g27
S'\x8e\x00\x00\x00'
p3642
tp3643
Rp3644
sVtheory
p3645
g23
(g27
S'7\t\x00\x00'
p3646
tp3647
Rp3648
sVstate
p3649
g23
(g27
S'\xbd\x08\x00\x00'
p3650
tp3651
Rp3652
sVcars
p3653
g23
(g27
S'\xa1\x01\x00\x00'
p3654
tp3655
Rp3656
sVcontain
p3657
g23
(g27
S'R\x02\x00\x00'
p3658
tp3659
Rp3660
sVcart
p3661
g23
(g27
S'\xa2\x01\x00\x00'
p3662
tp3663
Rp3664
sVquite
p3665
g23
(g27
S'c\x07\x00\x00'
p3666
tp3667
Rp3668
sVcomplicated
p3669
g23
(g27
S'&\x02\x00\x00'
p3670
tp3671
Rp3672
sVbumpy
p3673
g23
(g27
S'p\x01\x00\x00'
p3674
tp3675
Rp3676
sVe4
p3677
g23
(g27
S'@\x03\x00\x00'
p3678
tp3679
Rp3680
sVe1
p3681
g23
(g27
S'=\x03\x00\x00'
p3682
tp3683
Rp3684
sVcard
p3685
g23
(g27
S'\x9c\x01\x00\x00'
p3686
tp3687
Rp3688
sVe2
p3689
g23
(g27
S'>\x03\x00\x00'
p3690
tp3691
Rp3692
sVadvance
p3693
g23
(g27
S'}\x00\x00\x00'
p3694
tp3695
Rp3696
sVfixed
p3697
g23
(g27
S'\xf2\x03\x00\x00'
p3698
tp3699
Rp3700
sVlanguage
p3701
g23
(g27
S'U\x05\x00\x00'
p3702
tp3703
Rp3704
sVprogramming
p3705
g23
(g27
S'9\x07\x00\x00'
p3706
tp3707
Rp3708
sVkingdoms
p3709
g23
(g27
S'@\x05\x00\x00'
p3710
tp3711
Rp3712
sVthing
p3713
g23
(g27
S'@\t\x00\x00'
p3714
tp3715
Rp3716
sVplace
p3717
g23
(g27
S'\xe7\x06\x00\x00'
p3718
tp3719
Rp3720
sVna2a
p3721
g23
(g27
S'<\x06\x00\x00'
p3722
tp3723
Rp3724
sVthink
p3725
g23
(g27
S'B\t\x00\x00'
p3726
tp3727
Rp3728
sVteammates
p3729
g23
(g27
S'#\t\x00\x00'
p3730
tp3731
Rp3732
sVfirst
p3733
g23
(g27
S'\xee\x03\x00\x00'
p3734
tp3735
Rp3736
sVxi
p3737
g23
(g27
S'R\n\x00\x00'
p3738
tp3739
Rp3740
sVxn
p3741
g23
(g27
S'W\n\x00\x00'
p3742
tp3743
Rp3744
sVxm
p3745
g23
(g27
S'V\n\x00\x00'
p3746
tp3747
Rp3748
sVxb
p3749
g23
(g27
S'Q\n\x00\x00'
p3750
tp3751
Rp3752
sVvariables
p3753
g23
(g27
S'\xd9\t\x00\x00'
p3754
tp3755
Rp3756
sVxa
p3757
g23
(g27
S'P\n\x00\x00'
p3758
tp3759
Rp3760
sVblink
p3761
g23
(g27
S'B\x01\x00\x00'
p3762
tp3763
Rp3764
sVfetches
p3765
g23
(g27
S'\xdc\x03\x00\x00'
p3766
tp3767
Rp3768
sVlong
p3769
g23
(g27
S'\x9f\x05\x00\x00'
p3770
tp3771
Rp3772
sVsuspended
p3773
g23
(g27
S'\x04\t\x00\x00'
p3774
tp3775
Rp3776
sVcarry
p3777
g23
(g27
S'\x9f\x01\x00\x00'
p3778
tp3779
Rp3780
sVimpossible
p3781
g23
(g27
S'\xc3\x04\x00\x00'
p3782
tp3783
Rp3784
sVarray
p3785
g23
(g27
S'\xd0\x00\x00\x00'
p3786
tp3787
Rp3788
sVopen
p3789
g23
(g27
S'\x86\x06\x00\x00'
p3790
tp3791
Rp3792
sVtomorrow
p3793
g23
(g27
S'`\t\x00\x00'
p3794
tp3795
Rp3796
sVsize
p3797
g23
(g27
S'}\x08\x00\x00'
p3798
tp3799
Rp3800
sVcity
p3801
g23
(g27
S'\xea\x01\x00\x00'
p3802
tp3803
Rp3804
sVlittle
p3805
g23
(g27
S'\x93\x05\x00\x00'
p3806
tp3807
Rp3808
sVnecessarily
p3809
g23
(g27
S'E\x06\x00\x00'
p3810
tp3811
Rp3812
sVsheet
p3813
g23
(g27
S'Q\x08\x00\x00'
p3814
tp3815
Rp3816
sVeurope
p3817
g23
(g27
S'\x82\x03\x00\x00'
p3818
tp3819
Rp3820
sV747474
p3821
g23
(g27
S'D\x00\x00\x00'
p3822
tp3823
Rp3824
sVanyone
p3825
g23
(g27
S'\xb9\x00\x00\x00'
p3826
tp3827
Rp3828
sVindicate
p3829
g23
(g27
S'\xd6\x04\x00\x00'
p3830
tp3831
Rp3832
sVreturns
p3833
g23
(g27
S'\xd3\x07\x00\x00'
p3834
tp3835
Rp3836
sVwhite
p3837
g23
(g27
S' \n\x00\x00'
p3838
tp3839
Rp3840
sVstructures
p3841
g23
(g27
S'\xdd\x08\x00\x00'
p3842
tp3843
Rp3844
sVfriend
p3845
g23
(g27
S'\x1d\x04\x00\x00'
p3846
tp3847
Rp3848
sVgives
p3849
g23
(g27
S'N\x04\x00\x00'
p3850
tp3851
Rp3852
sVbobo
p3853
g23
(g27
S'I\x01\x00\x00'
p3854
tp3855
Rp3856
sVeyes
p3857
g23
(g27
S'\xae\x03\x00\x00'
p3858
tp3859
Rp3860
sVfraction
p3861
g23
(g27
S'\x16\x04\x00\x00'
p3862
tp3863
Rp3864
sVthat
p3865
g23
(g27
S'1\t\x00\x00'
p3866
tp3867
Rp3868
sVseason
p3869
g23
(g27
S'$\x08\x00\x00'
p3870
tp3871
Rp3872
sVtuziks
p3873
g23
(g27
S'\xa2\t\x00\x00'
p3874
tp3875
Rp3876
sVaccurately
p3877
g23
(g27
S'e\x00\x00\x00'
p3878
tp3879
Rp3880
sVx2
p3881
g23
(g27
S'N\n\x00\x00'
p3882
tp3883
Rp3884
sVx3
p3885
g23
(g27
S'O\n\x00\x00'
p3886
tp3887
Rp3888
sVrightmost
p3889
g23
(g27
S'\xdd\x07\x00\x00'
p3890
tp3891
Rp3892
sVcopy
p3893
g23
(g27
S'k\x02\x00\x00'
p3894
tp3895
Rp3896
sVrepresenting
p3897
g23
(g27
S'\xbc\x07\x00\x00'
p3898
tp3899
Rp3900
sVcoefficients
p3901
g23
(g27
S'\xfd\x01\x00\x00'
p3902
tp3903
Rp3904
sVboyfriend
p3905
g23
(g27
S'Z\x01\x00\x00'
p3906
tp3907
Rp3908
sV11
p3909
g23
(g27
S'\x12\x00\x00\x00'
p3910
tp3911
Rp3912
sV10
p3913
g23
(g27
S'\x05\x00\x00\x00'
p3914
tp3915
Rp3916
sVanalyze
p3917
g23
(g27
S'\xaa\x00\x00\x00'
p3918
tp3919
Rp3920
sVswarglok
p3921
g23
(g27
S'\x06\t\x00\x00'
p3922
tp3923
Rp3924
sVthird
p3925
g23
(g27
S'E\t\x00\x00'
p3926
tp3927
Rp3928
sV17
p3929
g23
(g27
S'\x1d\x00\x00\x00'
p3930
tp3931
Rp3932
sVrival
p3933
g23
(g27
S'\xe1\x07\x00\x00'
p3934
tp3935
Rp3936
sVrequire
p3937
g23
(g27
S'\xbe\x07\x00\x00'
p3938
tp3939
Rp3940
sVprotected
p3941
g23
(g27
S'F\x07\x00\x00'
p3942
tp3943
Rp3944
sVventure
p3945
g23
(g27
S'\xe3\t\x00\x00'
p3946
tp3947
Rp3948
sVfruits
p3949
g23
(g27
S'#\x04\x00\x00'
p3950
tp3951
Rp3952
sVcards
p3953
g23
(g27
S'\x9d\x01\x00\x00'
p3954
tp3955
Rp3956
sVprefers
p3957
g23
(g27
S'\x16\x07\x00\x00'
p3958
tp3959
Rp3960
sVand
p3961
g23
(g27
S'\xad\x00\x00\x00'
p3962
tp3963
Rp3964
sVturned
p3965
g23
(g27
S'\x9d\t\x00\x00'
p3966
tp3967
Rp3968
sVlocations
p3969
g23
(g27
S'\x9b\x05\x00\x00'
p3970
tp3971
Rp3972
sVsad
p3973
g23
(g27
S'\x06\x08\x00\x00'
p3974
tp3975
Rp3976
sVsay
p3977
g23
(g27
S'\x18\x08\x00\x00'
p3978
tp3979
Rp3980
sVdevraj
p3981
g23
(g27
S'\xe8\x02\x00\x00'
p3982
tp3983
Rp3984
sVans
p3985
g23
(g27
S'\xb4\x00\x00\x00'
p3986
tp3987
Rp3988
sVsaw
p3989
g23
(g27
S'\x17\x08\x00\x00'
p3990
tp3991
Rp3992
sVhates
p3993
g23
(g27
S'\x85\x04\x00\x00'
p3994
tp3995
Rp3996
sVbatting
p3997
g23
(g27
S'\x1a\x01\x00\x00'
p3998
tp3999
Rp4000
sVwarsaw
p4001
g23
(g27
S'\x06\n\x00\x00'
p4002
tp4003
Rp4004
sVefficient
p4005
g23
(g27
S'P\x03\x00\x00'
p4006
tp4007
Rp4008
sVanswering
p4009
g23
(g27
S'\xb6\x00\x00\x00'
p4010
tp4011
Rp4012
sVideas
p4013
g23
(g27
S'\xb2\x04\x00\x00'
p4014
tp4015
Rp4016
sVzoo
p4017
g23
(g27
S'r\n\x00\x00'
p4018
tp4019
Rp4020
sVwandered
p4021
g23
(g27
S'\x00\n\x00\x00'
p4022
tp4023
Rp4024
sVintends
p4025
g23
(g27
S'\xef\x04\x00\x00'
p4026
tp4027
Rp4028
sVtake
p4029
g23
(g27
S'\x12\t\x00\x00'
p4030
tp4031
Rp4032
sVdestroy
p4033
g23
(g27
S'\xda\x02\x00\x00'
p4034
tp4035
Rp4036
sVstrengths
p4037
g23
(g27
S'\xd6\x08\x00\x00'
p4038
tp4039
Rp4040
sVmodulus
p4041
g23
(g27
S'\x17\x06\x00\x00'
p4042
tp4043
Rp4044
sVswitching
p4045
g23
(g27
S'\x07\t\x00\x00'
p4046
tp4047
Rp4048
sV200
p4049
g23
(g27
S'$\x00\x00\x00'
p4050
tp4051
Rp4052
sVbegin
p4053
g23
(g27
S'(\x01\x00\x00'
p4054
tp4055
Rp4056
sVsure
p4057
g23
(g27
S'\x00\t\x00\x00'
p4058
tp4059
Rp4060
sVmultiple
p4061
g23
(g27
S'.\x06\x00\x00'
p4062
tp4063
Rp4064
sVtrace
p4065
g23
(g27
S'u\t\x00\x00'
p4066
tp4067
Rp4068
sVukrainian
p4069
g23
(g27
S'\xa9\t\x00\x00'
p4070
tp4071
Rp4072
sVtrack
p4073
g23
(g27
S'v\t\x00\x00'
p4074
tp4075
Rp4076
sVprice
p4077
g23
(g27
S'!\x07\x00\x00'
p4078
tp4079
Rp4080
sVenter
p4081
g23
(g27
S'i\x03\x00\x00'
p4082
tp4083
Rp4084
sVfalls
p4085
g23
(g27
S'\xc2\x03\x00\x00'
p4086
tp4087
Rp4088
sValgebraic
p4089
g23
(g27
S'\x93\x00\x00\x00'
p4090
tp4091
Rp4092
sVordinates
p4093
g23
(g27
S'\x96\x06\x00\x00'
p4094
tp4095
Rp4096
sVsheets
p4097
g23
(g27
S'R\x08\x00\x00'
p4098
tp4099
Rp4100
sVpair
p4101
g23
(g27
S'\xb0\x06\x00\x00'
p4102
tp4103
Rp4104
sVforever
p4105
g23
(g27
S'\x06\x04\x00\x00'
p4106
tp4107
Rp4108
sVespecially
p4109
g23
(g27
S'|\x03\x00\x00'
p4110
tp4111
Rp4112
sVconsidered
p4113
g23
(g27
S'C\x02\x00\x00'
p4114
tp4115
Rp4116
sVaverage
p4117
g23
(g27
S'\xfe\x00\x00\x00'
p4118
tp4119
Rp4120
sVproud
p4121
g23
(g27
S'I\x07\x00\x00'
p4122
tp4123
Rp4124
sVhungry
p4125
g23
(g27
S'\xa9\x04\x00\x00'
p4126
tp4127
Rp4128
sVtestcase
p4129
g23
(g27
S'-\t\x00\x00'
p4130
tp4131
Rp4132
sVfederal
p4133
g23
(g27
S'\xd2\x03\x00\x00'
p4134
tp4135
Rp4136
sVaxe
p4137
g23
(g27
S'\x08\x01\x00\x00'
p4138
tp4139
Rp4140
sVsigma
p4141
g23
(g27
S'k\x08\x00\x00'
p4142
tp4143
Rp4144
sVquantity
p4145
g23
(g27
S']\x07\x00\x00'
p4146
tp4147
Rp4148
sVdetective
p4149
g23
(g27
S'\xde\x02\x00\x00'
p4150
tp4151
Rp4152
sVrating
p4153
g23
(g27
S'}\x07\x00\x00'
p4154
tp4155
Rp4156
sVwalking
p4157
g23
(g27
S'\xff\t\x00\x00'
p4158
tp4159
Rp4160
sVspaced
p4161
g23
(g27
S'\x9c\x08\x00\x00'
p4162
tp4163
Rp4164
sVshow
p4165
g23
(g27
S'`\x08\x00\x00'
p4166
tp4167
Rp4168
sVrecipe
p4169
g23
(g27
S'\x92\x07\x00\x00'
p4170
tp4171
Rp4172
sVdiscovered
p4173
g23
(g27
S'\x0e\x03\x00\x00'
p4174
tp4175
Rp4176
sVvolunteer
p4177
g23
(g27
S'\xfb\t\x00\x00'
p4178
tp4179
Rp4180
sVcorner
p4181
g23
(g27
S'l\x02\x00\x00'
p4182
tp4183
Rp4184
sVground
p4185
g23
(g27
S'k\x04\x00\x00'
p4186
tp4187
Rp4188
sVcolours
p4189
g23
(g27
S'\x0f\x02\x00\x00'
p4190
tp4191
Rp4192
sVslow
p4193
g23
(g27
S'\x82\x08\x00\x00'
p4194
tp4195
Rp4196
sVdice
p4197
g23
(g27
S'\xf4\x02\x00\x00'
p4198
tp4199
Rp4200
sVtitle
p4201
g23
(g27
S'W\t\x00\x00'
p4202
tp4203
Rp4204
sVtreasure
p4205
g23
(g27
S'\x87\t\x00\x00'
p4206
tp4207
Rp4208
sVoutside
p4209
g23
(g27
S'\x9f\x06\x00\x00'
p4210
tp4211
Rp4212
sVonly
p4213
g23
(g27
S'\x85\x06\x00\x00'
p4214
tp4215
Rp4216
sVwood
p4217
g23
(g27
S'<\n\x00\x00'
p4218
tp4219
Rp4220
sVblack
p4221
g23
(g27
S'A\x01\x00\x00'
p4222
tp4223
Rp4224
sVrecipes
p4225
g23
(g27
S'\x93\x07\x00\x00'
p4226
tp4227
Rp4228
sVhippo
p4229
g23
(g27
S'\x99\x04\x00\x00'
p4230
tp4231
Rp4232
sVcorrectly
p4233
g23
(g27
S'n\x02\x00\x00'
p4234
tp4235
Rp4236
sVget
p4237
g23
(g27
S'B\x04\x00\x00'
p4238
tp4239
Rp4240
sVassistant
p4241
g23
(g27
S'\xe7\x00\x00\x00'
p4242
tp4243
Rp4244
sVexpectation
p4245
g23
(g27
S'\xa0\x03\x00\x00'
p4246
tp4247
Rp4248
sVtruly
p4249
g23
(g27
S'\x95\t\x00\x00'
p4250
tp4251
Rp4252
sVrokdas
p4253
g23
(g27
S'\xea\x07\x00\x00'
p4254
tp4255
Rp4256
sVcannot
p4257
g23
(g27
S'\x96\x01\x00\x00'
p4258
tp4259
Rp4260
sVnegative
p4261
g23
(g27
S'J\x06\x00\x00'
p4262
tp4263
Rp4264
sVdistinctly
p4265
g23
(g27
S'\x1c\x03\x00\x00'
p4266
tp4267
Rp4268
sVboundary
p4269
g23
(g27
S'T\x01\x00\x00'
p4270
tp4271
Rp4272
sVprime
p4273
g23
(g27
S'"\x07\x00\x00'
p4274
tp4275
Rp4276
sVregarding
p4277
g23
(g27
S'\x9e\x07\x00\x00'
p4278
tp4279
Rp4280
sVpimp
p4281
g23
(g27
S'\xe4\x06\x00\x00'
p4282
tp4283
Rp4284
sVmorning
p4285
g23
(g27
S'"\x06\x00\x00'
p4286
tp4287
Rp4288
sVwiki
p4289
g23
(g27
S')\n\x00\x00'
p4290
tp4291
Rp4292
sVreveals
p4293
g23
(g27
S'\xd4\x07\x00\x00'
p4294
tp4295
Rp4296
sVdeclared
p4297
g23
(g27
S'\xb5\x02\x00\x00'
p4298
tp4299
Rp4300
sVbounds
p4301
g23
(g27
S'U\x01\x00\x00'
p4302
tp4303
Rp4304
sVrelative
p4305
g23
(g27
S'\xa7\x07\x00\x00'
p4306
tp4307
Rp4308
sVnamely
p4309
g23
(g27
S'?\x06\x00\x00'
p4310
tp4311
Rp4312
sVcollege
p4313
g23
(g27
S'\x08\x02\x00\x00'
p4314
tp4315
Rp4316
sVviolates
p4317
g23
(g27
S'\xf3\t\x00\x00'
p4318
tp4319
Rp4320
sVencouraged
p4321
g23
(g27
S'`\x03\x00\x00'
p4322
tp4323
Rp4324
sVdexter
p4325
g23
(g27
S'\xee\x02\x00\x00'
p4326
tp4327
Rp4328
sVsatisfying
p4329
g23
(g27
S'\x13\x08\x00\x00'
p4330
tp4331
Rp4332
sVparent
p4333
g23
(g27
S'\xba\x06\x00\x00'
p4334
tp4335
Rp4336
sVways
p4337
g23
(g27
S'\r\n\x00\x00'
p4338
tp4339
Rp4340
sVsubsequent
p4341
g23
(g27
S'\xea\x08\x00\x00'
p4342
tp4343
Rp4344
sVfascinated
p4345
g23
(g27
S'\xca\x03\x00\x00'
p4346
tp4347
Rp4348
sVlabel
p4349
g23
(g27
S'O\x05\x00\x00'
p4350
tp4351
Rp4352
sVspoons
p4353
g23
(g27
S'\xac\x08\x00\x00'
p4354
tp4355
Rp4356
sVenough
p4357
g23
(g27
S'h\x03\x00\x00'
p4358
tp4359
Rp4360
sVenumerated
p4361
g23
(g27
S'p\x03\x00\x00'
p4362
tp4363
Rp4364
sVjth
p4365
g23
(g27
S'%\x05\x00\x00'
p4366
tp4367
Rp4368
sVwhats
p4369
g23
(g27
S'\x18\n\x00\x00'
p4370
tp4371
Rp4372
sVmandarin
p4373
g23
(g27
S'\xca\x05\x00\x00'
p4374
tp4375
Rp4376
sVacross
p4377
g23
(g27
S'l\x00\x00\x00'
p4378
tp4379
Rp4380
sVarrival
p4381
g23
(g27
S'\xd3\x00\x00\x00'
p4382
tp4383
Rp4384
sVnotice
p4385
g23
(g27
S'd\x06\x00\x00'
p4386
tp4387
Rp4388
sVvertical
p4389
g23
(g27
S'\xe7\t\x00\x00'
p4390
tp4391
Rp4392
sVrapidly
p4393
g23
(g27
S'y\x07\x00\x00'
p4394
tp4395
Rp4396
sVarticle
p4397
g23
(g27
S'\xda\x00\x00\x00'
p4398
tp4399
Rp4400
sVcities
p4401
g23
(g27
S'\xe7\x01\x00\x00'
p4402
tp4403
Rp4404
sVcome
p4405
g23
(g27
S'\x14\x02\x00\x00'
p4406
tp4407
Rp4408
sVpostage
p4409
g23
(g27
S'\x0f\x07\x00\x00'
p4410
tp4411
Rp4412
sVcircumference
p4413
g23
(g27
S'\xe6\x01\x00\x00'
p4414
tp4415
Rp4416
sVmany
p4417
g23
(g27
S'\xcd\x05\x00\x00'
p4418
tp4419
Rp4420
sVaccording
p4421
g23
(g27
S'd\x00\x00\x00'
p4422
tp4423
Rp4424
sVcalled
p4425
g23
(g27
S'\x90\x01\x00\x00'
p4426
tp4427
Rp4428
sVtour
p4429
g23
(g27
S'k\t\x00\x00'
p4430
tp4431
Rp4432
sVefficiently
p4433
g23
(g27
S'Q\x03\x00\x00'
p4434
tp4435
Rp4436
sVcomet
p4437
g23
(g27
S'\x16\x02\x00\x00'
p4438
tp4439
Rp4440
sVwheels
p4441
g23
(g27
S'\x1a\n\x00\x00'
p4442
tp4443
Rp4444
sVexpression
p4445
g23
(g27
S'\xa8\x03\x00\x00'
p4446
tp4447
Rp4448
sVcomes
p4449
g23
(g27
S'\x15\x02\x00\x00'
p4450
tp4451
Rp4452
sVnearby
p4453
g23
(g27
S'D\x06\x00\x00'
p4454
tp4455
Rp4456
sVamong
p4457
g23
(g27
S'\xa4\x00\x00\x00'
p4458
tp4459
Rp4460
sVloveliest
p4461
g23
(g27
S'\xb3\x05\x00\x00'
p4462
tp4463
Rp4464
sVcolor
p4465
g23
(g27
S'\n\x02\x00\x00'
p4466
tp4467
Rp4468
sVtrio
p4469
g23
(g27
S'\x8e\t\x00\x00'
p4470
tp4471
Rp4472
sV60
p4473
g23
(g27
S'>\x00\x00\x00'
p4474
tp4475
Rp4476
sViterations
p4477
g23
(g27
S'\x19\x05\x00\x00'
p4478
tp4479
Rp4480
sVmoreover
p4481
g23
(g27
S'!\x06\x00\x00'
p4482
tp4483
Rp4484
sVconsider
p4485
g23
(g27
S'A\x02\x00\x00'
p4486
tp4487
Rp4488
sVconsiders
p4489
g23
(g27
S'E\x02\x00\x00'
p4490
tp4491
Rp4492
sVmath
p4493
g23
(g27
S'\xd6\x05\x00\x00'
p4494
tp4495
Rp4496
sVconsidering
p4497
g23
(g27
S'D\x02\x00\x00'
p4498
tp4499
Rp4500
sVdestroyed
p4501
g23
(g27
S'\xdb\x02\x00\x00'
p4502
tp4503
Rp4504
sVunusual
p4505
g23
(g27
S'\xc2\t\x00\x00'
p4506
tp4507
Rp4508
sVxvj
p4509
g23
(g27
S'[\n\x00\x00'
p4510
tp4511
Rp4512
sVcapable
p4513
g23
(g27
S'\x98\x01\x00\x00'
p4514
tp4515
Rp4516
sVencryption
p4517
g23
(g27
S'a\x03\x00\x00'
p4518
tp4519
Rp4520
sVinformed
p4521
g23
(g27
S'\xe0\x04\x00\x00'
p4522
tp4523
Rp4524
sVconcede
p4525
g23
(g27
S'.\x02\x00\x00'
p4526
tp4527
Rp4528
sVbreath
p4529
g23
(g27
S'a\x01\x00\x00'
p4530
tp4531
Rp4532
sVwants
p4533
g23
(g27
S'\x04\n\x00\x00'
p4534
tp4535
Rp4536
sVdirection
p4537
g23
(g27
S'\x05\x03\x00\x00'
p4538
tp4539
Rp4540
sVshopping
p4541
g23
(g27
S'\\\x08\x00\x00'
p4542
tp4543
Rp4544
sVoffered
p4545
g23
(g27
S'z\x06\x00\x00'
p4546
tp4547
Rp4548
sVformed
p4549
g23
(g27
S'\x0c\x04\x00\x00'
p4550
tp4551
Rp4552
sV6s
p4553
g23
(g27
S'?\x00\x00\x00'
p4554
tp4555
Rp4556
sVcareful
p4557
g23
(g27
S'\x9e\x01\x00\x00'
p4558
tp4559
Rp4560
sVspirit
p4561
g23
(g27
S'\xa6\x08\x00\x00'
p4562
tp4563
Rp4564
sVcase
p4565
g23
(g27
S'\xa4\x01\x00\x00'
p4566
tp4567
Rp4568
sVdisconnected
p4569
g23
(g27
S'\r\x03\x00\x00'
p4570
tp4571
Rp4572
sVturtles
p4573
g23
(g27
S'\xa0\t\x00\x00'
p4574
tp4575
Rp4576
sVdeveloping
p4577
g23
(g27
S'\xe4\x02\x00\x00'
p4578
tp4579
Rp4580
sVtribal
p4581
g23
(g27
S'\x8a\t\x00\x00'
p4582
tp4583
Rp4584
sVtrick
p4585
g23
(g27
S'\x8b\t\x00\x00'
p4586
tp4587
Rp4588
sV1163962801
p4589
g23
(g27
S'\x15\x00\x00\x00'
p4590
tp4591
Rp4592
sV1100
p4593
g23
(g27
S'\x13\x00\x00\x00'
p4594
tp4595
Rp4596
sVirrespective
p4597
g23
(g27
S'\x14\x05\x00\x00'
p4598
tp4599
Rp4600
sVshops
p4601
g23
(g27
S']\x08\x00\x00'
p4602
tp4603
Rp4604
sVartapoelc
p4605
g23
(g27
S'\xd8\x00\x00\x00'
p4606
tp4607
Rp4608
sVyi
p4609
g23
(g27
S'f\n\x00\x00'
p4610
tp4611
Rp4612
sVeventually
p4613
g23
(g27
S'\x86\x03\x00\x00'
p4614
tp4615
Rp4616
sVctrc
p4617
g23
(g27
S'\x8e\x02\x00\x00'
p4618
tp4619
Rp4620
sVmiddle
p4621
g23
(g27
S'\xfe\x05\x00\x00'
p4622
tp4623
Rp4624
sVsomeone
p4625
g23
(g27
S'\x91\x08\x00\x00'
p4626
tp4627
Rp4628
sVeveryday
p4629
g23
(g27
S'\x8a\x03\x00\x00'
p4630
tp4631
Rp4632
sVworry
p4633
g23
(g27
S'D\n\x00\x00'
p4634
tp4635
Rp4636
sVdiseases
p4637
g23
(g27
S'\x12\x03\x00\x00'
p4638
tp4639
Rp4640
sVbinary
p4641
g23
(g27
S'<\x01\x00\x00'
p4642
tp4643
Rp4644
sVdifferent
p4645
g23
(g27
S'\xf8\x02\x00\x00'
p4646
tp4647
Rp4648
sVpay
p4649
g23
(g27
S'\xcc\x06\x00\x00'
p4650
tp4651
Rp4652
sVsame
p4653
g23
(g27
S'\n\x08\x00\x00'
p4654
tp4655
Rp4656
sVtrip
p4657
g23
(g27
S'\x8f\t\x00\x00'
p4658
tp4659
Rp4660
sVfood
p4661
g23
(g27
S'\xff\x03\x00\x00'
p4662
tp4663
Rp4664
sVsemesters
p4665
g23
(g27
S'9\x08\x00\x00'
p4666
tp4667
Rp4668
sVbuys
p4669
g23
(g27
S'y\x01\x00\x00'
p4670
tp4671
Rp4672
sVevents
p4673
g23
(g27
S'\x85\x03\x00\x00'
p4674
tp4675
Rp4676
sVweek
p4677
g23
(g27
S'\x10\n\x00\x00'
p4678
tp4679
Rp4680
sVfinish
p4681
g23
(g27
S'\xeb\x03\x00\x00'
p4682
tp4683
Rp4684
sVleonid
p4685
g23
(g27
S't\x05\x00\x00'
p4686
tp4687
Rp4688
sVxibananas
p4689
g23
(g27
S'S\n\x00\x00'
p4690
tp4691
Rp4692
sVpersons
p4693
g23
(g27
S'\xdb\x06\x00\x00'
p4694
tp4695
Rp4696
sVrunning
p4697
g23
(g27
S'\x00\x08\x00\x00'
p4698
tp4699
Rp4700
sVedges
p4701
g23
(g27
S'M\x03\x00\x00'
p4702
tp4703
Rp4704
sVtwo
p4705
g23
(g27
S'\xa5\t\x00\x00'
p4706
tp4707
Rp4708
sVchanging
p4709
g23
(g27
S'\xbc\x01\x00\x00'
p4710
tp4711
Rp4712
sVminimize
p4713
g23
(g27
S'\x05\x06\x00\x00'
p4714
tp4715
Rp4716
sVcosti
p4717
g23
(g27
S'v\x02\x00\x00'
p4718
tp4719
Rp4720
sVfloor
p4721
g23
(g27
S'\xf7\x03\x00\x00'
p4722
tp4723
Rp4724
sVmagical
p4725
g23
(g27
S'\xc1\x05\x00\x00'
p4726
tp4727
Rp4728
sVwithout
p4729
g23
(g27
S'5\n\x00\x00'
p4730
tp4731
Rp4732
sVsolve
p4733
g23
(g27
S'\x8a\x08\x00\x00'
p4734
tp4735
Rp4736
sVcomponents
p4737
g23
(g27
S'(\x02\x00\x00'
p4738
tp4739
Rp4740
sVmodel
p4741
g23
(g27
S'\x12\x06\x00\x00'
p4742
tp4743
Rp4744
sVreward
p4745
g23
(g27
S'\xd8\x07\x00\x00'
p4746
tp4747
Rp4748
sVdimension
p4749
g23
(g27
S'\xfd\x02\x00\x00'
p4750
tp4751
Rp4752
sV1cm
p4753
g23
(g27
S'\x1f\x00\x00\x00'
p4754
tp4755
Rp4756
sVconsisted
p4757
g23
(g27
S'G\x02\x00\x00'
p4758
tp4759
Rp4760
sVtaxi
p4761
g23
(g27
S'\x1e\t\x00\x00'
p4762
tp4763
Rp4764
sVmoney
p4765
g23
(g27
S'\x1b\x06\x00\x00'
p4766
tp4767
Rp4768
sVx1
p4769
g23
(g27
S'M\n\x00\x00'
p4770
tp4771
Rp4772
sVrest
p4773
g23
(g27
S'\xc9\x07\x00\x00'
p4774
tp4775
Rp4776
sVkill
p4777
g23
(g27
S'6\x05\x00\x00'
p4778
tp4779
Rp4780
sVtouch
p4781
g23
(g27
S'g\t\x00\x00'
p4782
tp4783
Rp4784
sVspeed
p4785
g23
(g27
S'\xa2\x08\x00\x00'
p4786
tp4787
Rp4788
sVthinking
p4789
g23
(g27
S'C\t\x00\x00'
p4790
tp4791
Rp4792
sVsenseless
p4793
g23
(g27
S'<\x08\x00\x00'
p4794
tp4795
Rp4796
sVexcept
p4797
g23
(g27
S'\x94\x03\x00\x00'
p4798
tp4799
Rp4800
sVlets
p4801
g23
(g27
S'w\x05\x00\x00'
p4802
tp4803
Rp4804
sVzeros
p4805
g23
(g27
S'p\n\x00\x00'
p4806
tp4807
Rp4808
sVkingdom
p4809
g23
(g27
S'?\x05\x00\x00'
p4810
tp4811
Rp4812
sVaround
p4813
g23
(g27
S'\xce\x00\x00\x00'
p4814
tp4815
Rp4816
sVread
p4817
g23
(g27
S'\x81\x07\x00\x00'
p4818
tp4819
Rp4820
sVdelhi
p4821
g23
(g27
S'\xc4\x02\x00\x00'
p4822
tp4823
Rp4824
sVsums
p4825
g23
(g27
S'\xfb\x08\x00\x00'
p4826
tp4827
Rp4828
sVunnecessary
p4829
g23
(g27
S'\xc1\t\x00\x00'
p4830
tp4831
Rp4832
sVatmost
p4833
g23
(g27
S'\xf1\x00\x00\x00'
p4834
tp4835
Rp4836
sVaiaj
p4837
g23
(g27
S'\x8b\x00\x00\x00'
p4838
tp4839
Rp4840
sVtraffic
p4841
g23
(g27
S'x\t\x00\x00'
p4842
tp4843
Rp4844
sVlistening
p4845
g23
(g27
S'\x90\x05\x00\x00'
p4846
tp4847
Rp4848
sVworld
p4849
g23
(g27
S'C\n\x00\x00'
p4850
tp4851
Rp4852
sVwalk
p4853
g23
(g27
S'\xfe\t\x00\x00'
p4854
tp4855
Rp4856
sVdisappointed
p4857
g23
(g27
S'\n\x03\x00\x00'
p4858
tp4859
Rp4860
sVrear
p4861
g23
(g27
S'\x89\x07\x00\x00'
p4862
tp4863
Rp4864
sVmod
p4865
g23
(g27
S'\x11\x06\x00\x00'
p4866
tp4867
Rp4868
sVacquainted
p4869
g23
(g27
S'j\x00\x00\x00'
p4870
tp4871
Rp4872
sVfortune
p4873
g23
(g27
S'\x12\x04\x00\x00'
p4874
tp4875
Rp4876
sVconducts
p4877
g23
(g27
S'6\x02\x00\x00'
p4878
tp4879
Rp4880
sVfacing
p4881
g23
(g27
S'\xb6\x03\x00\x00'
p4882
tp4883
Rp4884
sVaudience
p4885
g23
(g27
S'\xf9\x00\x00\x00'
p4886
tp4887
Rp4888
sVeither
p4889
g23
(g27
S'S\x03\x00\x00'
p4890
tp4891
Rp4892
sVoutput
p4893
g23
(g27
S'\x9e\x06\x00\x00'
p4894
tp4895
Rp4896
sVsleepless
p4897
g23
(g27
S'\x81\x08\x00\x00'
p4898
tp4899
Rp4900
sVlearning
p4901
g23
(g27
S'h\x05\x00\x00'
p4902
tp4903
Rp4904
sVexposed
p4905
g23
(g27
S'\xa6\x03\x00\x00'
p4906
tp4907
Rp4908
sVuppercase
p4909
g23
(g27
S'\xc9\t\x00\x00'
p4910
tp4911
Rp4912
sVcompetition
p4913
g23
(g27
S'"\x02\x00\x00'
p4914
tp4915
Rp4916
sVdeduce
p4917
g23
(g27
S'\xb8\x02\x00\x00'
p4918
tp4919
Rp4920
sVspecified
p4921
g23
(g27
S'\xa0\x08\x00\x00'
p4922
tp4923
Rp4924
sVthinks
p4925
g23
(g27
S'D\t\x00\x00'
p4926
tp4927
Rp4928
sVprovided
p4929
g23
(g27
S'L\x07\x00\x00'
p4930
tp4931
Rp4932
sVdimensions
p4933
g23
(g27
S'\xff\x02\x00\x00'
p4934
tp4935
Rp4936
sVstops
p4937
g23
(g27
S'\xcb\x08\x00\x00'
p4938
tp4939
Rp4940
sVprovides
p4941
g23
(g27
S'N\x07\x00\x00'
p4942
tp4943
Rp4944
sVprovider
p4945
g23
(g27
S'M\x07\x00\x00'
p4946
tp4947
Rp4948
sVcompulsion
p4949
g23
(g27
S'+\x02\x00\x00'
p4950
tp4951
Rp4952
sVlexicographically
p4953
g23
(g27
S'}\x05\x00\x00'
p4954
tp4955
Rp4956
sVrefer
p4957
g23
(g27
S'\x9d\x07\x00\x00'
p4958
tp4959
Rp4960
sVapocalyptic
p4961
g23
(g27
S'\xbb\x00\x00\x00'
p4962
tp4963
Rp4964
sVpower
p4965
g23
(g27
S'\x10\x07\x00\x00'
p4966
tp4967
Rp4968
sVseconds
p4969
g23
(g27
S"'\x08\x00\x00"
p4970
tp4971
Rp4972
sVequivalent
p4973
g23
(g27
S'x\x03\x00\x00'
p4974
tp4975
Rp4976
sVupdate
p4977
g23
(g27
S'\xc6\t\x00\x00'
p4978
tp4979
Rp4980
sVbroken
p4981
g23
(g27
S'd\x01\x00\x00'
p4982
tp4983
Rp4984
sVpolynomials
p4985
g23
(g27
S'\x07\x07\x00\x00'
p4986
tp4987
Rp4988
sVfound
p4989
g23
(g27
S'\x14\x04\x00\x00'
p4990
tp4991
Rp4992
sVearlier
p4993
g23
(g27
S'B\x03\x00\x00'
p4994
tp4995
Rp4996
sVon
p4997
g23
(g27
S'\x81\x06\x00\x00'
p4998
tp4999
Rp5000
sVstone
p5001
g23
(g27
S'\xc9\x08\x00\x00'
p5002
tp5003
Rp5004
sVcentral
p5005
g23
(g27
S'\xb2\x01\x00\x00'
p5006
tp5007
Rp5008
sVpackage
p5009
g23
(g27
S'\xa9\x06\x00\x00'
p5010
tp5011
Rp5012
sVof
p5013
g23
(g27
S'v\x06\x00\x00'
p5014
tp5015
Rp5016
sVdiscussed
p5017
g23
(g27
S'\x0f\x03\x00\x00'
p5018
tp5019
Rp5020
sVmeaning
p5021
g23
(g27
S'\xe4\x05\x00\x00'
p5022
tp5023
Rp5024
sVacm
p5025
g23
(g27
S'i\x00\x00\x00'
p5026
tp5027
Rp5028
sVmeal
p5029
g23
(g27
S'\xe2\x05\x00\x00'
p5030
tp5031
Rp5032
sVideology
p5033
g23
(g27
S'\xb6\x04\x00\x00'
p5034
tp5035
Rp5036
sVfell
p5037
g23
(g27
S'\xd7\x03\x00\x00'
p5038
tp5039
Rp5040
sVwolf
p5041
g23
(g27
S'6\n\x00\x00'
p5042
tp5043
Rp5044
sVstand
p5045
g23
(g27
S'\xb4\x08\x00\x00'
p5046
tp5047
Rp5048
sVact
p5049
g23
(g27
S'm\x00\x00\x00'
p5050
tp5051
Rp5052
sVmixed
p5053
g23
(g27
S'\x0f\x06\x00\x00'
p5054
tp5055
Rp5056
sV2x2
p5057
g23
(g27
S'/\x00\x00\x00'
p5058
tp5059
Rp5060
sVor
p5061
g23
(g27
S'\x8f\x06\x00\x00'
p5062
tp5063
Rp5064
sVroad
p5065
g23
(g27
S'\xe3\x07\x00\x00'
p5066
tp5067
Rp5068
sVorganizers
p5069
g23
(g27
S'\x99\x06\x00\x00'
p5070
tp5071
Rp5072
sVcommunication
p5073
g23
(g27
S'\x1c\x02\x00\x00'
p5074
tp5075
Rp5076
sVspreading
p5077
g23
(g27
S'\xaf\x08\x00\x00'
p5078
tp5079
Rp5080
sVdetermine
p5081
g23
(g27
S'\xe0\x02\x00\x00'
p5082
tp5083
Rp5084
sVparties
p5085
g23
(g27
S'\xc0\x06\x00\x00'
p5086
tp5087
Rp5088
sVasmany
p5089
g23
(g27
S'\xe3\x00\x00\x00'
p5090
tp5091
Rp5092
sVyour
p5093
g23
(g27
S'k\n\x00\x00'
p5094
tp5095
Rp5096
sVprepare
p5097
g23
(g27
S'\x17\x07\x00\x00'
p5098
tp5099
Rp5100
sVhes
p5101
g23
(g27
S'\x94\x04\x00\x00'
p5102
tp5103
Rp5104
sVthere
p5105
g23
(g27
S'8\t\x00\x00'
p5106
tp5107
Rp5108
sVhed
p5109
g23
(g27
S'\x8c\x04\x00\x00'
p5110
tp5111
Rp5112
sVstart
p5113
g23
(g27
S'\xb8\x08\x00\x00'
p5114
tp5115
Rp5116
sVlot
p5117
g23
(g27
S'\xac\x05\x00\x00'
p5118
tp5119
Rp5120
sVassumes
p5121
g23
(g27
S'\xe9\x00\x00\x00'
p5122
tp5123
Rp5124
sVago
p5125
g23
(g27
S'\x88\x00\x00\x00'
p5126
tp5127
Rp5128
sVcomplete
p5129
g23
(g27
S'$\x02\x00\x00'
p5130
tp5131
Rp5132
sVamongst
p5133
g23
(g27
S'\xa5\x00\x00\x00'
p5134
tp5135
Rp5136
sVland
p5137
g23
(g27
S'T\x05\x00\x00'
p5138
tp5139
Rp5140
sVtrying
p5141
g23
(g27
S'\x99\t\x00\x00'
p5142
tp5143
Rp5144
sVsubarray
p5145
g23
(g27
S'\xe3\x08\x00\x00'
p5146
tp5147
Rp5148
sVlonger
p5149
g23
(g27
S'\xa0\x05\x00\x00'
p5150
tp5151
Rp5152
sVapplying
p5153
g23
(g27
S'\xc0\x00\x00\x00'
p5154
tp5155
Rp5156
sVbucket
p5157
g23
(g27
S'j\x01\x00\x00'
p5158
tp5159
Rp5160
sVgrass
p5161
g23
(g27
S'a\x04\x00\x00'
p5162
tp5163
Rp5164
sVbeliefs
p5165
g23
(g27
S'-\x01\x00\x00'
p5166
tp5167
Rp5168
sVconnect
p5169
g23
(g27
S';\x02\x00\x00'
p5170
tp5171
Rp5172
sVstrongly
p5173
g23
(g27
S'\xdb\x08\x00\x00'
p5174
tp5175
Rp5176
sVgone
p5177
g23
(g27
S'W\x04\x00\x00'
p5178
tp5179
Rp5180
sVab
p5181
g23
(g27
S'V\x00\x00\x00'
p5182
tp5183
Rp5184
sVcinema
p5185
g23
(g27
S'\xe0\x01\x00\x00'
p5186
tp5187
Rp5188
sVtaste
p5189
g23
(g27
S'\x1b\t\x00\x00'
p5190
tp5191
Rp5192
sVcertain
p5193
g23
(g27
S'\xb3\x01\x00\x00'
p5194
tp5195
Rp5196
sVak
p5197
g23
(g27
S'\x8f\x00\x00\x00'
p5198
tp5199
Rp5200
sVdescribe
p5201
g23
(g27
S'\xd0\x02\x00\x00'
p5202
tp5203
Rp5204
sVmoved
p5205
g23
(g27
S"'\x06\x00\x00"
p5206
tp5207
Rp5208
sVdeterminant
p5209
g23
(g27
S'\xdf\x02\x00\x00'
p5210
tp5211
Rp5212
sVdeep
p5213
g23
(g27
S'\xb9\x02\x00\x00'
p5214
tp5215
Rp5216
sVan
p5217
g23
(g27
S'\xa8\x00\x00\x00'
p5218
tp5219
Rp5220
sVas
p5221
g23
(g27
S'\xdc\x00\x00\x00'
p5222
tp5223
Rp5224
sVar
p5225
g23
(g27
S'\xc5\x00\x00\x00'
p5226
tp5227
Rp5228
sVtasty
p5229
g23
(g27
S'\x1c\t\x00\x00'
p5230
tp5231
Rp5232
sVat
p5233
g23
(g27
S'\xed\x00\x00\x00'
p5234
tp5235
Rp5236
sVplanets
p5237
g23
(g27
S'\xed\x06\x00\x00'
p5238
tp5239
Rp5240
sVgirlfriend
p5241
g23
(g27
S'J\x04\x00\x00'
p5242
tp5243
Rp5244
sVax
p5245
g23
(g27
S'\x07\x01\x00\x00'
p5246
tp5247
Rp5248
sVmoves
p5249
g23
(g27
S')\x06\x00\x00'
p5250
tp5251
Rp5252
sVspends
p5253
g23
(g27
S'\xa4\x08\x00\x00'
p5254
tp5255
Rp5256
sVstorage
p5257
g23
(g27
S'\xcc\x08\x00\x00'
p5258
tp5259
Rp5260
sVfield
p5261
g23
(g27
S'\xe1\x03\x00\x00'
p5262
tp5263
Rp5264
sVvalid
p5265
g23
(g27
S'\xd5\t\x00\x00'
p5266
tp5267
Rp5268
sVmathematics
p5269
g23
(g27
S'\xd8\x05\x00\x00'
p5270
tp5271
Rp5272
sVyou
p5273
g23
(g27
S'h\n\x00\x00'
p5274
tp5275
Rp5276
sVpuppy
p5277
g23
(g27
S'P\x07\x00\x00'
p5278
tp5279
Rp5280
sVsufficient
p5281
g23
(g27
S'\xf5\x08\x00\x00'
p5282
tp5283
Rp5284
sVstudents
p5285
g23
(g27
S'\xdf\x08\x00\x00'
p5286
tp5287
Rp5288
sVvertex
p5289
g23
(g27
S'\xe6\t\x00\x00'
p5290
tp5291
Rp5292
sVgifts
p5293
g23
(g27
S'H\x04\x00\x00'
p5294
tp5295
Rp5296
sVn0
p5297
g23
(g27
S'8\x06\x00\x00'
p5298
tp5299
Rp5300
sVa3
p5301
g23
(g27
S'Q\x00\x00\x00'
p5302
tp5303
Rp5304
sVimportant
p5305
g23
(g27
S'\xc2\x04\x00\x00'
p5306
tp5307
Rp5308
sVa5
p5309
g23
(g27
S'S\x00\x00\x00'
p5310
tp5311
Rp5312
sVa4
p5313
g23
(g27
S'R\x00\x00\x00'
p5314
tp5315
Rp5316
sVa7
p5317
g23
(g27
S'U\x00\x00\x00'
p5318
tp5319
Rp5320
sVserious
p5321
g23
(g27
S'E\x08\x00\x00'
p5322
tp5323
Rp5324
sVkiev
p5325
g23
(g27
S'5\x05\x00\x00'
p5326
tp5327
Rp5328
sVbuilding
p5329
g23
(g27
S'm\x01\x00\x00'
p5330
tp5331
Rp5332
sVn3
p5333
g23
(g27
S';\x06\x00\x00'
p5334
tp5335
Rp5336
sVcalls
p5337
g23
(g27
S'\x92\x01\x00\x00'
p5338
tp5339
Rp5340
sVconstantinople
p5341
g23
(g27
S'K\x02\x00\x00'
p5342
tp5343
Rp5344
sVonce
p5345
g23
(g27
S'\x82\x06\x00\x00'
p5346
tp5347
Rp5348
sVstarting
p5349
g23
(g27
S'\xbb\x08\x00\x00'
p5350
tp5351
Rp5352
sVstrings
p5353
g23
(g27
S'\xd8\x08\x00\x00'
p5354
tp5355
Rp5356
sVrepresent
p5357
g23
(g27
S'\xb9\x07\x00\x00'
p5358
tp5359
Rp5360
sVexternally
p5361
g23
(g27
S'\xaa\x03\x00\x00'
p5362
tp5363
Rp5364
sVdist
p5365
g23
(g27
S'\x17\x03\x00\x00'
p5366
tp5367
Rp5368
sVforget
p5369
g23
(g27
S'\x07\x04\x00\x00'
p5370
tp5371
Rp5372
sVchinese
p5373
g23
(g27
S'\xd3\x01\x00\x00'
p5374
tp5375
Rp5376
sVbreadth
p5377
g23
(g27
S'_\x01\x00\x00'
p5378
tp5379
Rp5380
sValf
p5381
g23
(g27
S'\x91\x00\x00\x00'
p5382
tp5383
Rp5384
sVsplitting
p5385
g23
(g27
S'\xa8\x08\x00\x00'
p5386
tp5387
Rp5388
sVscc
p5389
g23
(g27
S'\x1a\x08\x00\x00'
p5390
tp5391
Rp5392
sVmonth
p5393
g23
(g27
S'\x1c\x06\x00\x00'
p5394
tp5395
Rp5396
sVunweighted
p5397
g23
(g27
S'\xc4\t\x00\x00'
p5398
tp5399
Rp5400
sVsergey
p5401
g23
(g27
S'C\x08\x00\x00'
p5402
tp5403
Rp5404
sVconcept
p5405
g23
(g27
S'/\x02\x00\x00'
p5406
tp5407
Rp5408
sVtalks
p5409
g23
(g27
S'\x18\t\x00\x00'
p5410
tp5411
Rp5412
sVfollow
p5413
g23
(g27
S'\xfa\x03\x00\x00'
p5414
tp5415
Rp5416
sVmeditation
p5417
g23
(g27
S'\xe9\x05\x00\x00'
p5418
tp5419
Rp5420
sVdenotes
p5421
g23
(g27
S'\xcb\x02\x00\x00'
p5422
tp5423
Rp5424
sVchildren
p5425
g23
(g27
S'\xd0\x01\x00\x00'
p5426
tp5427
Rp5428
sVcontent
p5429
g23
(g27
S'W\x02\x00\x00'
p5430
tp5431
Rp5432
sVrepetition
p5433
g23
(g27
S'\xb5\x07\x00\x00'
p5434
tp5435
Rp5436
sVtv
p5437
g23
(g27
S'\xa3\t\x00\x00'
p5438
tp5439
Rp5440
sVtr
p5441
g23
(g27
S't\t\x00\x00'
p5442
tp5443
Rp5444
sVformer
p5445
g23
(g27
S'\r\x04\x00\x00'
p5446
tp5447
Rp5448
sVtn
p5449
g23
(g27
S'Y\t\x00\x00'
p5450
tp5451
Rp5452
sVto
p5453
g23
(g27
S'Z\t\x00\x00'
p5454
tp5455
Rp5456
sVtail
p5457
g23
(g27
S'\x11\t\x00\x00'
p5458
tp5459
Rp5460
sVprogram
p5461
g23
(g27
S'6\x07\x00\x00'
p5462
tp5463
Rp5464
sVpresent
p5465
g23
(g27
S'\x1a\x07\x00\x00'
p5466
tp5467
Rp5468
sVth
p5469
g23
(g27
S'0\t\x00\x00'
p5470
tp5471
Rp5472
sVti
p5473
g23
(g27
S'M\t\x00\x00'
p5474
tp5475
Rp5476
sVnodes
p5477
g23
(g27
S'\\\x06\x00\x00'
p5478
tp5479
Rp5480
sVenjoying
p5481
g23
(g27
S'g\x03\x00\x00'
p5482
tp5483
Rp5484
sVreturned
p5485
g23
(g27
S'\xd2\x07\x00\x00'
p5486
tp5487
Rp5488
sVsong
p5489
g23
(g27
S'\x96\x08\x00\x00'
p5490
tp5491
Rp5492
sVfar
p5493
g23
(g27
S'\xc8\x03\x00\x00'
p5494
tp5495
Rp5496
sVhorror
p5497
g23
(g27
S'\xa0\x04\x00\x00'
p5498
tp5499
Rp5500
sVfat
p5501
g23
(g27
S'\xce\x03\x00\x00'
p5502
tp5503
Rp5504
sVdenoted
p5505
g23
(g27
S'\xca\x02\x00\x00'
p5506
tp5507
Rp5508
sVsons
p5509
g23
(g27
S'\x97\x08\x00\x00'
p5510
tp5511
Rp5512
sVworst
p5513
g23
(g27
S'E\n\x00\x00'
p5514
tp5515
Rp5516
sVdecide
p5517
g23
(g27
S'\xb1\x02\x00\x00'
p5518
tp5519
Rp5520
sVticket
p5521
g23
(g27
S'N\t\x00\x00'
p5522
tp5523
Rp5524
sVdifference
p5525
g23
(g27
S'\xf7\x02\x00\x00'
p5526
tp5527
Rp5528
sVrn
p5529
g23
(g27
S'\xe2\x07\x00\x00'
p5530
tp5531
Rp5532
sVcondition
p5533
g23
(g27
S'3\x02\x00\x00'
p5534
tp5535
Rp5536
sVrohith
p5537
g23
(g27
S'\xe8\x07\x00\x00'
p5538
tp5539
Rp5540
sVheaven
p5541
g23
(g27
S'\x8a\x04\x00\x00'
p5542
tp5543
Rp5544
sVt4
p5545
g23
(g27
S'\x0f\t\x00\x00'
p5546
tp5547
Rp5548
sVt2
p5549
g23
(g27
S'\r\t\x00\x00'
p5550
tp5551
Rp5552
sVt3
p5553
g23
(g27
S'\x0e\t\x00\x00'
p5554
tp5555
Rp5556
sVt0
p5557
g23
(g27
S'\x0b\t\x00\x00'
p5558
tp5559
Rp5560
sVt1
p5561
g23
(g27
S'\x0c\t\x00\x00'
p5562
tp5563
Rp5564
sVlarge
p5565
g23
(g27
S'V\x05\x00\x00'
p5566
tp5567
Rp5568
sVdinosaur
p5569
g23
(g27
S'\x01\x03\x00\x00'
p5570
tp5571
Rp5572
sVinversions
p5573
g23
(g27
S'\x07\x05\x00\x00'
p5574
tp5575
Rp5576
sVcookies
p5577
g23
(g27
S'g\x02\x00\x00'
p5578
tp5579
Rp5580
sVfence
p5581
g23
(g27
S'\xda\x03\x00\x00'
p5582
tp5583
Rp5584
sVtranslating
p5585
g23
(g27
S'}\t\x00\x00'
p5586
tp5587
Rp5588
sVzero
p5589
g23
(g27
S'n\n\x00\x00'
p5590
tp5591
Rp5592
sVpass
p5593
g23
(g27
S'\xc3\x06\x00\x00'
p5594
tp5595
Rp5596
sVsituated
p5597
g23
(g27
S'y\x08\x00\x00'
p5598
tp5599
Rp5600
sVchilds
p5601
g23
(g27
S'\xd1\x01\x00\x00'
p5602
tp5603
Rp5604
sVwhat
p5605
g23
(g27
S'\x17\n\x00\x00'
p5606
tp5607
Rp5608
sVabc
p5609
g23
(g27
S'W\x00\x00\x00'
p5610
tp5611
Rp5612
sVxor
p5613
g23
(g27
S'X\n\x00\x00'
p5614
tp5615
Rp5616
sVsub
p5617
g23
(g27
S'\xe2\x08\x00\x00'
p5618
tp5619
Rp5620
sVsection
p5621
g23
(g27
S'*\x08\x00\x00'
p5622
tp5623
Rp5624
sVc4c7
p5625
g23
(g27
S'\x82\x01\x00\x00'
p5626
tp5627
Rp5628
sVcrush
p5629
g23
(g27
S'\x8d\x02\x00\x00'
p5630
tp5631
Rp5632
sVabs
p5633
g23
(g27
S'`\x00\x00\x00'
p5634
tp5635
Rp5636
sVintersect
p5637
g23
(g27
S'\xfb\x04\x00\x00'
p5638
tp5639
Rp5640
sVscientists
p5641
g23
(g27
S'\x1e\x08\x00\x00'
p5642
tp5643
Rp5644
sVlearned
p5645
g23
(g27
S'g\x05\x00\x00'
p5646
tp5647
Rp5648
sVrow
p5649
g23
(g27
S'\xf6\x07\x00\x00'
p5650
tp5651
Rp5652
sVracing
p5653
g23
(g27
S'k\x07\x00\x00'
p5654
tp5655
Rp5656
sVguns
p5657
g23
(g27
S'y\x04\x00\x00'
p5658
tp5659
Rp5660
sVmovement
p5661
g23
(g27
S'(\x06\x00\x00'
p5662
tp5663
Rp5664
sVfull
p5665
g23
(g27
S'&\x04\x00\x00'
p5666
tp5667
Rp5668
sVloose
p5669
g23
(g27
S'\xa5\x05\x00\x00'
p5670
tp5671
Rp5672
sVcomponent
p5673
g23
(g27
S"'\x02\x00\x00"
p5674
tp5675
Rp5676
sVanswers
p5677
g23
(g27
S'\xb7\x00\x00\x00'
p5678
tp5679
Rp5680
sVbearland
p5681
g23
(g27
S'!\x01\x00\x00'
p5682
tp5683
Rp5684
sVcylindrical
p5685
g23
(g27
S'\xa0\x02\x00\x00'
p5686
tp5687
Rp5688
sVthreads
p5689
g23
(g27
S'I\t\x00\x00'
p5690
tp5691
Rp5692
sVsituation
p5693
g23
(g27
S'z\x08\x00\x00'
p5694
tp5695
Rp5696
sVdirections
p5697
g23
(g27
S'\x07\x03\x00\x00'
p5698
tp5699
Rp5700
sVsoon
p5701
g23
(g27
S'\x98\x08\x00\x00'
p5702
tp5703
Rp5704
sVequations
p5705
g23
(g27
S'v\x03\x00\x00'
p5706
tp5707
Rp5708
sVlegend
p5709
g23
(g27
S'o\x05\x00\x00'
p5710
tp5711
Rp5712
sV900
p5713
g23
(g27
S'H\x00\x00\x00'
p5714
tp5715
Rp5716
sVcolored
p5717
g23
(g27
S'\x0b\x02\x00\x00'
p5718
tp5719
Rp5720
sVdivision
p5721
g23
(g27
S'#\x03\x00\x00'
p5722
tp5723
Rp5724
sVscurry
p5725
g23
(g27
S'"\x08\x00\x00'
p5726
tp5727
Rp5728
sVamount
p5729
g23
(g27
S'\xa6\x00\x00\x00'
p5730
tp5731
Rp5732
sVarent
p5733
g23
(g27
S'\xc9\x00\x00\x00'
p5734
tp5735
Rp5736
sVsocial
p5737
g23
(g27
S'\x87\x08\x00\x00'
p5738
tp5739
Rp5740
sVuniquely
p5741
g23
(g27
S'\xb6\t\x00\x00'
p5742
tp5743
Rp5744
sVrecursion
p5745
g23
(g27
S'\x99\x07\x00\x00'
p5746
tp5747
Rp5748
sVvia
p5749
g23
(g27
S'\xea\t\x00\x00'
p5750
tp5751
Rp5752
sVshuffle
p5753
g23
(g27
S'f\x08\x00\x00'
p5754
tp5755
Rp5756
sVfamily
p5757
g23
(g27
S'\xc5\x03\x00\x00'
p5758
tp5759
Rp5760
sVask
p5761
g23
(g27
S'\xde\x00\x00\x00'
p5762
tp5763
Rp5764
sVsemester
p5765
g23
(g27
S'8\x08\x00\x00'
p5766
tp5767
Rp5768
sVtoys
p5769
g23
(g27
S's\t\x00\x00'
p5770
tp5771
Rp5772
sVselect
p5773
g23
(g27
S'3\x08\x00\x00'
p5774
tp5775
Rp5776
sVeye
p5777
g23
(g27
S'\xad\x03\x00\x00'
p5778
tp5779
Rp5780
sVproceed
p5781
g23
(g27
S'+\x07\x00\x00'
p5782
tp5783
Rp5784
sVdistinct
p5785
g23
(g27
S'\x1b\x03\x00\x00'
p5786
tp5787
Rp5788
sVdestination
p5789
g23
(g27
S'\xd8\x02\x00\x00'
p5790
tp5791
Rp5792
sVfinally
p5793
g23
(g27
S'\xe6\x03\x00\x00'
p5794
tp5795
Rp5796
sVcomparing
p5797
g23
(g27
S'!\x02\x00\x00'
p5798
tp5799
Rp5800
sVtaken
p5801
g23
(g27
S'\x13\t\x00\x00'
p5802
tp5803
Rp5804
sVmarkets
p5805
g23
(g27
S'\xd1\x05\x00\x00'
p5806
tp5807
Rp5808
sVachieving
p5809
g23
(g27
S'h\x00\x00\x00'
p5810
tp5811
Rp5812
sVmore
p5813
g23
(g27
S' \x06\x00\x00'
p5814
tp5815
Rp5816
sVbushes
p5817
g23
(g27
S'u\x01\x00\x00'
p5818
tp5819
Rp5820
sVknows
p5821
g23
(g27
S'M\x05\x00\x00'
p5822
tp5823
Rp5824
sVcompany
p5825
g23
(g27
S'\x1e\x02\x00\x00'
p5826
tp5827
Rp5828
sVspoilt
p5829
g23
(g27
S'\xaa\x08\x00\x00'
p5830
tp5831
Rp5832
sVflag
p5833
g23
(g27
S'\xf4\x03\x00\x00'
p5834
tp5835
Rp5836
sVbasically
p5837
g23
(g27
S'\x19\x01\x00\x00'
p5838
tp5839
Rp5840
sVdraughts
p5841
g23
(g27
S'/\x03\x00\x00'
p5842
tp5843
Rp5844
sVvarying
p5845
g23
(g27
S'\xdd\t\x00\x00'
p5846
tp5847
Rp5848
sVknown
p5849
g23
(g27
S'L\x05\x00\x00'
p5850
tp5851
Rp5852
sVmultiset
p5853
g23
(g27
S'1\x06\x00\x00'
p5854
tp5855
Rp5856
sVhurry
p5857
g23
(g27
S'\xaa\x04\x00\x00'
p5858
tp5859
Rp5860
sVproducing
p5861
g23
(g27
S'0\x07\x00\x00'
p5862
tp5863
Rp5864
sVabras
p5865
g23
(g27
S'^\x00\x00\x00'
p5866
tp5867
Rp5868
sVnone
p5869
g23
(g27
S'^\x06\x00\x00'
p5870
tp5871
Rp5872
sVinclude
p5873
g23
(g27
S'\xc9\x04\x00\x00'
p5874
tp5875
Rp5876
sVhour
p5877
g23
(g27
S'\xa2\x04\x00\x00'
p5878
tp5879
Rp5880
sVshielded
p5881
g23
(g27
S'V\x08\x00\x00'
p5882
tp5883
Rp5884
sVscience
p5885
g23
(g27
S'\x1d\x08\x00\x00'
p5886
tp5887
Rp5888
sVequation
p5889
g23
(g27
S'u\x03\x00\x00'
p5890
tp5891
Rp5892
sVr3
p5893
g23
(g27
S'g\x07\x00\x00'
p5894
tp5895
Rp5896
sVremain
p5897
g23
(g27
S'\xa9\x07\x00\x00'
p5898
tp5899
Rp5900
sVgreeted
p5901
g23
(g27
S'g\x04\x00\x00'
p5902
tp5903
Rp5904
sVlearn
p5905
g23
(g27
S'f\x05\x00\x00'
p5906
tp5907
Rp5908
sVpick
p5909
g23
(g27
S'\xdf\x06\x00\x00'
p5910
tp5911
Rp5912
sVf1
p5913
g23
(g27
S'\xaf\x03\x00\x00'
p5914
tp5915
Rp5916
sVcompare
p5917
g23
(g27
S'\x1f\x02\x00\x00'
p5918
tp5919
Rp5920
sVf3
p5921
g23
(g27
S'\xb1\x03\x00\x00'
p5922
tp5923
Rp5924
sVf4
p5925
g23
(g27
S'\xb2\x03\x00\x00'
p5926
tp5927
Rp5928
sVf7
p5929
g23
(g27
S'\xb3\x03\x00\x00'
p5930
tp5931
Rp5932
sVsuggestions
p5933
g23
(g27
S'\xf7\x08\x00\x00'
p5934
tp5935
Rp5936
sVstates
p5937
g23
(g27
S'\xc0\x08\x00\x00'
p5938
tp5939
Rp5940
sVminimum
p5941
g23
(g27
S'\x06\x06\x00\x00'
p5942
tp5943
Rp5944
sVnumbers
p5945
g23
(g27
S'k\x06\x00\x00'
p5946
tp5947
Rp5948
sVsense
p5949
g23
(g27
S';\x08\x00\x00'
p5950
tp5951
Rp5952
sVhuge
p5953
g23
(g27
S'\xa6\x04\x00\x00'
p5954
tp5955
Rp5956
sVrespective
p5957
g23
(g27
S'\xc6\x07\x00\x00'
p5958
tp5959
Rp5960
sVgoal
p5961
g23
(g27
S'S\x04\x00\x00'
p5962
tp5963
Rp5964
sVrather
p5965
g23
(g27
S'|\x07\x00\x00'
p5966
tp5967
Rp5968
sVacts
p5969
g23
(g27
S'q\x00\x00\x00'
p5970
tp5971
Rp5972
sVstayed
p5973
g23
(g27
S'\xc3\x08\x00\x00'
p5974
tp5975
Rp5976
sVunlucky
p5977
g23
(g27
S'\xc0\t\x00\x00'
p5978
tp5979
Rp5980
sVbrowns
p5981
g23
(g27
S'h\x01\x00\x00'
p5982
tp5983
Rp5984
sVcentimeters
p5985
g23
(g27
S'\xb1\x01\x00\x00'
p5986
tp5987
Rp5988
sVplant
p5989
g23
(g27
S'\xf4\x06\x00\x00'
p5990
tp5991
Rp5992
sVsandwich
p5993
g23
(g27
S'\x0c\x08\x00\x00'
p5994
tp5995
Rp5996
sVokay
p5997
g23
(g27
S'~\x06\x00\x00'
p5998
tp5999
Rp6000
sVtried
p6001
g23
(g27
S'\x8c\t\x00\x00'
p6002
tp6003
Rp6004
sValgebra
p6005
g23
(g27
S'\x92\x00\x00\x00'
p6006
tp6007
Rp6008
sVvariant
p6009
g23
(g27
S'\xda\t\x00\x00'
p6010
tp6011
Rp6012
sVfungus
p6013
g23
(g27
S'+\x04\x00\x00'
p6014
tp6015
Rp6016
sVtries
p6017
g23
(g27
S'\x8d\t\x00\x00'
p6018
tp6019
Rp6020
sVplane
p6021
g23
(g27
S'\xeb\x06\x00\x00'
p6022
tp6023
Rp6024
sVcoming
p6025
g23
(g27
S'\x18\x02\x00\x00'
p6026
tp6027
Rp6028
sVfi
p6029
g23
(g27
S'\xde\x03\x00\x00'
p6030
tp6031
Rp6032
sVhorizontal
p6033
g23
(g27
S'\x9f\x04\x00\x00'
p6034
tp6035
Rp6036
sVfk
p6037
g23
(g27
S'\xf3\x03\x00\x00'
p6038
tp6039
Rp6040
sVplank
p6041
g23
(g27
S'\xee\x06\x00\x00'
p6042
tp6043
Rp6044
sVshort
p6045
g23
(g27
S'^\x08\x00\x00'
p6046
tp6047
Rp6048
sVprerequisites
p6049
g23
(g27
S'\x19\x07\x00\x00'
p6050
tp6051
Rp6052
sVmeticulous
p6053
g23
(g27
S'\xfb\x05\x00\x00'
p6054
tp6055
Rp6056
sVeats
p6057
g23
(g27
S'K\x03\x00\x00'
p6058
tp6059
Rp6060
sVrenewing
p6061
g23
(g27
S'\xb4\x07\x00\x00'
p6062
tp6063
Rp6064
sVprecise
p6065
g23
(g27
S'\x14\x07\x00\x00'
p6066
tp6067
Rp6068
sVspecifying
p6069
g23
(g27
S'\xa1\x08\x00\x00'
p6070
tp6071
Rp6072
sVfundamental
p6073
g23
(g27
S')\x04\x00\x00'
p6074
tp6075
Rp6076
sVpleasure
p6077
g23
(g27
S'\xfd\x06\x00\x00'
p6078
tp6079
Rp6080
sVbreads
p6081
g23
(g27
S'^\x01\x00\x00'
p6082
tp6083
Rp6084
sVplaying
p6085
g23
(g27
S'\xf9\x06\x00\x00'
p6086
tp6087
Rp6088
sVreplied
p6089
g23
(g27
S'\xb7\x07\x00\x00'
p6090
tp6091
Rp6092
sVrounded
p6093
g23
(g27
S'\xf4\x07\x00\x00'
p6094
tp6095
Rp6096
sVhelp
p6097
g23
(g27
S'\x90\x04\x00\x00'
p6098
tp6099
Rp6100
sVith
p6101
g23
(g27
S'\x1a\x05\x00\x00'
p6102
tp6103
Rp6104
sVindra
p6105
g23
(g27
S'\xda\x04\x00\x00'
p6106
tp6107
Rp6108
sVradar
p6109
g23
(g27
S'l\x07\x00\x00'
p6110
tp6111
Rp6112
sVatmosphere
p6113
g23
(g27
S'\xf0\x00\x00\x00'
p6114
tp6115
Rp6116
sVpaper
p6117
g23
(g27
S'\xb7\x06\x00\x00'
p6118
tp6119
Rp6120
sVcommittee
p6121
g23
(g27
S'\x1a\x02\x00\x00'
p6122
tp6123
Rp6124
sVy1
p6125
g23
(g27
S'\\\n\x00\x00'
p6126
tp6127
Rp6128
sVhell
p6129
g23
(g27
S'\x8e\x04\x00\x00'
p6130
tp6131
Rp6132
sVy2
p6133
g23
(g27
S']\n\x00\x00'
p6134
tp6135
Rp6136
sVits
p6137
g23
(g27
S'\x1c\x05\x00\x00'
p6138
tp6139
Rp6140
sVdont
p6141
g23
(g27
S'+\x03\x00\x00'
p6142
tp6143
Rp6144
sV20
p6145
g23
(g27
S'#\x00\x00\x00'
p6146
tp6147
Rp6148
sV21
p6149
g23
(g27
S'%\x00\x00\x00'
p6150
tp6151
Rp6152
sV22
p6153
g23
(g27
S'&\x00\x00\x00'
p6154
tp6155
Rp6156
sVmatrices
p6157
g23
(g27
S'\xd9\x05\x00\x00'
p6158
tp6159
Rp6160
sVlateral
p6161
g23
(g27
S'\\\x05\x00\x00'
p6162
tp6163
Rp6164
sVsolving
p6165
g23
(g27
S'\x8e\x08\x00\x00'
p6166
tp6167
Rp6168
sV28
p6169
g23
(g27
S'(\x00\x00\x00'
p6170
tp6171
Rp6172
sVactually
p6173
g23
(g27
S's\x00\x00\x00'
p6174
tp6175
Rp6176
sVparts
p6177
g23
(g27
S'\xc1\x06\x00\x00'
p6178
tp6179
Rp6180
sVsystems
p6181
g23
(g27
S'\n\t\x00\x00'
p6182
tp6183
Rp6184
sVtravelling
p6185
g23
(g27
S'\x84\t\x00\x00'
p6186
tp6187
Rp6188
sVmight
p6189
g23
(g27
S'\xff\x05\x00\x00'
p6190
tp6191
Rp6192
sVfool
p6193
g23
(g27
S'\x00\x04\x00\x00'
p6194
tp6195
Rp6196
sVyj
p6197
g23
(g27
S'g\n\x00\x00'
p6198
tp6199
Rp6200
sVreturn
p6201
g23
(g27
S'\xd1\x07\x00\x00'
p6202
tp6203
Rp6204
sVya
p6205
g23
(g27
S'^\n\x00\x00'
p6206
tp6207
Rp6208
sVyb
p6209
g23
(g27
S'_\n\x00\x00'
p6210
tp6211
Rp6212
sVicpc
p6213
g23
(g27
S'\xaf\x04\x00\x00'
p6214
tp6215
Rp6216
sVvidhi
p6217
g23
(g27
S'\xec\t\x00\x00'
p6218
tp6219
Rp6220
sVeasily
p6221
g23
(g27
S'E\x03\x00\x00'
p6222
tp6223
Rp6224
sV2p
p6225
g23
(g27
S'.\x00\x00\x00'
p6226
tp6227
Rp6228
sValways
p6229
g23
(g27
S'\xa2\x00\x00\x00'
p6230
tp6231
Rp6232
sVdecimal
p6233
g23
(g27
S'\xb4\x02\x00\x00'
p6234
tp6235
Rp6236
sVlevel
p6237
g23
(g27
S'z\x05\x00\x00'
p6238
tp6239
Rp6240
sV2d
p6241
g23
(g27
S'*\x00\x00\x00'
p6242
tp6243
Rp6244
sVcourses
p6245
g23
(g27
S'\x83\x02\x00\x00'
p6246
tp6247
Rp6248
sVtoken
p6249
g23
(g27
S'^\t\x00\x00'
p6250
tp6251
Rp6252
sVpositions
p6253
g23
(g27
S'\n\x07\x00\x00'
p6254
tp6255
Rp6256
sV2m
p6257
g23
(g27
S',\x00\x00\x00'
p6258
tp6259
Rp6260
sV2n
p6261
g23
(g27
S'-\x00\x00\x00'
p6262
tp6263
Rp6264
sVfriendship
p6265
g23
(g27
S' \x04\x00\x00'
p6266
tp6267
Rp6268
sVpermutation
p6269
g23
(g27
S'\xd6\x06\x00\x00'
p6270
tp6271
Rp6272
sVheavy
p6273
g23
(g27
S'\x8b\x04\x00\x00'
p6274
tp6275
Rp6276
sVstatus
p6277
g23
(g27
S'\xc1\x08\x00\x00'
p6278
tp6279
Rp6280
sVeveryone
p6281
g23
(g27
S'\x8b\x03\x00\x00'
p6282
tp6283
Rp6284
sVanother
p6285
g23
(g27
S'\xb3\x00\x00\x00'
p6286
tp6287
Rp6288
sVweight
p6289
g23
(g27
S'\x11\n\x00\x00'
p6290
tp6291
Rp6292
sVhouse
p6293
g23
(g27
S'\xa3\x04\x00\x00'
p6294
tp6295
Rp6296
sVcontiguous
p6297
g23
(g27
S'Z\x02\x00\x00'
p6298
tp6299
Rp6300
sVhard
p6301
g23
(g27
S'\x81\x04\x00\x00'
p6302
tp6303
Rp6304
sVreduce
p6305
g23
(g27
S'\x9c\x07\x00\x00'
p6306
tp6307
Rp6308
sVidea
p6309
g23
(g27
S'\xb1\x04\x00\x00'
p6310
tp6311
Rp6312
sVused
p6313
g23
(g27
S'\xce\t\x00\x00'
p6314
tp6315
Rp6316
sVgun
p6317
g23
(g27
S'x\x04\x00\x00'
p6318
tp6319
Rp6320
sV9x9
p6321
g23
(g27
S'L\x00\x00\x00'
p6322
tp6323
Rp6324
sVobtains
p6325
g23
(g27
S'r\x06\x00\x00'
p6326
tp6327
Rp6328
sVintergers
p6329
g23
(g27
S'\xf5\x04\x00\x00'
p6330
tp6331
Rp6332
sVloops
p6333
g23
(g27
S'\xa4\x05\x00\x00'
p6334
tp6335
Rp6336
sVorganised
p6337
g23
(g27
S'\x98\x06\x00\x00'
p6338
tp6339
Rp6340
sVoperation
p6341
g23
(g27
S'\x88\x06\x00\x00'
p6342
tp6343
Rp6344
sVreally
p6345
g23
(g27
S'\x88\x07\x00\x00'
p6346
tp6347
Rp6348
sVleave
p6349
g23
(g27
S'k\x05\x00\x00'
p6350
tp6351
Rp6352
sVuninvited
p6353
g23
(g27
S'\xb4\t\x00\x00'
p6354
tp6355
Rp6356
sVdivide
p6357
g23
(g27
S'\x1f\x03\x00\x00'
p6358
tp6359
Rp6360
sVwondered
p6361
g23
(g27
S'8\n\x00\x00'
p6362
tp6363
Rp6364
sVitem
p6365
g23
(g27
S'\x17\x05\x00\x00'
p6366
tp6367
Rp6368
sVsince
p6369
g23
(g27
S't\x08\x00\x00'
p6370
tp6371
Rp6372
sVmeditating
p6373
g23
(g27
S'\xe8\x05\x00\x00'
p6374
tp6375
Rp6376
sVresearch
p6377
g23
(g27
S'\xc3\x07\x00\x00'
p6378
tp6379
Rp6380
sVsafety
p6381
g23
(g27
S'\x08\x08\x00\x00'
p6382
tp6383
Rp6384
sVprint
p6385
g23
(g27
S'$\x07\x00\x00'
p6386
tp6387
Rp6388
sVshrivel
p6389
g23
(g27
S'd\x08\x00\x00'
p6390
tp6391
Rp6392
sVfriday
p6393
g23
(g27
S'\x1c\x04\x00\x00'
p6394
tp6395
Rp6396
sVhorse
p6397
g23
(g27
S'\xa1\x04\x00\x00'
p6398
tp6399
Rp6400
sVreason
p6401
g23
(g27
S'\x8a\x07\x00\x00'
p6402
tp6403
Rp6404
sVbase
p6405
g23
(g27
S'\x17\x01\x00\x00'
p6406
tp6407
Rp6408
sVcookie
p6409
g23
(g27
S'f\x02\x00\x00'
p6410
tp6411
Rp6412
sVmembers
p6413
g23
(g27
S'\xed\x05\x00\x00'
p6414
tp6415
Rp6416
sVimagine
p6417
g23
(g27
S'\xbe\x04\x00\x00'
p6418
tp6419
Rp6420
sVput
p6421
g23
(g27
S'S\x07\x00\x00'
p6422
tp6423
Rp6424
sVash
p6425
g23
(g27
S'\xdd\x00\x00\x00'
p6426
tp6427
Rp6428
sVbeginning
p6429
g23
(g27
S')\x01\x00\x00'
p6430
tp6431
Rp6432
sVloads
p6433
g23
(g27
S'\x98\x05\x00\x00'
p6434
tp6435
Rp6436
sVthrown
p6437
g23
(g27
S'K\t\x00\x00'
p6438
tp6439
Rp6440
sVdefinition
p6441
g23
(g27
S'\xbf\x02\x00\x00'
p6442
tp6443
Rp6444
sVpairs
p6445
g23
(g27
S'\xb2\x06\x00\x00'
p6446
tp6447
Rp6448
sVcircuit
p6449
g23
(g27
S'\xe4\x01\x00\x00'
p6450
tp6451
Rp6452
sVleading
p6453
g23
(g27
S'd\x05\x00\x00'
p6454
tp6455
Rp6456
sVassign
p6457
g23
(g27
S'\xe5\x00\x00\x00'
p6458
tp6459
Rp6460
sVfeed
p6461
g23
(g27
S'\xd3\x03\x00\x00'
p6462
tp6463
Rp6464
sVmajor
p6465
g23
(g27
S'\xc4\x05\x00\x00'
p6466
tp6467
Rp6468
sVrooted
p6469
g23
(g27
S'\xef\x07\x00\x00'
p6470
tp6471
Rp6472
sVprobability
p6473
g23
(g27
S"'\x07\x00\x00"
p6474
tp6475
Rp6476
sVprevent
p6477
g23
(g27
S'\x1e\x07\x00\x00'
p6478
tp6479
Rp6480
sVnumber
p6481
g23
(g27
S'i\x06\x00\x00'
p6482
tp6483
Rp6484
sVfeet
p6485
g23
(g27
S'\xd6\x03\x00\x00'
p6486
tp6487
Rp6488
sVinfinite
p6489
g23
(g27
S'\xdb\x04\x00\x00'
p6490
tp6491
Rp6492
sVdone
p6493
g23
(g27
S'*\x03\x00\x00'
p6494
tp6495
Rp6496
sVleast
p6497
g23
(g27
S'j\x05\x00\x00'
p6498
tp6499
Rp6500
sVtraveler
p6501
g23
(g27
S'\x81\t\x00\x00'
p6502
tp6503
Rp6504
sVmiss
p6505
g23
(g27
S'\n\x06\x00\x00'
p6506
tp6507
Rp6508
sVpolygons
p6509
g23
(g27
S'\x05\x07\x00\x00'
p6510
tp6511
Rp6512
sVpasses
p6513
g23
(g27
S'\xc4\x06\x00\x00'
p6514
tp6515
Rp6516
sVguess
p6517
g23
(g27
S't\x04\x00\x00'
p6518
tp6519
Rp6520
sVguest
p6521
g23
(g27
S'v\x04\x00\x00'
p6522
tp6523
Rp6524
sVdivorce
p6525
g23
(g27
S'$\x03\x00\x00'
p6526
tp6527
Rp6528
sVconstruct
p6529
g23
(g27
S'M\x02\x00\x00'
p6530
tp6531
Rp6532
sVpaint
p6533
g23
(g27
S'\xac\x06\x00\x00'
p6534
tp6535
Rp6536
sVnoticed
p6537
g23
(g27
S'e\x06\x00\x00'
p6538
tp6539
Rp6540
sVcalculations
p6541
g23
(g27
S'\x8e\x01\x00\x00'
p6542
tp6543
Rp6544
sVrates
p6545
g23
(g27
S'{\x07\x00\x00'
p6546
tp6547
Rp6548
sVscheme
p6549
g23
(g27
S'\x1b\x08\x00\x00'
p6550
tp6551
Rp6552
sVstore
p6553
g23
(g27
S'\xcd\x08\x00\x00'
p6554
tp6555
Rp6556
sVjem
p6557
g23
(g27
S'\x1f\x05\x00\x00'
p6558
tp6559
Rp6560
sVleha
p6561
g23
(g27
S'q\x05\x00\x00'
p6562
tp6563
Rp6564
sVstatement
p6565
g23
(g27
S'\xbe\x08\x00\x00'
p6566
tp6567
Rp6568
sVrelationship
p6569
g23
(g27
S'\xa6\x07\x00\x00'
p6570
tp6571
Rp6572
sVteacher
p6573
g23
(g27
S'\x1f\t\x00\x00'
p6574
tp6575
Rp6576
sVpart
p6577
g23
(g27
S'\xbd\x06\x00\x00'
p6578
tp6579
Rp6580
sVdoctors
p6581
g23
(g27
S'%\x03\x00\x00'
p6582
tp6583
Rp6584
sValphabets
p6585
g23
(g27
S'\x9b\x00\x00\x00'
p6586
tp6587
Rp6588
sVtranslation
p6589
g23
(g27
S'~\t\x00\x00'
p6590
tp6591
Rp6592
sVconvinced
p6593
g23
(g27
S'd\x02\x00\x00'
p6594
tp6595
Rp6596
sVking
p6597
g23
(g27
S'>\x05\x00\x00'
p6598
tp6599
Rp6600
sVkind
p6601
g23
(g27
S';\x05\x00\x00'
p6602
tp6603
Rp6604
sVcyclic
p6605
g23
(g27
S'\x9e\x02\x00\x00'
p6606
tp6607
Rp6608
sVdouble
p6609
g23
(g27
S',\x03\x00\x00'
p6610
tp6611
Rp6612
sVgrey
p6613
g23
(g27
S'h\x04\x00\x00'
p6614
tp6615
Rp6616
sVdetermined
p6617
g23
(g27
S'\xe1\x02\x00\x00'
p6618
tp6619
Rp6620
sVpairwise
p6621
g23
(g27
S'\xb3\x06\x00\x00'
p6622
tp6623
Rp6624
sVrecovered
p6625
g23
(g27
S'\x95\x07\x00\x00'
p6626
tp6627
Rp6628
sVremembers
p6629
g23
(g27
S'\xb0\x07\x00\x00'
p6630
tp6631
Rp6632
sVkalki
p6633
g23
(g27
S'/\x05\x00\x00'
p6634
tp6635
Rp6636
sVbeforehand
p6637
g23
(g27
S'&\x01\x00\x00'
p6638
tp6639
Rp6640
sVbitwise
p6641
g23
(g27
S'?\x01\x00\x00'
p6642
tp6643
Rp6644
sVrandomly
p6645
g23
(g27
S'v\x07\x00\x00'
p6646
tp6647
Rp6648
sVoption
p6649
g23
(g27
S'\x8e\x06\x00\x00'
p6650
tp6651
Rp6652
sVpaths
p6653
g23
(g27
S'\xc9\x06\x00\x00'
p6654
tp6655
Rp6656
sVnights
p6657
g23
(g27
S'X\x06\x00\x00'
p6658
tp6659
Rp6660
sVbuilt
p6661
g23
(g27
S'n\x01\x00\x00'
p6662
tp6663
Rp6664
sVtrance
p6665
g23
(g27
S'{\t\x00\x00'
p6666
tp6667
Rp6668
sVself
p6669
g23
(g27
S'7\x08\x00\x00'
p6670
tp6671
Rp6672
sVnxn
p6673
g23
(g27
S'n\x06\x00\x00'
p6674
tp6675
Rp6676
sValso
p6677
g23
(g27
S'\x9d\x00\x00\x00'
p6678
tp6679
Rp6680
sVcosts
p6681
g23
(g27
S'w\x02\x00\x00'
p6682
tp6683
Rp6684
sVbuild
p6685
g23
(g27
S'l\x01\x00\x00'
p6686
tp6687
Rp6688
sVfinding
p6689
g23
(g27
S'\xe9\x03\x00\x00'
p6690
tp6691
Rp6692
sViber
p6693
g23
(g27
S'\xae\x04\x00\x00'
p6694
tp6695
Rp6696
sVplay
p6697
g23
(g27
S'\xf5\x06\x00\x00'
p6698
tp6699
Rp6700
sVadded
p6701
g23
(g27
S'v\x00\x00\x00'
p6702
tp6703
Rp6704
sVmandwarf
p6705
g23
(g27
S'\xcb\x05\x00\x00'
p6706
tp6707
Rp6708
sVbcdea
p6709
g23
(g27
S'\x1f\x01\x00\x00'
p6710
tp6711
Rp6712
sVgopu
p6713
g23
(g27
S'Y\x04\x00\x00'
p6714
tp6715
Rp6716
sVreach
p6717
g23
(g27
S'\x7f\x07\x00\x00'
p6718
tp6719
Rp6720
sV77
p6721
g23
(g27
S'F\x00\x00\x00'
p6722
tp6723
Rp6724
sVmost
p6725
g23
(g27
S'#\x06\x00\x00'
p6726
tp6727
Rp6728
sV75
p6729
g23
(g27
S'E\x00\x00\x00'
p6730
tp6731
Rp6732
sV74
p6733
g23
(g27
S'A\x00\x00\x00'
p6734
tp6735
Rp6736
sV72
p6737
g23
(g27
S'@\x00\x00\x00'
p6738
tp6739
Rp6740
sVeaten
p6741
g23
(g27
S'I\x03\x00\x00'
p6742
tp6743
Rp6744
sVtruncated
p6745
g23
(g27
S'\x96\t\x00\x00'
p6746
tp6747
Rp6748
sVfunnier
p6749
g23
(g27
S',\x04\x00\x00'
p6750
tp6751
Rp6752
sVunderstands
p6753
g23
(g27
S'\xae\t\x00\x00'
p6754
tp6755
Rp6756
sVmobile
p6757
g23
(g27
S'\x10\x06\x00\x00'
p6758
tp6759
Rp6760
sVki
p6761
g23
(g27
S'4\x05\x00\x00'
p6762
tp6763
Rp6764
sVsometimes
p6765
g23
(g27
S'\x93\x08\x00\x00'
p6766
tp6767
Rp6768
sVresearchers
p6769
g23
(g27
S'\xc4\x07\x00\x00'
p6770
tp6771
Rp6772
sVartem
p6773
g23
(g27
S'\xd9\x00\x00\x00'
p6774
tp6775
Rp6776
sVchefland
p6777
g23
(g27
S'\xc4\x01\x00\x00'
p6778
tp6779
Rp6780
sVdiverse
p6781
g23
(g27
S'\x1e\x03\x00\x00'
p6782
tp6783
Rp6784
sVlying
p6785
g23
(g27
S'\xbc\x05\x00\x00'
p6786
tp6787
Rp6788
sVstones
p6789
g23
(g27
S'\xca\x08\x00\x00'
p6790
tp6791
Rp6792
sVasphalt
p6793
g23
(g27
S'\xe4\x00\x00\x00'
p6794
tp6795
Rp6796
sVfond
p6797
g23
(g27
S'\xfe\x03\x00\x00'
p6798
tp6799
Rp6800
sVhugging
p6801
g23
(g27
S'\xa7\x04\x00\x00'
p6802
tp6803
Rp6804
sVrelation
p6805
g23
(g27
S'\xa4\x07\x00\x00'
p6806
tp6807
Rp6808
sVinventing
p6809
g23
(g27
S'\x05\x05\x00\x00'
p6810
tp6811
Rp6812
sVxipeople
p6813
g23
(g27
S'U\n\x00\x00'
p6814
tp6815
Rp6816
sVexcessive
p6817
g23
(g27
S'\x96\x03\x00\x00'
p6818
tp6819
Rp6820
sVfine
p6821
g23
(g27
S'\xea\x03\x00\x00'
p6822
tp6823
Rp6824
sVfind
p6825
g23
(g27
S'\xe8\x03\x00\x00'
p6826
tp6827
Rp6828
sVbananas
p6829
g23
(g27
S'\x14\x01\x00\x00'
p6830
tp6831
Rp6832
sVdividing
p6833
g23
(g27
S'!\x03\x00\x00'
p6834
tp6835
Rp6836
sVmerges
p6837
g23
(g27
S'\xf4\x05\x00\x00'
p6838
tp6839
Rp6840
sVunhappy
p6841
g23
(g27
S'\xb2\t\x00\x00'
p6842
tp6843
Rp6844
sVpenalty
p6845
g23
(g27
S'\xcf\x06\x00\x00'
p6846
tp6847
Rp6848
sVrubles
p6849
g23
(g27
S'\xfb\x07\x00\x00'
p6850
tp6851
Rp6852
sVpretty
p6853
g23
(g27
S'\x1d\x07\x00\x00'
p6854
tp6855
Rp6856
sVfactor
p6857
g23
(g27
S'\xb8\x03\x00\x00'
p6858
tp6859
Rp6860
sVharmed
p6861
g23
(g27
S'\x84\x04\x00\x00'
p6862
tp6863
Rp6864
sVmerged
p6865
g23
(g27
S'\xf3\x05\x00\x00'
p6866
tp6867
Rp6868
sVgains
p6869
g23
(g27
S'4\x04\x00\x00'
p6870
tp6871
Rp6872
sVconnections
p6873
g23
(g27
S'>\x02\x00\x00'
p6874
tp6875
Rp6876
sVtrees
p6877
g23
(g27
S'\x89\t\x00\x00'
p6878
tp6879
Rp6880
sVfamous
p6881
g23
(g27
S'\xc6\x03\x00\x00'
p6882
tp6883
Rp6884
sVfeels
p6885
g23
(g27
S'\xd5\x03\x00\x00'
p6886
tp6887
Rp6888
sVlongest
p6889
g23
(g27
S'\xa1\x05\x00\x00'
p6890
tp6891
Rp6892
sVhim
p6893
g23
(g27
S'\x98\x04\x00\x00'
p6894
tp6895
Rp6896
sVdevuland
p6897
g23
(g27
S'\xec\x02\x00\x00'
p6898
tp6899
Rp6900
sVfactorization
p6901
g23
(g27
S'\xba\x03\x00\x00'
p6902
tp6903
Rp6904
sVinvestigate
p6905
g23
(g27
S'\t\x05\x00\x00'
p6906
tp6907
Rp6908
sVmistakes
p6909
g23
(g27
S'\x0e\x06\x00\x00'
p6910
tp6911
Rp6912
sVcommon
p6913
g23
(g27
S'\x1b\x02\x00\x00'
p6914
tp6915
Rp6916
sVlogistic
p6917
g23
(g27
S'\x9e\x05\x00\x00'
p6918
tp6919
Rp6920
sVwrote
p6921
g23
(g27
S'L\n\x00\x00'
p6922
tp6923
Rp6924
sVrestaurants
p6925
g23
(g27
S'\xcb\x07\x00\x00'
p6926
tp6927
Rp6928
sVset
p6929
g23
(g27
S'G\x08\x00\x00'
p6930
tp6931
Rp6932
sVachieved
p6933
g23
(g27
S'f\x00\x00\x00'
p6934
tp6935
Rp6936
sVintelligence
p6937
g23
(g27
S'\xee\x04\x00\x00'
p6938
tp6939
Rp6940
sVuses
p6941
g23
(g27
S'\xd1\t\x00\x00'
p6942
tp6943
Rp6944
sVarrives
p6945
g23
(g27
S'\xd6\x00\x00\x00'
p6946
tp6947
Rp6948
sVsee
p6949
g23
(g27
S',\x08\x00\x00'
p6950
tp6951
Rp6952
sVdefense
p6953
g23
(g27
S'\xba\x02\x00\x00'
p6954
tp6955
Rp6956
sVare
p6957
g23
(g27
S'\xc7\x00\x00\x00'
p6958
tp6959
Rp6960
sVclose
p6961
g23
(g27
S'\xf6\x01\x00\x00'
p6962
tp6963
Rp6964
sVlearnt
p6965
g23
(g27
S'i\x05\x00\x00'
p6966
tp6967
Rp6968
sVvisiting
p6969
g23
(g27
S'\xf7\t\x00\x00'
p6970
tp6971
Rp6972
sVcurrently
p6973
g23
(g27
S'\x96\x02\x00\x00'
p6974
tp6975
Rp6976
sVplease
p6977
g23
(g27
S'\xfb\x06\x00\x00'
p6978
tp6979
Rp6980
sVexclaimed
p6981
g23
(g27
S'\x97\x03\x00\x00'
p6982
tp6983
Rp6984
sVconsecutive
p6985
g23
(g27
S'@\x02\x00\x00'
p6986
tp6987
Rp6988
sVconditions
p6989
g23
(g27
S'4\x02\x00\x00'
p6990
tp6991
Rp6992
sVcorruption
p6993
g23
(g27
S's\x02\x00\x00'
p6994
tp6995
Rp6996
sVknowing
p6997
g23
(g27
S'J\x05\x00\x00'
p6998
tp6999
Rp7000
sVlatin
p7001
g23
(g27
S'^\x05\x00\x00'
p7002
tp7003
Rp7004
sVrecently
p7005
g23
(g27
S'\x90\x07\x00\x00'
p7006
tp7007
Rp7008
sVmissing
p7009
g23
(g27
S'\x0c\x06\x00\x00'
p7010
tp7011
Rp7012
sVinitially
p7013
g23
(g27
S'\xe4\x04\x00\x00'
p7014
tp7015
Rp7016
sVattention
p7017
g23
(g27
S'\xf6\x00\x00\x00'
p7018
tp7019
Rp7020
sVincident
p7021
g23
(g27
S'\xc8\x04\x00\x00'
p7022
tp7023
Rp7024
sVboth
p7025
g23
(g27
S'Q\x01\x00\x00'
p7026
tp7027
Rp7028
sVlast
p7029
g23
(g27
S'Y\x05\x00\x00'
p7030
tp7031
Rp7032
sVreverse
p7033
g23
(g27
S'\xd5\x07\x00\x00'
p7034
tp7035
Rp7036
sVrestaurant
p7037
g23
(g27
S'\xca\x07\x00\x00'
p7038
tp7039
Rp7040
sVsecrets
p7041
g23
(g27
S')\x08\x00\x00'
p7042
tp7043
Rp7044
sVbecame
p7045
g23
(g27
S'"\x01\x00\x00'
p7046
tp7047
Rp7048
sVforgotten
p7049
g23
(g27
S'\t\x04\x00\x00'
p7050
tp7051
Rp7052
sVmean
p7053
g23
(g27
S'\xe3\x05\x00\x00'
p7054
tp7055
Rp7056
sVwhole
p7057
g23
(g27
S'!\n\x00\x00'
p7058
tp7059
Rp7060
sVliked
p7061
g23
(g27
S'\x84\x05\x00\x00'
p7062
tp7063
Rp7064
sVpoint
p7065
g23
(g27
S'\x01\x07\x00\x00'
p7066
tp7067
Rp7068
sVreasons
p7069
g23
(g27
S'\x8b\x07\x00\x00'
p7070
tp7071
Rp7072
sVothers
p7073
g23
(g27
S'\x9b\x06\x00\x00'
p7074
tp7075
Rp7076
sVcorresponds
p7077
g23
(g27
S'r\x02\x00\x00'
p7078
tp7079
Rp7080
sVdimensional
p7081
g23
(g27
S'\xfe\x02\x00\x00'
p7082
tp7083
Rp7084
sVsimply
p7085
g23
(g27
S'r\x08\x00\x00'
p7086
tp7087
Rp7088
sVlikes
p7089
g23
(g27
S'\x85\x05\x00\x00'
p7090
tp7091
Rp7092
sVvillage
p7093
g23
(g27
S'\xef\t\x00\x00'
p7094
tp7095
Rp7096
sVmission
p7097
g23
(g27
S'\r\x06\x00\x00'
p7098
tp7099
Rp7100
sVexpensive
p7101
g23
(g27
S'\xa2\x03\x00\x00'
p7102
tp7103
Rp7104
sVps
p7105
g23
(g27
S'O\x07\x00\x00'
p7106
tp7107
Rp7108
sVconsuming
p7109
g23
(g27
S'Q\x02\x00\x00'
p7110
tp7111
Rp7112
sVdescribed
p7113
g23
(g27
S'\xd1\x02\x00\x00'
p7114
tp7115
Rp7116
sVarrest
p7117
g23
(g27
S'\xd2\x00\x00\x00'
p7118
tp7119
Rp7120
sVstamp
p7121
g23
(g27
S'\xb2\x08\x00\x00'
p7122
tp7123
Rp7124
sVcreate
p7125
g23
(g27
S'\x86\x02\x00\x00'
p7126
tp7127
Rp7128
sVdue
p7129
g23
(g27
S';\x03\x00\x00'
p7130
tp7131
Rp7132
sVstrategy
p7133
g23
(g27
S'\xd3\x08\x00\x00'
p7134
tp7135
Rp7136
sVsecret
p7137
g23
(g27
S'(\x08\x00\x00'
p7138
tp7139
Rp7140
sVireland
p7141
g23
(g27
S'\x13\x05\x00\x00'
p7142
tp7143
Rp7144
sVcollected
p7145
g23
(g27
S'\x05\x02\x00\x00'
p7146
tp7147
Rp7148
sVpi
p7149
g23
(g27
S'\xde\x06\x00\x00'
p7150
tp7151
Rp7152
sVpn
p7153
g23
(g27
S'\xff\x06\x00\x00'
p7154
tp7155
Rp7156
sVempty
p7157
g23
(g27
S'\\\x03\x00\x00'
p7158
tp7159
Rp7160
sVresting
p7161
g23
(g27
S'\xcc\x07\x00\x00'
p7162
tp7163
Rp7164
sVpacks
p7165
g23
(g27
S'\xab\x06\x00\x00'
p7166
tp7167
Rp7168
sVfire
p7169
g23
(g27
S'\xed\x03\x00\x00'
p7170
tp7171
Rp7172
sVages
p7173
g23
(g27
S'\x86\x00\x00\x00'
p7174
tp7175
Rp7176
sVgreat
p7177
g23
(g27
S'b\x04\x00\x00'
p7178
tp7179
Rp7180
sVelse
p7181
g23
(g27
S'X\x03\x00\x00'
p7182
tp7183
Rp7184
sVlives
p7185
g23
(g27
S'\x95\x05\x00\x00'
p7186
tp7187
Rp7188
sVpresented
p7189
g23
(g27
S'\x1b\x07\x00\x00'
p7190
tp7191
Rp7192
sVe3
p7193
g23
(g27
S'?\x03\x00\x00'
p7194
tp7195
Rp7196
sVp2
p7197
g23
(g27
S'\xa8\x06\x00\x00'
p7198
tp7199
Rp7200
sVp1
p7201
g23
(g27
S'\xa7\x06\x00\x00'
p7202
tp7203
Rp7204
sVlook
p7205
g23
(g27
S'\xa2\x05\x00\x00'
p7206
tp7207
Rp7208
sVstraight
p7209
g23
(g27
S'\xd0\x08\x00\x00'
p7210
tp7211
Rp7212
sVbudget
p7213
g23
(g27
S'k\x01\x00\x00'
p7214
tp7215
Rp7216
sVsubstrings
p7217
g23
(g27
S'\xee\x08\x00\x00'
p7218
tp7219
Rp7220
sVreplaced
p7221
g23
(g27
S'\xb6\x07\x00\x00'
p7222
tp7223
Rp7224
sVmatch
p7225
g23
(g27
S'\xd5\x05\x00\x00'
p7226
tp7227
Rp7228
sVthescorpybook
p7229
g23
(g27
S';\t\x00\x00'
p7230
tp7231
Rp7232
sVfun
p7233
g23
(g27
S"'\x04\x00\x00"
p7234
tp7235
Rp7236
sVkissing
p7237
g23
(g27
S'E\x05\x00\x00'
p7238
tp7239
Rp7240
sV2k
p7241
g23
(g27
S'+\x00\x00\x00'
p7242
tp7243
Rp7244
sVreal
p7245
g23
(g27
S'\x84\x07\x00\x00'
p7246
tp7247
Rp7248
sVdemon
p7249
g23
(g27
S'\xc7\x02\x00\x00'
p7250
tp7251
Rp7252
sVrin
p7253
g23
(g27
S'\xde\x07\x00\x00'
p7254
tp7255
Rp7256
sVreads
p7257
g23
(g27
S'\x82\x07\x00\x00'
p7258
tp7259
Rp7260
sVitself
p7261
g23
(g27
S'\x1d\x05\x00\x00'
p7262
tp7263
Rp7264
sVready
p7265
g23
(g27
S'\x83\x07\x00\x00'
p7266
tp7267
Rp7268
sVkings
p7269
g23
(g27
S'A\x05\x00\x00'
p7270
tp7271
Rp7272
sVcuisine
p7273
g23
(g27
S'\x8f\x02\x00\x00'
p7274
tp7275
Rp7276
sVlengths
p7277
g23
(g27
S's\x05\x00\x00'
p7278
tp7279
Rp7280
sVbelong
p7281
g23
(g27
S'/\x01\x00\x00'
p7282
tp7283
Rp7284
sVrules
p7285
g23
(g27
S'\xfd\x07\x00\x00'
p7286
tp7287
Rp7288
sVgrand
p7289
g23
(g27
S'^\x04\x00\x00'
p7290
tp7291
Rp7292
sVfurik
p7293
g23
(g27
S'-\x04\x00\x00'
p7294
tp7295
Rp7296
sVprerequisite
p7297
g23
(g27
S'\x18\x07\x00\x00'
p7298
tp7299
Rp7300
sVhigher
p7301
g23
(g27
S'\x96\x04\x00\x00'
p7302
tp7303
Rp7304
sVpasswords
p7305
g23
(g27
S'\xc7\x06\x00\x00'
p7306
tp7307
Rp7308
sVdispleased
p7309
g23
(g27
S'\x15\x03\x00\x00'
p7310
tp7311
Rp7312
sVlie
p7313
g23
(g27
S'\x7f\x05\x00\x00'
p7314
tp7315
Rp7316
sVyesterday
p7317
g23
(g27
S'd\n\x00\x00'
p7318
tp7319
Rp7320
sVmoment
p7321
g23
(g27
S'\x1a\x06\x00\x00'
p7322
tp7323
Rp7324
sVlevels
p7325
g23
(g27
S'{\x05\x00\x00'
p7326
tp7327
Rp7328
sVmoving
p7329
g23
(g27
S'*\x06\x00\x00'
p7330
tp7331
Rp7332
sVuser
p7333
g23
(g27
S'\xcf\t\x00\x00'
p7334
tp7335
Rp7336
sVstack
p7337
g23
(g27
S'\xb1\x08\x00\x00'
p7338
tp7339
Rp7340
sVdark
p7341
g23
(g27
S'\xa5\x02\x00\x00'
p7342
tp7343
Rp7344
sVlower
p7345
g23
(g27
S'\xb5\x05\x00\x00'
p7346
tp7347
Rp7348
sVnoodle
p7349
g23
(g27
S'_\x06\x00\x00'
p7350
tp7351
Rp7352
sVdatabase
p7353
g23
(g27
S'\xa6\x02\x00\x00'
p7354
tp7355
Rp7356
sVcheek
p7357
g23
(g27
S'\xc2\x01\x00\x00'
p7358
tp7359
Rp7360
sVabcde
p7361
g23
(g27
S'Y\x00\x00\x00'
p7362
tp7363
Rp7364
sVspent
p7365
g23
(g27
S'\xa5\x08\x00\x00'
p7366
tp7367
Rp7368
sVanalysis
p7369
g23
(g27
S'\xa9\x00\x00\x00'
p7370
tp7371
Rp7372
sVobviously
p7373
g23
(g27
S's\x06\x00\x00'
p7374
tp7375
Rp7376
sVperson
p7377
g23
(g27
S'\xd9\x06\x00\x00'
p7378
tp7379
Rp7380
sVedge
p7381
g23
(g27
S'L\x03\x00\x00'
p7382
tp7383
Rp7384
sVflags
p7385
g23
(g27
S'\xf5\x03\x00\x00'
p7386
tp7387
Rp7388
sVgrid
p7389
g23
(g27
S'i\x04\x00\x00'
p7390
tp7391
Rp7392
sVspend
p7393
g23
(g27
S'\xa3\x08\x00\x00'
p7394
tp7395
Rp7396
sVweakest
p7397
g23
(g27
S'\x0e\n\x00\x00'
p7398
tp7399
Rp7400
sVdeviji
p7401
g23
(g27
S'\xe6\x02\x00\x00'
p7402
tp7403
Rp7404
sVthings
p7405
g23
(g27
S'A\t\x00\x00'
p7406
tp7407
Rp7408
sVabilities
p7409
g23
(g27
S'Z\x00\x00\x00'
p7410
tp7411
Rp7412
sVmom
p7413
g23
(g27
S'\x19\x06\x00\x00'
p7414
tp7415
Rp7416
sVcompetitive
p7417
g23
(g27
S'#\x02\x00\x00'
p7418
tp7419
Rp7420
sVshape
p7421
g23
(g27
S'L\x08\x00\x00'
p7422
tp7423
Rp7424
sVquestions
p7425
g23
(g27
S'a\x07\x00\x00'
p7426
tp7427
Rp7428
sVusing
p7429
g23
(g27
S'\xd2\t\x00\x00'
p7430
tp7431
Rp7432
sValternative
p7433
g23
(g27
S'\x9f\x00\x00\x00'
p7434
tp7435
Rp7436
sVcut
p7437
g23
(g27
S'\x98\x02\x00\x00'
p7438
tp7439
Rp7440
sVandrii
p7441
g23
(g27
S'\xae\x00\x00\x00'
p7442
tp7443
Rp7444
sVmarrying
p7445
g23
(g27
S'\xd3\x05\x00\x00'
p7446
tp7447
Rp7448
sVextra
p7449
g23
(g27
S'\xab\x03\x00\x00'
p7450
tp7451
Rp7452
sVguaranteed
p7453
g23
(g27
S's\x04\x00\x00'
p7454
tp7455
Rp7456
sVrecommended
p7457
g23
(g27
S'\x94\x07\x00\x00'
p7458
tp7459
Rp7460
sVsource
p7461
g23
(g27
S'\x99\x08\x00\x00'
p7462
tp7463
Rp7464
sVparents
p7465
g23
(g27
S'\xbb\x06\x00\x00'
p7466
tp7467
Rp7468
sVlocation
p7469
g23
(g27
S'\x9a\x05\x00\x00'
p7470
tp7471
Rp7472
sVinput
p7473
g23
(g27
S'\xe5\x04\x00\x00'
p7474
tp7475
Rp7476
sVsubmissions
p7477
g23
(g27
S'\xe5\x08\x00\x00'
p7478
tp7479
Rp7480
sVremaining
p7481
g23
(g27
S'\xab\x07\x00\x00'
p7482
tp7483
Rp7484
sVsurprised
p7485
g23
(g27
S'\x02\t\x00\x00'
p7486
tp7487
Rp7488
sVsandwiches
p7489
g23
(g27
S'\r\x08\x00\x00'
p7490
tp7491
Rp7492
sVbig
p7493
g23
(g27
S'8\x01\x00\x00'
p7494
tp7495
Rp7496
sVshowing
p7497
g23
(g27
S'a\x08\x00\x00'
p7498
tp7499
Rp7500
sVunlimited
p7501
g23
(g27
S'\xbf\t\x00\x00'
p7502
tp7503
Rp7504
sVemanating
p7505
g23
(g27
S'Y\x03\x00\x00'
p7506
tp7507
Rp7508
sVipo
p7509
g23
(g27
S'\x11\x05\x00\x00'
p7510
tp7511
Rp7512
sVgame
p7513
g23
(g27
S'7\x04\x00\x00'
p7514
tp7515
Rp7516
sVmoods
p7517
g23
(g27
S'\x1f\x06\x00\x00'
p7518
tp7519
Rp7520
sVinteger
p7521
g23
(g27
S'\xeb\x04\x00\x00'
p7522
tp7523
Rp7524
sVrotate
p7525
g23
(g27
S'\xf0\x07\x00\x00'
p7526
tp7527
Rp7528
sVlost
p7529
g23
(g27
S'\xab\x05\x00\x00'
p7530
tp7531
Rp7532
sVfollows
p7533
g23
(g27
S'\xfd\x03\x00\x00'
p7534
tp7535
Rp7536
sVmessage
p7537
g23
(g27
S'\xf6\x05\x00\x00'
p7538
tp7539
Rp7540
sVcollect
p7541
g23
(g27
S'\x04\x02\x00\x00'
p7542
tp7543
Rp7544
sVindividuals
p7545
g23
(g27
S'\xd9\x04\x00\x00'
p7546
tp7547
Rp7548
sVpopular
p7549
g23
(g27
S'\x08\x07\x00\x00'
p7550
tp7551
Rp7552
sVessential
p7553
g23
(g27
S'}\x03\x00\x00'
p7554
tp7555
Rp7556
sVmathematical
p7557
g23
(g27
S'\xd7\x05\x00\x00'
p7558
tp7559
Rp7560
sVoften
p7561
g23
(g27
S'|\x06\x00\x00'
p7562
tp7563
Rp7564
sVfake
p7565
g23
(g27
S'\xc0\x03\x00\x00'
p7566
tp7567
Rp7568
sVsome
p7569
g23
(g27
S'\x8f\x08\x00\x00'
p7570
tp7571
Rp7572
sVback
p7573
g23
(g27
S'\r\x01\x00\x00'
p7574
tp7575
Rp7576
sVmetres
p7577
g23
(g27
S'\xfc\x05\x00\x00'
p7578
tp7579
Rp7580
sVstrongest
p7581
g23
(g27
S'\xda\x08\x00\x00'
p7582
tp7583
Rp7584
sVexperienced
p7585
g23
(g27
S'\xa3\x03\x00\x00'
p7586
tp7587
Rp7588
sVb0
p7589
g23
(g27
S'\n\x01\x00\x00'
p7590
tp7591
Rp7592
sVexamples
p7593
g23
(g27
S'\x92\x03\x00\x00'
p7594
tp7595
Rp7596
sVb2
p7597
g23
(g27
S'\x0c\x01\x00\x00'
p7598
tp7599
Rp7600
sVcurious
p7601
g23
(g27
S'\x93\x02\x00\x00'
p7602
tp7603
Rp7604
sVdenominations
p7605
g23
(g27
S'\xc8\x02\x00\x00'
p7606
tp7607
Rp7608
sVdescribing
p7609
g23
(g27
S'\xd2\x02\x00\x00'
p7610
tp7611
Rp7612
sVper
p7613
g23
(g27
S'\xd1\x06\x00\x00'
p7614
tp7615
Rp7616
sVprogrammers
p7617
g23
(g27
S'8\x07\x00\x00'
p7618
tp7619
Rp7620
sVconnecting
p7621
g23
(g27
S'=\x02\x00\x00'
p7622
tp7623
Rp7624
sVleftmost
p7625
g23
(g27
S'n\x05\x00\x00'
p7626
tp7627
Rp7628
sVminimal
p7629
g23
(g27
S'\x04\x06\x00\x00'
p7630
tp7631
Rp7632
sVeating
p7633
g23
(g27
S'J\x03\x00\x00'
p7634
tp7635
Rp7636
sVbc
p7637
g23
(g27
S'\x1e\x01\x00\x00'
p7638
tp7639
Rp7640
sVremembered
p7641
g23
(g27
S'\xaf\x07\x00\x00'
p7642
tp7643
Rp7644
sVtradditional
p7645
g23
(g27
S'w\t\x00\x00'
p7646
tp7647
Rp7648
sVjumps
p7649
g23
(g27
S'(\x05\x00\x00'
p7650
tp7651
Rp7652
sVprocessing
p7653
g23
(g27
S'.\x07\x00\x00'
p7654
tp7655
Rp7656
sVbi
p7657
g23
(g27
S'6\x01\x00\x00'
p7658
tp7659
Rp7660
sVbj
p7661
g23
(g27
S'@\x01\x00\x00'
p7662
tp7663
Rp7664
sVstep
p7665
g23
(g27
S'\xc5\x08\x00\x00'
p7666
tp7667
Rp7668
sVlasts
p7669
g23
(g27
S'[\x05\x00\x00'
p7670
tp7671
Rp7672
sVbecome
p7673
g23
(g27
S'#\x01\x00\x00'
p7674
tp7675
Rp7676
sVbx
p7677
g23
(g27
S'z\x01\x00\x00'
p7678
tp7679
Rp7680
sVabroad
p7681
g23
(g27
S'_\x00\x00\x00'
p7682
tp7683
Rp7684
sVyurii
p7685
g23
(g27
S'm\n\x00\x00'
p7686
tp7687
Rp7688
sVintegers
p7689
g23
(g27
S'\xec\x04\x00\x00'
p7690
tp7691
Rp7692
sV000111000111
p7693
g23
(g27
S'\x01\x00\x00\x00'
p7694
tp7695
Rp7696
sVwouldnt
p7697
g23
(g27
S'H\n\x00\x00'
p7698
tp7699
Rp7700
sVids
p7701
g23
(g27
S'\xb7\x04\x00\x00'
p7702
tp7703
Rp7704
sVcheftowns
p7705
g23
(g27
S'\xc9\x01\x00\x00'
p7706
tp7707
Rp7708
sVplan
p7709
g23
(g27
S'\xea\x06\x00\x00'
p7710
tp7711
Rp7712
sVseeing
p7713
g23
(g27
S'-\x08\x00\x00'
p7714
tp7715
Rp7716
sVletter
p7717
g23
(g27
S'x\x05\x00\x00'
p7718
tp7719
Rp7720
sVwithin
p7721
g23
(g27
S'4\n\x00\x00'
p7722
tp7723
Rp7724
sVintegral
p7725
g23
(g27
S'\xed\x04\x00\x00'
p7726
tp7727
Rp7728
sVframed
p7729
g23
(g27
S'\x18\x04\x00\x00'
p7730
tp7731
Rp7732
sVnothing
p7733
g23
(g27
S'c\x06\x00\x00'
p7734
tp7735
Rp7736
sVappropriate
p7737
g23
(g27
S'\xc2\x00\x00\x00'
p7738
tp7739
Rp7740
sVsports
p7741
g23
(g27
S'\xad\x08\x00\x00'
p7742
tp7743
Rp7744
sVrolls
p7745
g23
(g27
S'\xec\x07\x00\x00'
p7746
tp7747
Rp7748
sVsightseeing
p7749
g23
(g27
S'j\x08\x00\x00'
p7750
tp7751
Rp7752
sVimpressed
p7753
g23
(g27
S'\xc4\x04\x00\x00'
p7754
tp7755
Rp7756
sVrows
p7757
g23
(g27
S'\xf8\x07\x00\x00'
p7758
tp7759
Rp7760
sVquestion
p7761
g23
(g27
S'`\x07\x00\x00'
p7762
tp7763
Rp7764
sVfast
p7765
g23
(g27
S'\xcb\x03\x00\x00'
p7766
tp7767
Rp7768
sVachievement
p7769
g23
(g27
S'g\x00\x00\x00'
p7770
tp7771
Rp7772
sVmadrid
p7773
g23
(g27
S'\xbf\x05\x00\x00'
p7774
tp7775
Rp7776
sVforward
p7777
g23
(g27
S'\x13\x04\x00\x00'
p7778
tp7779
Rp7780
sVbored
p7781
g23
(g27
S'N\x01\x00\x00'
p7782
tp7783
Rp7784
sVopponent
p7785
g23
(g27
S'\x8a\x06\x00\x00'
p7786
tp7787
Rp7788
sVmountains
p7789
g23
(g27
S'%\x06\x00\x00'
p7790
tp7791
Rp7792
sVinvite
p7793
g23
(g27
S'\x0c\x05\x00\x00'
p7794
tp7795
Rp7796
sVregistered
p7797
g23
(g27
S'\x9f\x07\x00\x00'
p7798
tp7799
Rp7800
sVmemory
p7801
g23
(g27
S'\xee\x05\x00\x00'
p7802
tp7803
Rp7804
sVboys
p7805
g23
(g27
S'[\x01\x00\x00'
p7806
tp7807
Rp7808
sVproperly
p7809
g23
(g27
S'@\x07\x00\x00'
p7810
tp7811
Rp7812
sVlink
p7813
g23
(g27
S'\x8b\x05\x00\x00'
p7814
tp7815
Rp7816
sVrussian
p7817
g23
(g27
S'\x05\x08\x00\x00'
p7818
tp7819
Rp7820
sVline
p7821
g23
(g27
S'\x87\x05\x00\x00'
p7822
tp7823
Rp7824
sVactive
p7825
g23
(g27
S'p\x00\x00\x00'
p7826
tp7827
Rp7828
sVconsiderable
p7829
g23
(g27
S'B\x02\x00\x00'
p7830
tp7831
Rp7832
sVraising
p7833
g23
(g27
S'q\x07\x00\x00'
p7834
tp7835
Rp7836
sVdirected
p7837
g23
(g27
S'\x04\x03\x00\x00'
p7838
tp7839
Rp7840
sVcia
p7841
g23
(g27
S'\xdd\x01\x00\x00'
p7842
tp7843
Rp7844
sVconsist
p7845
g23
(g27
S'F\x02\x00\x00'
p7846
tp7847
Rp7848
sVfulfilling
p7849
g23
(g27
S'%\x04\x00\x00'
p7850
tp7851
Rp7852
sVup
p7853
g23
(g27
S'\xc5\t\x00\x00'
p7854
tp7855
Rp7856
sVus
p7857
g23
(g27
S'\xcb\t\x00\x00'
p7858
tp7859
Rp7860
sVplanet
p7861
g23
(g27
S'\xec\x06\x00\x00'
p7862
tp7863
Rp7864
sVpaired
p7865
g23
(g27
S'\xb1\x06\x00\x00'
p7866
tp7867
Rp7868
sVuj
p7869
g23
(g27
S'\xa8\t\x00\x00'
p7870
tp7871
Rp7872
sVhighlight
p7873
g23
(g27
S'\x97\x04\x00\x00'
p7874
tp7875
Rp7876
sVsimilar
p7877
g23
(g27
S'm\x08\x00\x00'
p7878
tp7879
Rp7880
sVprofessor
p7881
g23
(g27
S'3\x07\x00\x00'
p7882
tp7883
Rp7884
sV1000000009
p7885
g23
(g27
S'\t\x00\x00\x00'
p7886
tp7887
Rp7888
sVordered
p7889
g23
(g27
S'\x93\x06\x00\x00'
p7890
tp7891
Rp7892
sVchoosing
p7893
g23
(g27
S'\xd7\x01\x00\x00'
p7894
tp7895
Rp7896
sV0011
p7897
g23
(g27
S'\x02\x00\x00\x00'
p7898
tp7899
Rp7900
sVdefined
p7901
g23
(g27
S'\xbc\x02\x00\x00'
p7902
tp7903
Rp7904
sVinfluence
p7905
g23
(g27
S'\xde\x04\x00\x00'
p7906
tp7907
Rp7908
sV1000000007
p7909
g23
(g27
S'\x08\x00\x00\x00'
p7910
tp7911
Rp7912
sVvertices
p7913
g23
(g27
S'\xe8\t\x00\x00'
p7914
tp7915
Rp7916
sVsingle
p7917
g23
(g27
S'u\x08\x00\x00'
p7918
tp7919
Rp7920
sVcure
p7921
g23
(g27
S'\x91\x02\x00\x00'
p7922
tp7923
Rp7924
sVhome
p7925
g23
(g27
S'\x9d\x04\x00\x00'
p7926
tp7927
Rp7928
sVcafe
p7929
g23
(g27
S'\x88\x01\x00\x00'
p7930
tp7931
Rp7932
sVdefines
p7933
g23
(g27
S'\xbd\x02\x00\x00'
p7934
tp7935
Rp7936
sVrainbow
p7937
g23
(g27
S'o\x07\x00\x00'
p7938
tp7939
Rp7940
sVtheyll
p7941
g23
(g27
S'=\t\x00\x00'
p7942
tp7943
Rp7944
sVpolygon
p7945
g23
(g27
S'\x04\x07\x00\x00'
p7946
tp7947
Rp7948
sVamounts
p7949
g23
(g27
S'\xa7\x00\x00\x00'
p7950
tp7951
Rp7952
sVinvalid
p7953
g23
(g27
S'\x02\x05\x00\x00'
p7954
tp7955
Rp7956
sVawoke
p7957
g23
(g27
S'\x06\x01\x00\x00'
p7958
tp7959
Rp7960
sVdefinitely
p7961
g23
(g27
S'\xbe\x02\x00\x00'
p7962
tp7963
Rp7964
sVarithmetic
p7965
g23
(g27
S'\xcb\x00\x00\x00'
p7966
tp7967
Rp7968
sVdraw
p7969
g23
(g27
S'0\x03\x00\x00'
p7970
tp7971
Rp7972
sVelements
p7973
g23
(g27
S'V\x03\x00\x00'
p7974
tp7975
Rp7976
sVusers
p7977
g23
(g27
S'\xd0\t\x00\x00'
p7978
tp7979
Rp7980
sVcalculating
p7981
g23
(g27
S'\x8c\x01\x00\x00'
p7982
tp7983
Rp7984
sVfavourite
p7985
g23
(g27
S'\xd0\x03\x00\x00'
p7986
tp7987
Rp7988
sVproblems
p7989
g23
(g27
S'*\x07\x00\x00'
p7990
tp7991
Rp7992
sVvisits
p7993
g23
(g27
S'\xf8\t\x00\x00'
p7994
tp7995
Rp7996
sVwickets
p7997
g23
(g27
S'&\n\x00\x00'
p7998
tp7999
Rp8000
sVregulations
p8001
g23
(g27
S'\xa2\x07\x00\x00'
p8002
tp8003
Rp8004
sVgenerated
p8005
g23
(g27
S'?\x04\x00\x00'
p8006
tp8007
Rp8008
sVrestoration
p8009
g23
(g27
S'\xcd\x07\x00\x00'
p8010
tp8011
Rp8012
sVcater
p8013
g23
(g27
S'\xa8\x01\x00\x00'
p8014
tp8015
Rp8016
sVcharming
p8017
g23
(g27
S'\xc0\x01\x00\x00'
p8018
tp8019
Rp8020
sVsides
p8021
g23
(g27
S'i\x08\x00\x00'
p8022
tp8023
Rp8024
sVstructure
p8025
g23
(g27
S'\xdc\x08\x00\x00'
p8026
tp8027
Rp8028
sVmood
p8029
g23
(g27
S'\x1e\x06\x00\x00'
p8030
tp8031
Rp8032
sV33102
p8033
g23
(g27
S'2\x00\x00\x00'
p8034
tp8035
Rp8036
sVfurthest
p8037
g23
(g27
S'/\x04\x00\x00'
p8038
tp8039
Rp8040
sVindependently
p8041
g23
(g27
S'\xd1\x04\x00\x00'
p8042
tp8043
Rp8044
sVsuffers
p8045
g23
(g27
S'\xf4\x08\x00\x00'
p8046
tp8047
Rp8048
sValgorithm
p8049
g23
(g27
S'\x94\x00\x00\x00'
p8050
tp8051
Rp8052
sVrequired
p8053
g23
(g27
S'\xbf\x07\x00\x00'
p8054
tp8055
Rp8056
sVweighti
p8057
g23
(g27
S'\x12\n\x00\x00'
p8058
tp8059
Rp8060
sVneighbouring
p8061
g23
(g27
S'O\x06\x00\x00'
p8062
tp8063
Rp8064
sVweights
p8065
g23
(g27
S'\x13\n\x00\x00'
p8066
tp8067
Rp8068
sVincomplete
p8069
g23
(g27
S'\xcc\x04\x00\x00'
p8070
tp8071
Rp8072
sVoracle
p8073
g23
(g27
S'\x90\x06\x00\x00'
p8074
tp8075
Rp8076
sVberries
p8077
g23
(g27
S'2\x01\x00\x00'
p8078
tp8079
Rp8080
sVrequires
p8081
g23
(g27
S'\xc1\x07\x00\x00'
p8082
tp8083
Rp8084
sVhello
p8085
g23
(g27
S'\x8f\x04\x00\x00'
p8086
tp8087
Rp8088
sVevenly
p8089
g23
(g27
S'\x84\x03\x00\x00'
p8090
tp8091
Rp8092
sVdiscards
p8093
g23
(g27
S'\x0c\x03\x00\x00'
p8094
tp8095
Rp8096
sVproduce
p8097
g23
(g27
S'/\x07\x00\x00'
p8098
tp8099
Rp8100
sVgroceries
p8101
g23
(g27
S'j\x04\x00\x00'
p8102
tp8103
Rp8104
sVgo
p8105
g23
(g27
S'R\x04\x00\x00'
p8106
tp8107
Rp8108
sVquery
p8109
g23
(g27
S'_\x07\x00\x00'
p8110
tp8111
Rp8112
sVgi
p8113
g23
(g27
S'E\x04\x00\x00'
p8114
tp8115
Rp8116
sVseemed
p8117
g23
(g27
S'0\x08\x00\x00'
p8118
tp8119
Rp8120
sVvietnamese
p8121
g23
(g27
S'\xee\t\x00\x00'
p8122
tp8123
Rp8124
sVyoung
p8125
g23
(g27
S'j\n\x00\x00'
p8126
tp8127
Rp8128
sVsend
p8129
g23
(g27
S':\x08\x00\x00'
p8130
tp8131
Rp8132
sVtopic
p8133
g23
(g27
S'e\t\x00\x00'
p8134
tp8135
Rp8136
sVsarpanch
p8137
g23
(g27
S'\x0e\x08\x00\x00'
p8138
tp8139
Rp8140
sVundirected
p8141
g23
(g27
S'\xaf\t\x00\x00'
p8142
tp8143
Rp8144
sVfriendly
p8145
g23
(g27
S'\x1e\x04\x00\x00'
p8146
tp8147
Rp8148
sVsent
p8149
g23
(g27
S'=\x08\x00\x00'
p8150
tp8151
Rp8152
sVingredient
p8153
g23
(g27
S'\xe1\x04\x00\x00'
p8154
tp8155
Rp8156
sVlabels
p8157
g23
(g27
S'Q\x05\x00\x00'
p8158
tp8159
Rp8160
sVg2
p8161
g23
(g27
S'2\x04\x00\x00'
p8162
tp8163
Rp8164
sVg1
p8165
g23
(g27
S'1\x04\x00\x00'
p8166
tp8167
Rp8168
sVcontinues
p8169
g23
(g27
S']\x02\x00\x00'
p8170
tp8171
Rp8172
sVspoon
p8173
g23
(g27
S'\xab\x08\x00\x00'
p8174
tp8175
Rp8176
sVwishes
p8177
g23
(g27
S'2\n\x00\x00'
p8178
tp8179
Rp8180
sVdrinking
p8181
g23
(g27
S'5\x03\x00\x00'
p8182
tp8183
Rp8184
sVcontinued
p8185
g23
(g27
S'\\\x02\x00\x00'
p8186
tp8187
Rp8188
sVarrange
p8189
g23
(g27
S'\xcf\x00\x00\x00'
p8190
tp8191
Rp8192
sVentire
p8193
g23
(g27
S'k\x03\x00\x00'
p8194
tp8195
Rp8196
sVredistribute
p8197
g23
(g27
S'\x9b\x07\x00\x00'
p8198
tp8199
Rp8200
sVmagic
p8201
g23
(g27
S'\xc0\x05\x00\x00'
p8202
tp8203
Rp8204
sVexits
p8205
g23
(g27
S'\x9f\x03\x00\x00'
p8206
tp8207
Rp8208
sVknight
p8209
g23
(g27
S'G\x05\x00\x00'
p8210
tp8211
Rp8212
sVshock
p8213
g23
(g27
S'Z\x08\x00\x00'
p8214
tp8215
Rp8216
sVfewer
p8217
g23
(g27
S'\xdd\x03\x00\x00'
p8218
tp8219
Rp8220
sVtry
p8221
g23
(g27
S'\x98\t\x00\x00'
p8222
tp8223
Rp8224
sVrace
p8225
g23
(g27
S'j\x07\x00\x00'
p8226
tp8227
Rp8228
sVverdict
p8229
g23
(g27
S'\xe4\t\x00\x00'
p8230
tp8231
Rp8232
sVcar
p8233
g23
(g27
S'\x9b\x01\x00\x00'
p8234
tp8235
Rp8236
sVride
p8237
g23
(g27
S'\xdb\x07\x00\x00'
p8238
tp8239
Rp8240
sVconfigurations
p8241
g23
(g27
S'8\x02\x00\x00'
p8242
tp8243
Rp8244
sVconcluded
p8245
g23
(g27
S'1\x02\x00\x00'
p8246
tp8247
Rp8248
sVjump
p8249
g23
(g27
S"'\x05\x00\x00"
p8250
tp8251
Rp8252
sVimply
p8253
g23
(g27
S'\xc1\x04\x00\x00'
p8254
tp8255
Rp8256
sVtraveling
p8257
g23
(g27
S'\x82\t\x00\x00'
p8258
tp8259
Rp8260
sVpicked
p8261
g23
(g27
S'\xe0\x06\x00\x00'
p8262
tp8263
Rp8264
sVdownload
p8265
g23
(g27
S'-\x03\x00\x00'
p8266
tp8267
Rp8268
sVclick
p8269
g23
(g27
S'\xf4\x01\x00\x00'
p8270
tp8271
Rp8272
sVindex
p8273
g23
(g27
S'\xd2\x04\x00\x00'
p8274
tp8275
Rp8276
sVplays
p8277
g23
(g27
S'\xfa\x06\x00\x00'
p8278
tp8279
Rp8280
sVbusiness
p8281
g23
(g27
S'v\x01\x00\x00'
p8282
tp8283
Rp8284
sVinvertible
p8285
g23
(g27
S'\x08\x05\x00\x00'
p8286
tp8287
Rp8288
sVgiving
p8289
g23
(g27
S'O\x04\x00\x00'
p8290
tp8291
Rp8292
sVprobably
p8293
g23
(g27
S'(\x07\x00\x00'
p8294
tp8295
Rp8296
sVexpressed
p8297
g23
(g27
S'\xa7\x03\x00\x00'
p8298
tp8299
Rp8300
sVlexicographic
p8301
g23
(g27
S'|\x05\x00\x00'
p8302
tp8303
Rp8304
sVcell
p8305
g23
(g27
S'\xad\x01\x00\x00'
p8306
tp8307
Rp8308
sVinternship
p8309
g23
(g27
S'\xfa\x04\x00\x00'
p8310
tp8311
Rp8312
sVwaiting
p8313
g23
(g27
S'\xfd\t\x00\x00'
p8314
tp8315
Rp8316
sVindian
p8317
g23
(g27
S'\xd5\x04\x00\x00'
p8318
tp8319
Rp8320
sVgn
p8321
g23
(g27
S'Q\x04\x00\x00'
p8322
tp8323
Rp8324
sVcapital
p8325
g23
(g27
S'\x99\x01\x00\x00'
p8326
tp8327
Rp8328
sVrotted
p8329
g23
(g27
S'\xf2\x07\x00\x00'
p8330
tp8331
Rp8332
sVtournaments
p8333
g23
(g27
S'o\t\x00\x00'
p8334
tp8335
Rp8336
sVchefs
p8337
g23
(g27
S'\xc6\x01\x00\x00'
p8338
tp8339
Rp8340
sVthin
p8341
g23
(g27
S'?\t\x00\x00'
p8342
tp8343
Rp8344
sVled
p8345
g23
(g27
S'l\x05\x00\x00'
p8346
tp8347
Rp8348
sVchose
p8349
g23
(g27
S'\xd8\x01\x00\x00'
p8350
tp8351
Rp8352
sVrespectively
p8353
g23
(g27
S'\xc7\x07\x00\x00'
p8354
tp8355
Rp8356
sVgathered
p8357
g23
(g27
S'9\x04\x00\x00'
p8358
tp8359
Rp8360
sVdesired
p8361
g23
(g27
S'\xd5\x02\x00\x00'
p8362
tp8363
Rp8364
sVpalindrome
p8365
g23
(g27
S'\xb4\x06\x00\x00'
p8366
tp8367
Rp8368
sVlet
p8369
g23
(g27
S'v\x05\x00\x00'
p8370
tp8371
Rp8372
sVsink
p8373
g23
(g27
S'v\x08\x00\x00'
p8374
tp8375
Rp8376
sVmaking
p8377
g23
(g27
S'\xc7\x05\x00\x00'
p8378
tp8379
Rp8380
sVinvented
p8381
g23
(g27
S'\x04\x05\x00\x00'
p8382
tp8383
Rp8384
sVremark
p8385
g23
(g27
S'\xad\x07\x00\x00'
p8386
tp8387
Rp8388
sV38
p8389
g23
(g27
S'4\x00\x00\x00'
p8390
tp8391
Rp8392
sVreceive
p8393
g23
(g27
S'\x8c\x07\x00\x00'
p8394
tp8395
Rp8396
sV32
p8397
g23
(g27
S'1\x00\x00\x00'
p8398
tp8399
Rp8400
sVresulting
p8401
g23
(g27
S'\xcf\x07\x00\x00'
p8402
tp8403
Rp8404
sVsituations
p8405
g23
(g27
S'{\x08\x00\x00'
p8406
tp8407
Rp8408
sVimplement
p8409
g23
(g27
S'\xc0\x04\x00\x00'
p8410
tp8411
Rp8412
sVmakes
p8413
g23
(g27
S'\xc6\x05\x00\x00'
p8414
tp8415
Rp8416
sVinvolves
p8417
g23
(g27
S'\x0f\x05\x00\x00'
p8418
tp8419
Rp8420
sVthats
p8421
g23
(g27
S'2\t\x00\x00'
p8422
tp8423
Rp8424
sVcomposed
p8425
g23
(g27
S')\x02\x00\x00'
p8426
tp8427
Rp8428
sVabcd
p8429
g23
(g27
S'X\x00\x00\x00'
p8430
tp8431
Rp8432
sVnamed
p8433
g23
(g27
S'>\x06\x00\x00'
p8434
tp8435
Rp8436
sVsat
p8437
g23
(g27
S'\x0f\x08\x00\x00'
p8438
tp8439
Rp8440
sVwin
p8441
g23
(g27
S',\n\x00\x00'
p8442
tp8443
Rp8444
sVarithmetical
p8445
g23
(g27
S'\xcc\x00\x00\x00'
p8446
tp8447
Rp8448
sVcrazy
p8449
g23
(g27
S'\x85\x02\x00\x00'
p8450
tp8451
Rp8452
sVdehatti
p8453
g23
(g27
S'\xc2\x02\x00\x00'
p8454
tp8455
Rp8456
sVhardy
p8457
g23
(g27
S'\x83\x04\x00\x00'
p8458
tp8459
Rp8460
sVfestivals
p8461
g23
(g27
S'\xdb\x03\x00\x00'
p8462
tp8463
Rp8464
sVclockwise
p8465
g23
(g27
S'\xf5\x01\x00\x00'
p8466
tp8467
Rp8468
sVstanding
p8469
g23
(g27
S'\xb6\x08\x00\x00'
p8470
tp8471
Rp8472
sV103993
p8473
g23
(g27
S'\x0c\x00\x00\x00'
p8474
tp8475
Rp8476
sVuse
p8477
g23
(g27
S'\xcd\t\x00\x00'
p8478
tp8479
Rp8480
sVremains
p8481
g23
(g27
S'\xac\x07\x00\x00'
p8482
tp8483
Rp8484
sVnext
p8485
g23
(g27
S'U\x06\x00\x00'
p8486
tp8487
Rp8488
sVprocess
p8489
g23
(g27
S',\x07\x00\x00'
p8490
tp8491
Rp8492
sVfibo
p8493
g23
(g27
S'\xdf\x03\x00\x00'
p8494
tp8495
Rp8496
sVstart_vertex
p8497
g23
(g27
S'\xb9\x08\x00\x00'
p8498
tp8499
Rp8500
sVtoy
p8501
g23
(g27
S'r\t\x00\x00'
p8502
tp8503
Rp8504
sVmeans
p8505
g23
(g27
S'\xe5\x05\x00\x00'
p8506
tp8507
Rp8508
sVhistorically
p8509
g23
(g27
S'\x9b\x04\x00\x00'
p8510
tp8511
Rp8512
sVclever
p8513
g23
(g27
S'\xf3\x01\x00\x00'
p8514
tp8515
Rp8516
sVformally
p8517
g23
(g27
S'\x0b\x04\x00\x00'
p8518
tp8519
Rp8520
sVstarted
p8521
g23
(g27
S'\xba\x08\x00\x00'
p8522
tp8523
Rp8524
sVbecomes
p8525
g23
(g27
S'$\x01\x00\x00'
p8526
tp8527
Rp8528
sVoccurred
p8529
g23
(g27
S'u\x06\x00\x00'
p8530
tp8531
Rp8532
sVmissile
p8533
g23
(g27
S'\x0b\x06\x00\x00'
p8534
tp8535
Rp8536
sVtuzik
p8537
g23
(g27
S'\xa1\t\x00\x00'
p8538
tp8539
Rp8540
sVcarrying
p8541
g23
(g27
S'\xa0\x01\x00\x00'
p8542
tp8543
Rp8544
sVlabelled
p8545
g23
(g27
S'P\x05\x00\x00'
p8546
tp8547
Rp8548
sVok
p8549
g23
(g27
S'}\x06\x00\x00'
p8550
tp8551
Rp8552
sVcircle
p8553
g23
(g27
S'\xe2\x01\x00\x00'
p8554
tp8555
Rp8556
sV1th
p8557
g23
(g27
S'"\x00\x00\x00'
p8558
tp8559
Rp8560
sVsubstring
p8561
g23
(g27
S'\xed\x08\x00\x00'
p8562
tp8563
Rp8564
sVballs
p8565
g23
(g27
S'\x13\x01\x00\x00'
p8566
tp8567
Rp8568
sVanimals
p8569
g23
(g27
S'\xb0\x00\x00\x00'
p8570
tp8571
Rp8572
sVheard
p8573
g23
(g27
S'\x89\x04\x00\x00'
p8574
tp8575
Rp8576
sVthis
p8577
g23
(g27
S'G\t\x00\x00'
p8578
tp8579
Rp8580
sVchallenge
p8581
g23
(g27
S'\xb6\x01\x00\x00'
p8582
tp8583
Rp8584
sVunknowns
p8585
g23
(g27
S'\xbd\t\x00\x00'
p8586
tp8587
Rp8588
sVcolumns
p8589
g23
(g27
S'\x11\x02\x00\x00'
p8590
tp8591
Rp8592
sVpaints
p8593
g23
(g27
S'\xaf\x06\x00\x00'
p8594
tp8595
Rp8596
sVfulfill
p8597
g23
(g27
S'$\x04\x00\x00'
p8598
tp8599
Rp8600
sVdidnt
p8601
g23
(g27
S'\xf5\x02\x00\x00'
p8602
tp8603
Rp8604
sVdropped
p8605
g23
(g27
S'8\x03\x00\x00'
p8606
tp8607
Rp8608
sVcontrol
p8609
g23
(g27
S'^\x02\x00\x00'
p8610
tp8611
Rp8612
sVcalculation
p8613
g23
(g27
S'\x8d\x01\x00\x00'
p8614
tp8615
Rp8616
sVlock
p8617
g23
(g27
S'\x9c\x05\x00\x00'
p8618
tp8619
Rp8620
sVpurposes
p8621
g23
(g27
S'R\x07\x00\x00'
p8622
tp8623
Rp8624
sVpieces
p8625
g23
(g27
S'\xe3\x06\x00\x00'
p8626
tp8627
Rp8628
sVhigh
p8629
g23
(g27
S'\x95\x04\x00\x00'
p8630
tp8631
Rp8632
sVfishily
p8633
g23
(g27
S'\xef\x03\x00\x00'
p8634
tp8635
Rp8636
sVsomething
p8637
g23
(g27
S'\x92\x08\x00\x00'
p8638
tp8639
Rp8640
sV457747
p8641
g23
(g27
S'7\x00\x00\x00'
p8642
tp8643
Rp8644
sVbones
p8645
g23
(g27
S'L\x01\x00\x00'
p8646
tp8647
Rp8648
sVjunctions
p8649
g23
(g27
S'*\x05\x00\x00'
p8650
tp8651
Rp8652
sVnative
p8653
g23
(g27
S'A\x06\x00\x00'
p8654
tp8655
Rp8656
sVunited
p8657
g23
(g27
S'\xb8\t\x00\x00'
p8658
tp8659
Rp8660
sVgcd
p8661
g23
(g27
S';\x04\x00\x00'
p8662
tp8663
Rp8664
sVsit
p8665
g23
(g27
S'x\x08\x00\x00'
p8666
tp8667
Rp8668
sVsix
p8669
g23
(g27
S'|\x08\x00\x00'
p8670
tp8671
Rp8672
sVlocated
p8673
g23
(g27
S'\x99\x05\x00\x00'
p8674
tp8675
Rp8676
sVresponsibilities
p8677
g23
(g27
S'\xc8\x07\x00\x00'
p8678
tp8679
Rp8680
sVwinners
p8681
g23
(g27
S'.\n\x00\x00'
p8682
tp8683
Rp8684
sVforest
p8685
g23
(g27
S'\x04\x04\x00\x00'
p8686
tp8687
Rp8688
sVinstead
p8689
g23
(g27
S'\xe9\x04\x00\x00'
p8690
tp8691
Rp8692
sVcircular
p8693
g23
(g27
S'\xe5\x01\x00\x00'
p8694
tp8695
Rp8696
sVblocks
p8697
g23
(g27
S'C\x01\x00\x00'
p8698
tp8699
Rp8700
sVattend
p8701
g23
(g27
S'\xf4\x00\x00\x00'
p8702
tp8703
Rp8704
sVrupsa
p8705
g23
(g27
S'\x04\x08\x00\x00'
p8706
tp8707
Rp8708
sVcollection
p8709
g23
(g27
S'\x07\x02\x00\x00'
p8710
tp8711
Rp8712
sVdistances
p8713
g23
(g27
S'\x19\x03\x00\x00'
p8714
tp8715
Rp8716
sVmultiplication
p8717
g23
(g27
S'/\x06\x00\x00'
p8718
tp8719
Rp8720
sV4467
p8721
g23
(g27
S'6\x00\x00\x00'
p8722
tp8723
Rp8724
sVdaring
p8725
g23
(g27
S'\xa4\x02\x00\x00'
p8726
tp8727
Rp8728
sVrealized
p8729
g23
(g27
S'\x86\x07\x00\x00'
p8730
tp8731
Rp8732
sVacyclic
p8733
g23
(g27
S't\x00\x00\x00'
p8734
tp8735
Rp8736
sVcommuting
p8737
g23
(g27
S'\x1d\x02\x00\x00'
p8738
tp8739
Rp8740
sV22nd
p8741
g23
(g27
S"'\x00\x00\x00"
p8742
tp8743
Rp8744
sVlight
p8745
g23
(g27
S'\x82\x05\x00\x00'
p8746
tp8747
Rp8748
sVcounter
p8749
g23
(g27
S'|\x02\x00\x00'
p8750
tp8751
Rp8752
sVlines
p8753
g23
(g27
S'\x89\x05\x00\x00'
p8754
tp8755
Rp8756
sVcorrespond
p8757
g23
(g27
S'o\x02\x00\x00'
p8758
tp8759
Rp8760
sVelement
p8761
g23
(g27
S'U\x03\x00\x00'
p8762
tp8763
Rp8764
sVchief
p8765
g23
(g27
S'\xcd\x01\x00\x00'
p8766
tp8767
Rp8768
sVarrived
p8769
g23
(g27
S'\xd5\x00\x00\x00'
p8770
tp8771
Rp8772
sVrealizes
p8773
g23
(g27
S'\x87\x07\x00\x00'
p8774
tp8775
Rp8776
sVcoladd
p8777
g23
(g27
S'\x00\x02\x00\x00'
p8778
tp8779
Rp8780
sVfastest
p8781
g23
(g27
S'\xcd\x03\x00\x00'
p8782
tp8783
Rp8784
sVpermutting
p8785
g23
(g27
S'\xd8\x06\x00\x00'
p8786
tp8787
Rp8788
sVmove
p8789
g23
(g27
S'&\x06\x00\x00'
p8790
tp8791
Rp8792
sVincluding
p8793
g23
(g27
S'\xca\x04\x00\x00'
p8794
tp8795
Rp8796
sVmentioned
p8797
g23
(g27
S'\xf1\x05\x00\x00'
p8798
tp8799
Rp8800
sVconverting
p8801
g23
(g27
S'a\x02\x00\x00'
p8802
tp8803
Rp8804
sVgalaxy
p8805
g23
(g27
S'6\x04\x00\x00'
p8806
tp8807
Rp8808
sVrandom_merge
p8809
g23
(g27
S't\x07\x00\x00'
p8810
tp8811
Rp8812
sVchemical
p8813
g23
(g27
S'\xca\x01\x00\x00'
p8814
tp8815
Rp8816
sVchosen
p8817
g23
(g27
S'\xd9\x01\x00\x00'
p8818
tp8819
Rp8820
sVshuffled
p8821
g23
(g27
S'g\x08\x00\x00'
p8822
tp8823
Rp8824
sV00110001
p8825
g23
(g27
S'\x03\x00\x00\x00'
p8826
tp8827
Rp8828
sVli
p8829
g23
(g27
S'~\x05\x00\x00'
p8830
tp8831
Rp8832
sVb1
p8833
g23
(g27
S'\x0b\x01\x00\x00'
p8834
tp8835
Rp8836
sVkadabra
p8837
g23
(g27
S',\x05\x00\x00'
p8838
tp8839
Rp8840
sVchoose
p8841
g23
(g27
S'\xd5\x01\x00\x00'
p8842
tp8843
Rp8844
sVcriminal
p8845
g23
(g27
S'\x8a\x02\x00\x00'
p8846
tp8847
Rp8848
sVpixel
p8849
g23
(g27
S'\xe5\x06\x00\x00'
p8850
tp8851
Rp8852
sVdag
p8853
g23
(g27
S'\xa2\x02\x00\x00'
p8854
tp8855
Rp8856
sVjunction
p8857
g23
(g27
S')\x05\x00\x00'
p8858
tp8859
Rp8860
sVgreater
p8861
g23
(g27
S'c\x04\x00\x00'
p8862
tp8863
Rp8864
sVfactorial
p8865
g23
(g27
S'\xb9\x03\x00\x00'
p8866
tp8867
Rp8868
sVpractice
p8869
g23
(g27
S'\x12\x07\x00\x00'
p8870
tp8871
Rp8872
sVindexing
p8873
g23
(g27
S'\xd4\x04\x00\x00'
p8874
tp8875
Rp8876
sVoranges
p8877
g23
(g27
S'\x91\x06\x00\x00'
p8878
tp8879
Rp8880
sVmention
p8881
g23
(g27
S'\xf0\x05\x00\x00'
p8882
tp8883
Rp8884
sVkiss
p8885
g23
(g27
S'B\x05\x00\x00'
p8886
tp8887
Rp8888
sVfront
p8889
g23
(g27
S'"\x04\x00\x00'
p8890
tp8891
Rp8892
sVday
p8893
g23
(g27
S'\xab\x02\x00\x00'
p8894
tp8895
Rp8896
sVkilometres
p8897
g23
(g27
S':\x05\x00\x00'
p8898
tp8899
Rp8900
sVuniversity
p8901
g23
(g27
S'\xbc\t\x00\x00'
p8902
tp8903
Rp8904
sVidentified
p8905
g23
(g27
S'\xb4\x04\x00\x00'
p8906
tp8907
Rp8908
sVmerge
p8909
g23
(g27
S'\xf2\x05\x00\x00'
p8910
tp8911
Rp8912
sVconstraints
p8913
g23
(g27
S'L\x02\x00\x00'
p8914
tp8915
Rp8916
sVsubset
p8917
g23
(g27
S'\xeb\x08\x00\x00'
p8918
tp8919
Rp8920
sVdreaming
p8921
g23
(g27
S'3\x03\x00\x00'
p8922
tp8923
Rp8924
sVrelated
p8925
g23
(g27
S'\xa3\x07\x00\x00'
p8926
tp8927
Rp8928
sVfractions
p8929
g23
(g27
S'\x17\x04\x00\x00'
p8930
tp8931
Rp8932
sVrowadd
p8933
g23
(g27
S'\xf7\x07\x00\x00'
p8934
tp8935
Rp8936
sVremove
p8937
g23
(g27
S'\xb1\x07\x00\x00'
p8938
tp8939
Rp8940
sVmeasure
p8941
g23
(g27
S'\xe6\x05\x00\x00'
p8942
tp8943
Rp8944
sV82
p8945
g23
(g27
S'G\x00\x00\x00'
p8946
tp8947
Rp8948
sVprogrammer
p8949
g23
(g27
S'7\x07\x00\x00'
p8950
tp8951
Rp8952
sVdiffer
p8953
g23
(g27
S'\xf6\x02\x00\x00'
p8954
tp8955
Rp8956
sVspecial
p8957
g23
(g27
S'\x9d\x08\x00\x00'
p8958
tp8959
Rp8960
sVout
p8961
g23
(g27
S'\x9d\x06\x00\x00'
p8962
tp8963
Rp8964
sVmatrix
p8965
g23
(g27
S'\xda\x05\x00\x00'
p8966
tp8967
Rp8968
sVbag
p8969
g23
(g27
S'\x10\x01\x00\x00'
p8970
tp8971
Rp8972
sVoccupied
p8973
g23
(g27
S't\x06\x00\x00'
p8974
tp8975
Rp8976
sVbobos
p8977
g23
(g27
S'J\x01\x00\x00'
p8978
tp8979
Rp8980
sVred
p8981
g23
(g27
S'\x9a\x07\x00\x00'
p8982
tp8983
Rp8984
sVgalaxies
p8985
g23
(g27
S'5\x04\x00\x00'
p8986
tp8987
Rp8988
sVgreedy
p8989
g23
(g27
S'e\x04\x00\x00'
p8990
tp8991
Rp8992
sVcheftown
p8993
g23
(g27
S'\xc8\x01\x00\x00'
p8994
tp8995
Rp8996
sVattending
p8997
g23
(g27
S'\xf5\x00\x00\x00'
p8998
tp8999
Rp9000
sVcompletely
p9001
g23
(g27
S'%\x02\x00\x00'
p9002
tp9003
Rp9004
sVusual
p9005
g23
(g27
S'\xd3\t\x00\x00'
p9006
tp9007
Rp9008
sVprincess
p9009
g23
(g27
S'#\x07\x00\x00'
p9010
tp9011
Rp9012
sVshortest
p9013
g23
(g27
S'_\x08\x00\x00'
p9014
tp9015
Rp9016
sVovertake
p9017
g23
(g27
S'\xa4\x06\x00\x00'
p9018
tp9019
Rp9020
sVcured
p9021
g23
(g27
S'\x92\x02\x00\x00'
p9022
tp9023
Rp9024
sVher
p9025
g23
(g27
S'\x92\x04\x00\x00'
p9026
tp9027
Rp9028
sVgeometry
p9029
g23
(g27
S'A\x04\x00\x00'
p9030
tp9031
Rp9032
sVdetermining
p9033
g23
(g27
S'\xe2\x02\x00\x00'
p9034
tp9035
Rp9036
sVcould
p9037
g23
(g27
S'x\x02\x00\x00'
p9038
tp9039
Rp9040
sVcyael
p9041
g23
(g27
S'\x9b\x02\x00\x00'
p9042
tp9043
Rp9044
sVbidirectional
p9045
g23
(g27
S'7\x01\x00\x00'
p9046
tp9047
Rp9048
sVtimes
p9049
g23
(g27
S'U\t\x00\x00'
p9050
tp9051
Rp9052
sVkeen
p9053
g23
(g27
S'0\x05\x00\x00'
p9054
tp9055
Rp9056
sVlength
p9057
g23
(g27
S'r\x05\x00\x00'
p9058
tp9059
Rp9060
sV4th
p9061
g23
(g27
S'<\x00\x00\x00'
p9062
tp9063
Rp9064
sVhence
p9065
g23
(g27
S'\x91\x04\x00\x00'
p9066
tp9067
Rp9068
sVlth
p9069
g23
(g27
S'\xb6\x05\x00\x00'
p9070
tp9071
Rp9072
sV998244353
p9073
g23
(g27
S'K\x00\x00\x00'
p9074
tp9075
Rp9076
sVreaches
p9077
g23
(g27
S'\x80\x07\x00\x00'
p9078
tp9079
Rp9080
sVowner
p9081
g23
(g27
S'\xa6\x06\x00\x00'
p9082
tp9083
Rp9084
sVbhulok
p9085
g23
(g27
S'5\x01\x00\x00'
p9086
tp9087
Rp9088
sVprecisely
p9089
g23
(g27
S'\x15\x07\x00\x00'
p9090
tp9091
Rp9092
sVquality
p9093
g23
(g27
S'\\\x07\x00\x00'
p9094
tp9095
Rp9096
sVdestinations
p9097
g23
(g27
S'\xd9\x02\x00\x00'
p9098
tp9099
Rp9100
sVordinate
p9101
g23
(g27
S'\x95\x06\x00\x00'
p9102
tp9103
Rp9104
sVancient
p9105
g23
(g27
S'\xac\x00\x00\x00'
p9106
tp9107
Rp9108
sVsadly
p9109
g23
(g27
S'\x07\x08\x00\x00'
p9110
tp9111
Rp9112
sVpalindromes
p9113
g23
(g27
S'\xb5\x06\x00\x00'
p9114
tp9115
Rp9116
sVsystem
p9117
g23
(g27
S'\t\t\x00\x00'
p9118
tp9119
Rp9120
sVrelations
p9121
g23
(g27
S'\xa5\x07\x00\x00'
p9122
tp9123
Rp9124
sVvishnu
p9125
g23
(g27
S'\xf4\t\x00\x00'
p9126
tp9127
Rp9128
sVattack
p9129
g23
(g27
S'\xf2\x00\x00\x00'
p9130
tp9131
Rp9132
sVintermediate
p9133
g23
(g27
S'\xf6\x04\x00\x00'
p9134
tp9135
Rp9136
sVprecautionary
p9137
g23
(g27
S'\x13\x07\x00\x00'
p9138
tp9139
Rp9140
sVtravelled
p9141
g23
(g27
S'\x83\t\x00\x00'
p9142
tp9143
Rp9144
sVsubsegment
p9145
g23
(g27
S'\xe7\x08\x00\x00'
p9146
tp9147
Rp9148
sVtourists
p9149
g23
(g27
S'm\t\x00\x00'
p9150
tp9151
Rp9152
sVbeard
p9153
g23
(g27
S' \x01\x00\x00'
p9154
tp9155
Rp9156
sVinterests
p9157
g23
(g27
S'\xf3\x04\x00\x00'
p9158
tp9159
Rp9160
sVenforcement
p9161
g23
(g27
S'd\x03\x00\x00'
p9162
tp9163
Rp9164
sVsealed
p9165
g23
(g27
S'#\x08\x00\x00'
p9166
tp9167
Rp9168
sVtuple
p9169
g23
(g27
S'\x9b\t\x00\x00'
p9170
tp9171
Rp9172
sVexplanation
p9173
g23
(g27
S'\xa4\x03\x00\x00'
p9174
tp9175
Rp9176
sVnobody
p9177
g23
(g27
S'Z\x06\x00\x00'
p9178
tp9179
Rp9180
sVlists
p9181
g23
(g27
S'\x92\x05\x00\x00'
p9182
tp9183
Rp9184
sVlublin
p9185
g23
(g27
S'\xb7\x05\x00\x00'
p9186
tp9187
Rp9188
sVastounded
p9189
g23
(g27
S'\xeb\x00\x00\x00'
p9190
tp9191
Rp9192
sVsteel
p9193
g23
(g27
S'\xc4\x08\x00\x00'
p9194
tp9195
Rp9196
sVloved
p9197
g23
(g27
S'\xb2\x05\x00\x00'
p9198
tp9199
Rp9200
sVboring
p9201
g23
(g27
S'O\x01\x00\x00'
p9202
tp9203
Rp9204
sVsubmitted
p9205
g23
(g27
S'\xe6\x08\x00\x00'
p9206
tp9207
Rp9208
sVloves
p9209
g23
(g27
S'\xb4\x05\x00\x00'
p9210
tp9211
Rp9212
sVvisited
p9213
g23
(g27
S'\xf6\t\x00\x00'
p9214
tp9215
Rp9216
sVresult
p9217
g23
(g27
S'\xce\x07\x00\x00'
p9218
tp9219
Rp9220
sVcollecting
p9221
g23
(g27
S'\x06\x02\x00\x00'
p9222
tp9223
Rp9224
sVrobot
p9225
g23
(g27
S'\xe5\x07\x00\x00'
p9226
tp9227
Rp9228
sVtonight
p9229
g23
(g27
S'a\t\x00\x00'
p9230
tp9231
Rp9232
sVunavailability
p9233
g23
(g27
S'\xab\t\x00\x00'
p9234
tp9235
Rp9236
sVhave
p9237
g23
(g27
S'\x86\x04\x00\x00'
p9238
tp9239
Rp9240
sVneed
p9241
g23
(g27
S'G\x06\x00\x00'
p9242
tp9243
Rp9244
sVborder
p9245
g23
(g27
S'M\x01\x00\x00'
p9246
tp9247
Rp9248
sVclearly
p9249
g23
(g27
S'\xf2\x01\x00\x00'
p9250
tp9251
Rp9252
sVshe
p9253
g23
(g27
S'P\x08\x00\x00'
p9254
tp9255
Rp9256
sVdishes
p9257
g23
(g27
S'\x14\x03\x00\x00'
p9258
tp9259
Rp9260
sVmin
p9261
g23
(g27
S'\x02\x06\x00\x00'
p9262
tp9263
Rp9264
sVagency
p9265
g23
(g27
S'\x83\x00\x00\x00'
p9266
tp9267
Rp9268
sVable
p9269
g23
(g27
S'[\x00\x00\x00'
p9270
tp9271
Rp9272
sVbattles
p9273
g23
(g27
S'\x1c\x01\x00\x00'
p9274
tp9275
Rp9276
sVinstance
p9277
g23
(g27
S'\xe8\x04\x00\x00'
p9278
tp9279
Rp9280
sVrelatives
p9281
g23
(g27
S'\xa8\x07\x00\x00'
p9282
tp9283
Rp9284
sVwhich
p9285
g23
(g27
S'\x1e\n\x00\x00'
p9286
tp9287
Rp9288
sVunless
p9289
g23
(g27
S'\xbe\t\x00\x00'
p9290
tp9291
Rp9292
sVdeploy
p9293
g23
(g27
S'\xcf\x02\x00\x00'
p9294
tp9295
Rp9296
sVconnected
p9297
g23
(g27
S'<\x02\x00\x00'
p9298
tp9299
Rp9300
sVrepresentation
p9301
g23
(g27
S'\xba\x07\x00\x00'
p9302
tp9303
Rp9304
sVdevice
p9305
g23
(g27
S'\xe5\x02\x00\x00'
p9306
tp9307
Rp9308
sVfuture
p9309
g23
(g27
S'0\x04\x00\x00'
p9310
tp9311
Rp9312
sVsegment
p9313
g23
(g27
S'1\x08\x00\x00'
p9314
tp9315
Rp9316
sVpayment
p9317
g23
(g27
S'\xcd\x06\x00\x00'
p9318
tp9319
Rp9320
sVdelivery
p9321
g23
(g27
S'\xc6\x02\x00\x00'
p9322
tp9323
Rp9324
sVaskar
p9325
g23
(g27
S'\xdf\x00\x00\x00'
p9326
tp9327
Rp9328
sVneighboring
p9329
g23
(g27
S'L\x06\x00\x00'
p9330
tp9331
Rp9332
sVstronger
p9333
g23
(g27
S'\xd9\x08\x00\x00'
p9334
tp9335
Rp9336
sVdisease
p9337
g23
(g27
S'\x11\x03\x00\x00'
p9338
tp9339
Rp9340
sVbrought
p9341
g23
(g27
S'f\x01\x00\x00'
p9342
tp9343
Rp9344
sVcounted
p9345
g23
(g27
S'{\x02\x00\x00'
p9346
tp9347
Rp9348
sVgraphs
p9349
g23
(g27
S'`\x04\x00\x00'
p9350
tp9351
Rp9352
sVpainting
p9353
g23
(g27
S'\xae\x06\x00\x00'
p9354
tp9355
Rp9356
sVplanks
p9357
g23
(g27
S'\xef\x06\x00\x00'
p9358
tp9359
Rp9360
sVfact
p9361
g23
(g27
S'\xb7\x03\x00\x00'
p9362
tp9363
Rp9364
sVemerging
p9365
g23
(g27
S'Z\x03\x00\x00'
p9366
tp9367
Rp9368
sVselection
p9369
g23
(g27
S'6\x08\x00\x00'
p9370
tp9371
Rp9372
sVchances
p9373
g23
(g27
S'\xb9\x01\x00\x00'
p9374
tp9375
Rp9376
sVwikipedia
p9377
g23
(g27
S'*\n\x00\x00'
p9378
tp9379
Rp9380
sVagreed
p9381
g23
(g27
S'\x89\x00\x00\x00'
p9382
tp9383
Rp9384
sVplanning
p9385
g23
(g27
S'\xf2\x06\x00\x00'
p9386
tp9387
Rp9388
sVtrivial
p9389
g23
(g27
S'\x92\t\x00\x00'
p9390
tp9391
Rp9392
sVpleased
p9393
g23
(g27
S'\xfc\x06\x00\x00'
p9394
tp9395
Rp9396
sVq1
p9397
g23
(g27
S'V\x07\x00\x00'
p9398
tp9399
Rp9400
sVq0
p9401
g23
(g27
S'U\x07\x00\x00'
p9402
tp9403
Rp9404
sVq2
p9405
g23
(g27
S'W\x07\x00\x00'
p9406
tp9407
Rp9408
sVbased
p9409
g23
(g27
S'\x18\x01\x00\x00'
p9410
tp9411
Rp9412
sVknowledge
p9413
g23
(g27
S'K\x05\x00\x00'
p9414
tp9415
Rp9416
sVwinner
p9417
g23
(g27
S'-\n\x00\x00'
p9418
tp9419
Rp9420
sVtojo
p9421
g23
(g27
S']\t\x00\x00'
p9422
tp9423
Rp9424
sVsmallest
p9425
g23
(g27
S'\x85\x08\x00\x00'
p9426
tp9427
Rp9428
sVhandle
p9429
g23
(g27
S'}\x04\x00\x00'
p9430
tp9431
Rp9432
sVundivided
p9433
g23
(g27
S'\xb0\t\x00\x00'
p9434
tp9435
Rp9436
sVfamiliar
p9437
g23
(g27
S'\xc3\x03\x00\x00'
p9438
tp9439
Rp9440
sVlucky
p9441
g23
(g27
S'\xb9\x05\x00\x00'
p9442
tp9443
Rp9444
sVlviv
p9445
g23
(g27
S'\xbb\x05\x00\x00'
p9446
tp9447
Rp9448
sV120
p9449
g23
(g27
S'\x16\x00\x00\x00'
p9450
tp9451
Rp9452
sV122
p9453
g23
(g27
S'\x17\x00\x00\x00'
p9454
tp9455
Rp9456
sVones
p9457
g23
(g27
S'\x84\x06\x00\x00'
p9458
tp9459
Rp9460
sVwords
p9461
g23
(g27
S'?\n\x00\x00'
p9462
tp9463
Rp9464
sVdrawn
p9465
g23
(g27
S'2\x03\x00\x00'
p9466
tp9467
Rp9468
sV128
p9469
g23
(g27
S'\x19\x00\x00\x00'
p9470
tp9471
Rp9472
sVlira
p9473
g23
(g27
S'\x8c\x05\x00\x00'
p9474
tp9475
Rp9476
sVareas
p9477
g23
(g27
S'\xc8\x00\x00\x00'
p9478
tp9479
Rp9480
sVqr
p9481
g23
(g27
S'[\x07\x00\x00'
p9482
tp9483
Rp9484
sVtemp
p9485
g23
(g27
S')\t\x00\x00'
p9486
tp9487
Rp9488
sVnumerous
p9489
g23
(g27
S'l\x06\x00\x00'
p9490
tp9491
Rp9492
sVteams
p9493
g23
(g27
S'$\t\x00\x00'
p9494
tp9495
Rp9496
sVoptimally
p9497
g23
(g27
S'\x8c\x06\x00\x00'
p9498
tp9499
Rp9500
sVqb
p9501
g23
(g27
S'X\x07\x00\x00'
p9502
tp9503
Rp9504
sVprocessed
p9505
g23
(g27
S'-\x07\x00\x00'
p9506
tp9507
Rp9508
sVqueries
p9509
g23
(g27
S'^\x07\x00\x00'
p9510
tp9511
Rp9512
sVqi
p9513
g23
(g27
S'Y\x07\x00\x00'
p9514
tp9515
Rp9516
sVcycles
p9517
g23
(g27
S'\x9d\x02\x00\x00'
p9518
tp9519
Rp9520
sVqn
p9521
g23
(g27
S'Z\x07\x00\x00'
p9522
tp9523
Rp9524
sVavailable
p9525
g23
(g27
S'\xfc\x00\x00\x00'
p9526
tp9527
Rp9528
sVrequirement
p9529
g23
(g27
S'\xc0\x07\x00\x00'
p9530
tp9531
Rp9532
sVmodulo
p9533
g23
(g27
S'\x16\x06\x00\x00'
p9534
tp9535
Rp9536
sVconstructing
p9537
g23
(g27
S'O\x02\x00\x00'
p9538
tp9539
Rp9540
sVexists
p9541
g23
(g27
S'\x9e\x03\x00\x00'
p9542
tp9543
Rp9544
sVnational
p9545
g23
(g27
S'@\x06\x00\x00'
p9546
tp9547
Rp9548
sVrespect
p9549
g23
(g27
S'\xc5\x07\x00\x00'
p9550
tp9551
Rp9552
sVmodule
p9553
g23
(g27
S'\x15\x06\x00\x00'
p9554
tp9555
Rp9556
sVargued
p9557
g23
(g27
S'\xca\x00\x00\x00'
p9558
tp9559
Rp9560
sVcomputer
p9561
g23
(g27
S'-\x02\x00\x00'
p9562
tp9563
Rp9564
sVdesperate
p9565
g23
(g27
S'\xd6\x02\x00\x00'
p9566
tp9567
Rp9568
sVtriples
p9569
g23
(g27
S'\x90\t\x00\x00'
p9570
tp9571
Rp9572
sVacquires
p9573
g23
(g27
S'k\x00\x00\x00'
p9574
tp9575
Rp9576
sVerror
p9577
g23
(g27
S'y\x03\x00\x00'
p9578
tp9579
Rp9580
sVpattern
p9581
g23
(g27
S'\xca\x06\x00\x00'
p9582
tp9583
Rp9584
sVgenius
p9585
g23
(g27
S'@\x04\x00\x00'
p9586
tp9587
Rp9588
sVwritten
p9589
g23
(g27
S'J\n\x00\x00'
p9590
tp9591
Rp9592
sVconverted
p9593
g23
(g27
S'`\x02\x00\x00'
p9594
tp9595
Rp9596
sVsupernatural
p9597
g23
(g27
S'\xfc\x08\x00\x00'
p9598
tp9599
Rp9600
sVclosed
p9601
g23
(g27
S'\xf7\x01\x00\x00'
p9602
tp9603
Rp9604
sVallotted
p9605
g23
(g27
S'\x97\x00\x00\x00'
p9606
tp9607
Rp9608
sVneither
p9609
g23
(g27
S'P\x06\x00\x00'
p9610
tp9611
Rp9612
sVyoull
p9613
g23
(g27
S'i\n\x00\x00'
p9614
tp9615
Rp9616
sV3046201
p9617
g23
(g27
S'0\x00\x00\x00'
p9618
tp9619
Rp9620
sVends
p9621
g23
(g27
S'c\x03\x00\x00'
p9622
tp9623
Rp9624
sVexam
p9625
g23
(g27
S'\x90\x03\x00\x00'
p9626
tp9627
Rp9628
sVsereja
p9629
g23
(g27
S'B\x08\x00\x00'
p9630
tp9631
Rp9632
sVefficiency
p9633
g23
(g27
S'O\x03\x00\x00'
p9634
tp9635
Rp9636
sVjob
p9637
g23
(g27
S'!\x05\x00\x00'
p9638
tp9639
Rp9640
sVjoe
p9641
g23
(g27
S'"\x05\x00\x00'
p9642
tp9643
Rp9644
sVkey
p9645
g23
(g27
S'3\x05\x00\x00'
p9646
tp9647
Rp9648
sVsubgroup
p9649
g23
(g27
S'\xe4\x08\x00\x00'
p9650
tp9651
Rp9652
sVconfiguration
p9653
g23
(g27
S'7\x02\x00\x00'
p9654
tp9655
Rp9656
sVproblem
p9657
g23
(g27
S')\x07\x00\x00'
p9658
tp9659
Rp9660
sVstaring
p9661
g23
(g27
S'\xb7\x08\x00\x00'
p9662
tp9663
Rp9664
sVadmin
p9665
g23
(g27
S'{\x00\x00\x00'
p9666
tp9667
Rp9668
sVtaking
p9669
g23
(g27
S'\x15\t\x00\x00'
p9670
tp9671
Rp9672
sVequal
p9673
g23
(g27
S'q\x03\x00\x00'
p9674
tp9675
Rp9676
sVetc
p9677
g23
(g27
S'\x7f\x03\x00\x00'
p9678
tp9679
Rp9680
sVatleast
p9681
g23
(g27
S'\xef\x00\x00\x00'
p9682
tp9683
Rp9684
sVlo
p9685
g23
(g27
S'\x97\x05\x00\x00'
p9686
tp9687
Rp9688
sVpassing
p9689
g23
(g27
S'\xc5\x06\x00\x00'
p9690
tp9691
Rp9692
sVinvites
p9693
g23
(g27
S'\r\x05\x00\x00'
p9694
tp9695
Rp9696
sVotherwise
p9697
g23
(g27
S'\x9c\x06\x00\x00'
p9698
tp9699
Rp9700
sVci
p9701
g23
(g27
S'\xdc\x01\x00\x00'
p9702
tp9703
Rp9704
sVco
p9705
g23
(g27
S'\xf9\x01\x00\x00'
p9706
tp9707
Rp9708
sVcn
p9709
g23
(g27
S'\xf8\x01\x00\x00'
p9710
tp9711
Rp9712
sVconclude
p9713
g23
(g27
S'0\x02\x00\x00'
p9714
tp9715
Rp9716
sVcb
p9717
g23
(g27
S'\xaa\x01\x00\x00'
p9718
tp9719
Rp9720
sVca
p9721
g23
(g27
S'\x86\x01\x00\x00'
p9722
tp9723
Rp9724
sVwonder
p9725
g23
(g27
S'7\n\x00\x00'
p9726
tp9727
Rp9728
sVcd
p9729
g23
(g27
S'\xac\x01\x00\x00'
p9730
tp9731
Rp9732
sVvariety
p9733
g23
(g27
S'\xdb\t\x00\x00'
p9734
tp9735
Rp9736
sVcx
p9737
g23
(g27
S'\x9a\x02\x00\x00'
p9738
tp9739
Rp9740
sVcoordinates
p9741
g23
(g27
S'i\x02\x00\x00'
p9742
tp9743
Rp9744
sVmaximize
p9745
g23
(g27
S'\xde\x05\x00\x00'
p9746
tp9747
Rp9748
sVsequences
p9749
g23
(g27
S'A\x08\x00\x00'
p9750
tp9751
Rp9752
sVtable
p9753
g23
(g27
S'\x10\t\x00\x00'
p9754
tp9755
Rp9756
sVwinning
p9757
g23
(g27
S'/\n\x00\x00'
p9758
tp9759
Rp9760
sVaccomplishing
p9761
g23
(g27
S'c\x00\x00\x00'
p9762
tp9763
Rp9764
sVaddition
p9765
g23
(g27
S'w\x00\x00\x00'
p9766
tp9767
Rp9768
sVquiz
p9769
g23
(g27
S'd\x07\x00\x00'
p9770
tp9771
Rp9772
sVai
p9773
g23
(g27
S'\x8a\x00\x00\x00'
p9774
tp9775
Rp9776
sVseasoned
p9777
g23
(g27
S'%\x08\x00\x00'
p9778
tp9779
Rp9780
sVkitchen
p9781
g23
(g27
S'F\x05\x00\x00'
p9782
tp9783
Rp9784
sVdefine
p9785
g23
(g27
S'\xbb\x02\x00\x00'
p9786
tp9787
Rp9788
sVmike
p9789
g23
(g27
S'\x00\x06\x00\x00'
p9790
tp9791
Rp9792
sVaj
p9793
g23
(g27
S'\x8d\x00\x00\x00'
p9794
tp9795
Rp9796
sVgeneral
p9797
g23
(g27
S'=\x04\x00\x00'
p9798
tp9799
Rp9800
sV0s
p9801
g23
(g27
S'\x04\x00\x00\x00'
p9802
tp9803
Rp9804
sVpainted
p9805
g23
(g27
S'\xad\x06\x00\x00'
p9806
tp9807
Rp9808
sV467
p9809
g23
(g27
S'8\x00\x00\x00'
p9810
tp9811
Rp9812
sVal
p9813
g23
(g27
S'\x90\x00\x00\x00'
p9814
tp9815
Rp9816
sVneighbour
p9817
g23
(g27
S'M\x06\x00\x00'
p9818
tp9819
Rp9820
sVfinished
p9821
g23
(g27
S'\xec\x03\x00\x00'
p9822
tp9823
Rp9824
sVc3
p9825
g23
(g27
S'\x80\x01\x00\x00'
p9826
tp9827
Rp9828
sVc2
p9829
g23
(g27
S'\x7f\x01\x00\x00'
p9830
tp9831
Rp9832
sVc1
p9833
g23
(g27
S'~\x01\x00\x00'
p9834
tp9835
Rp9836
sVfellow
p9837
g23
(g27
S'\xd8\x03\x00\x00'
p9838
tp9839
Rp9840
sVc7
p9841
g23
(g27
S'\x85\x01\x00\x00'
p9842
tp9843
Rp9844
sVc6
p9845
g23
(g27
S'\x84\x01\x00\x00'
p9846
tp9847
Rp9848
sVc5
p9849
g23
(g27
S'\x83\x01\x00\x00'
p9850
tp9851
Rp9852
sVc4
p9853
g23
(g27
S'\x81\x01\x00\x00'
p9854
tp9855
Rp9856
sVmulti
p9857
g23
(g27
S'-\x06\x00\x00'
p9858
tp9859
Rp9860
sVtheyve
p9861
g23
(g27
S'>\t\x00\x00'
p9862
tp9863
Rp9864
sVsubsets
p9865
g23
(g27
S'\xec\x08\x00\x00'
p9866
tp9867
Rp9868
sVharder
p9869
g23
(g27
S'\x82\x04\x00\x00'
p9870
tp9871
Rp9872
sVvalue
p9873
g23
(g27
S'\xd6\t\x00\x00'
p9874
tp9875
Rp9876
sVrectangular
p9877
g23
(g27
S'\x98\x07\x00\x00'
p9878
tp9879
Rp9880
sVwill
p9881
g23
(g27
S'+\n\x00\x00'
p9882
tp9883
Rp9884
sVcomets
p9885
g23
(g27
S'\x17\x02\x00\x00'
p9886
tp9887
Rp9888
sValmost
p9889
g23
(g27
S'\x99\x00\x00\x00'
p9890
tp9891
Rp9892
sVvi
p9893
g23
(g27
S'\xe9\t\x00\x00'
p9894
tp9895
Rp9896
sVvj
p9897
g23
(g27
S'\xf9\t\x00\x00'
p9898
tp9899
Rp9900
sVthus
p9901
g23
(g27
S'L\t\x00\x00'
p9902
tp9903
Rp9904
sVsurprisingly
p9905
g23
(g27
S'\x03\t\x00\x00'
p9906
tp9907
Rp9908
sVsurface
p9909
g23
(g27
S'\x01\t\x00\x00'
p9910
tp9911
Rp9912
sVay
p9913
g23
(g27
S'\t\x01\x00\x00'
p9914
tp9915
Rp9916
sVavi
p9917
g23
(g27
S'\xff\x00\x00\x00'
p9918
tp9919
Rp9920
sVbegan
p9921
g23
(g27
S"'\x01\x00\x00"
p9922
tp9923
Rp9924
sVindistinguishable
p9925
g23
(g27
S'\xd8\x04\x00\x00'
p9926
tp9927
Rp9928
sVmember
p9929
g23
(g27
S'\xec\x05\x00\x00'
p9930
tp9931
Rp9932
sVadverse
p9933
g23
(g27
S'\x7f\x00\x00\x00'
p9934
tp9935
Rp9936
sVunity
p9937
g23
(g27
S'\xba\t\x00\x00'
p9938
tp9939
Rp9940
sVstrange
p9941
g23
(g27
S'\xd2\x08\x00\x00'
p9942
tp9943
Rp9944
sVlargest
p9945
g23
(g27
S'W\x05\x00\x00'
p9946
tp9947
Rp9948
sVunits
p9949
g23
(g27
S'\xb9\t\x00\x00'
p9950
tp9951
Rp9952
sVparty
p9953
g23
(g27
S'\xc2\x06\x00\x00'
p9954
tp9955
Rp9956
sVgets
p9957
g23
(g27
S'C\x04\x00\x00'
p9958
tp9959
Rp9960
sVdifficult
p9961
g23
(g27
S'\xfa\x02\x00\x00'
p9962
tp9963
Rp9964
sVball
p9965
g23
(g27
S'\x12\x01\x00\x00'
p9966
tp9967
Rp9968
sVhttp
p9969
g23
(g27
S'\xa5\x04\x00\x00'
p9970
tp9971
Rp9972
sVdrink
p9973
g23
(g27
S'4\x03\x00\x00'
p9974
tp9975
Rp9976
sVupon
p9977
g23
(g27
S'\xc7\t\x00\x00'
p9978
tp9979
Rp9980
sVeffect
p9981
g23
(g27
S'N\x03\x00\x00'
p9982
tp9983
Rp9984
sVstudent
p9985
g23
(g27
S'\xde\x08\x00\x00'
p9986
tp9987
Rp9988
sVdust
p9989
g23
(g27
S'<\x03\x00\x00'
p9990
tp9991
Rp9992
sVfrequently
p9993
g23
(g27
S'\x1b\x04\x00\x00'
p9994
tp9995
Rp9996
sVintially
p9997
g23
(g27
S'\xff\x04\x00\x00'
p9998
tp9999
Rp10000
sVcollar
p10001
g23
(g27
S'\x03\x02\x00\x00'
p10002
tp10003
Rp10004
sVidentity
p10005
g23
(g27
S'\xb5\x04\x00\x00'
p10006
tp10007
Rp10008
sVkeep
p10009
g23
(g27
S'1\x05\x00\x00'
p10010
tp10011
Rp10012
sVnumbered
p10013
g23
(g27
S'j\x06\x00\x00'
p10014
tp10015
Rp10016
sVcorrespondent
p10017
g23
(g27
S'p\x02\x00\x00'
p10018
tp10019
Rp10020
sVoff
p10021
g23
(g27
S'x\x06\x00\x00'
p10022
tp10023
Rp10024
sVcenter
p10025
g23
(g27
S'\xaf\x01\x00\x00'
p10026
tp10027
Rp10028
sVingredients
p10029
g23
(g27
S'\xe2\x04\x00\x00'
p10030
tp10031
Rp10032
sVwell
p10033
g23
(g27
S'\x15\n\x00\x00'
p10034
tp10035
Rp10036
sVsubtree
p10037
g23
(g27
S'\xef\x08\x00\x00'
p10038
tp10039
Rp10040
sVthought
p10041
g23
(g27
S'H\t\x00\x00'
p10042
tp10043
Rp10044
sVpatterns
p10045
g23
(g27
S'\xcb\x06\x00\x00'
p10046
tp10047
Rp10048
sV355
p10049
g23
(g27
S'3\x00\x00\x00'
p10050
tp10051
Rp10052
sVcommand
p10053
g23
(g27
S'\x19\x02\x00\x00'
p10054
tp10055
Rp10056
sVenglish
p10057
g23
(g27
S'e\x03\x00\x00'
p10058
tp10059
Rp10060
sVposition
p10061
g23
(g27
S'\t\x07\x00\x00'
p10062
tp10063
Rp10064
sVdrawing
p10065
g23
(g27
S'1\x03\x00\x00'
p10066
tp10067
Rp10068
sVrealised
p10069
g23
(g27
S'\x85\x07\x00\x00'
p10070
tp10071
Rp10072
sVsubsegments
p10073
g23
(g27
S'\xe8\x08\x00\x00'
p10074
tp10075
Rp10076
sVstores
p10077
g23
(g27
S'\xcf\x08\x00\x00'
p10078
tp10079
Rp10080
sVbarking
p10081
g23
(g27
S'\x16\x01\x00\x00'
p10082
tp10083
Rp10084
sVrocket
p10085
g23
(g27
S'\xe7\x07\x00\x00'
p10086
tp10087
Rp10088
sVless
p10089
g23
(g27
S'u\x05\x00\x00'
p10090
tp10091
Rp10092
sVioi
p10093
g23
(g27
S'\x10\x05\x00\x00'
p10094
tp10095
Rp10096
sVobtain
p10097
g23
(g27
S'o\x06\x00\x00'
p10098
tp10099
Rp10100
sVdetail
p10101
g23
(g27
S'\xdc\x02\x00\x00'
p10102
tp10103
Rp10104
sVarriving
p10105
g23
(g27
S'\xd7\x00\x00\x00'
p10106
tp10107
Rp10108
sVstored
p10109
g23
(g27
S'\xce\x08\x00\x00'
p10110
tp10111
Rp10112
sVdistant
p10113
g23
(g27
S'\x1a\x03\x00\x00'
p10114
tp10115
Rp10116
sVskill
p10117
g23
(g27
S'\x7f\x08\x00\x00'
p10118
tp10119
Rp10120
sVcoordination
p10121
g23
(g27
S'j\x02\x00\x00'
p10122
tp10123
Rp10124
sVdevus
p10125
g23
(g27
S'\xed\x02\x00\x00'
p10126
tp10127
Rp10128
sVrandom_shuffle
p10129
g23
(g27
S'u\x07\x00\x00'
p10130
tp10131
Rp10132
sVsupply
p10133
g23
(g27
S'\xfe\x08\x00\x00'
p10134
tp10135
Rp10136
sVsimple
p10137
g23
(g27
S'p\x08\x00\x00'
p10138
tp10139
Rp10140
sVadd
p10141
g23
(g27
S'u\x00\x00\x00'
p10142
tp10143
Rp10144
sVattractive
p10145
g23
(g27
S'\xf8\x00\x00\x00'
p10146
tp10147
Rp10148
sVcitizen
p10149
g23
(g27
S'\xe8\x01\x00\x00'
p10150
tp10151
Rp10152
sVusage
p10153
g23
(g27
S'\xcc\t\x00\x00'
p10154
tp10155
Rp10156
sVintersection
p10157
g23
(g27
S'\xfd\x04\x00\x00'
p10158
tp10159
Rp10160
sVvillagers
p10161
g23
(g27
S'\xf1\t\x00\x00'
p10162
tp10163
Rp10164
sVhomework
p10165
g23
(g27
S'\x9e\x04\x00\x00'
p10166
tp10167
Rp10168
sVdivided
p10169
g23
(g27
S' \x03\x00\x00'
p10170
tp10171
Rp10172
sVidentical
p10173
g23
(g27
S'\xb3\x04\x00\x00'
p10174
tp10175
Rp10176
sVtests
p10177
g23
(g27
S'.\t\x00\x00'
p10178
tp10179
Rp10180
sVincreased
p10181
g23
(g27
S'\xce\x04\x00\x00'
p10182
tp10183
Rp10184
sVarticles
p10185
g23
(g27
S'\xdb\x00\x00\x00'
p10186
tp10187
Rp10188
sVdevised
p10189
g23
(g27
S'\xe7\x02\x00\x00'
p10190
tp10191
Rp10192
sVterm
p10193
g23
(g27
S'*\t\x00\x00'
p10194
tp10195
Rp10196
sVmunich
p10197
g23
(g27
S'2\x06\x00\x00'
p10198
tp10199
Rp10200
sVincreases
p10201
g23
(g27
S'\xcf\x04\x00\x00'
p10202
tp10203
Rp10204
sVfive
p10205
g23
(g27
S'\xf1\x03\x00\x00'
p10206
tp10207
Rp10208
sVknow
p10209
g23
(g27
S'I\x05\x00\x00'
p10210
tp10211
Rp10212
sVcatchers
p10213
g23
(g27
S'\xa7\x01\x00\x00'
p10214
tp10215
Rp10216
sVbelgium
p10217
g23
(g27
S',\x01\x00\x00'
p10218
tp10219
Rp10220
sVimmediately
p10221
g23
(g27
S'\xbf\x04\x00\x00'
p10222
tp10223
Rp10224
sVpassword
p10225
g23
(g27
S'\xc6\x06\x00\x00'
p10226
tp10227
Rp10228
sVnecessary
p10229
g23
(g27
S'F\x06\x00\x00'
p10230
tp10231
Rp10232
sVlike
p10233
g23
(g27
S'\x83\x05\x00\x00'
p10234
tp10235
Rp10236
sVexcluding
p10237
g23
(g27
S'\x98\x03\x00\x00'
p10238
tp10239
Rp10240
sVsizes
p10241
g23
(g27
S'~\x08\x00\x00'
p10242
tp10243
Rp10244
sVchairs
p10245
g23
(g27
S'\xb5\x01\x00\x00'
p10246
tp10247
Rp10248
sValternatively
p10249
g23
(g27
S'\xa0\x00\x00\x00'
p10250
tp10251
Rp10252
sVloser
p10253
g23
(g27
S'\xa8\x05\x00\x00'
p10254
tp10255
Rp10256
sVloses
p10257
g23
(g27
S'\xa9\x05\x00\x00'
p10258
tp10259
Rp10260
sVexhausted
p10261
g23
(g27
S'\x9b\x03\x00\x00'
p10262
tp10263
Rp10264
sVlose
p10265
g23
(g27
S'\xa7\x05\x00\x00'
p10266
tp10267
Rp10268
sVagents
p10269
g23
(g27
S'\x85\x00\x00\x00'
p10270
tp10271
Rp10272
sVworks
p10273
g23
(g27
S'B\n\x00\x00'
p10274
tp10275
Rp10276
sVwonders
p10277
g23
(g27
S':\n\x00\x00'
p10278
tp10279
Rp10280
sVexceed
p10281
g23
(g27
S'\x93\x03\x00\x00'
p10282
tp10283
Rp10284
sVunable
p10285
g23
(g27
S'\xaa\t\x00\x00'
p10286
tp10287
Rp10288
sVsequence
p10289
g23
(g27
S'@\x08\x00\x00'
p10290
tp10291
Rp10292
sVauthority
p10293
g23
(g27
S'\xfa\x00\x00\x00'
p10294
tp10295
Rp10296
sVzeroes
p10297
g23
(g27
S'o\n\x00\x00'
p10298
tp10299
Rp10300
sVshes
p10301
g23
(g27
S'T\x08\x00\x00'
p10302
tp10303
Rp10304
sV113
p10305
g23
(g27
S'\x14\x00\x00\x00'
p10306
tp10307
Rp10308
sVconvex
p10309
g23
(g27
S'b\x02\x00\x00'
p10310
tp10311
Rp10312
sVsmall
p10313
g23
(g27
S'\x84\x08\x00\x00'
p10314
tp10315
Rp10316
sVtransport
p10317
g23
(g27
S'\x7f\t\x00\x00'
p10318
tp10319
Rp10320
sVcodechef
p10321
g23
(g27
S'\xfc\x01\x00\x00'
p10322
tp10323
Rp10324
sVhappens
p10325
g23
(g27
S'\x7f\x04\x00\x00'
p10326
tp10327
Rp10328
sVlead
p10329
g23
(g27
S'b\x05\x00\x00'
p10330
tp10331
Rp10332
sVavoid
p10333
g23
(g27
S'\x01\x01\x00\x00'
p10334
tp10335
Rp10336
sVassuming
p10337
g23
(g27
S'\xea\x00\x00\x00'
p10338
tp10339
Rp10340
sVleader
p10341
g23
(g27
S'c\x05\x00\x00'
p10342
tp10343
Rp10344
sVselecting
p10345
g23
(g27
S'5\x08\x00\x00'
p10346
tp10347
Rp10348
sVrock
p10349
g23
(g27
S'\xe6\x07\x00\x00'
p10350
tp10351
Rp10352
sVprohibited
p10353
g23
(g27
S';\x07\x00\x00'
p10354
tp10355
Rp10356
sValthough
p10357
g23
(g27
S'\xa1\x00\x00\x00'
p10358
tp10359
Rp10360
sVpanel
p10361
g23
(g27
S'\xb6\x06\x00\x00'
p10362
tp10363
Rp10364
sVa1
p10365
g23
(g27
S'M\x00\x00\x00'
p10366
tp10367
Rp10368
sVsister
p10369
g23
(g27
S'w\x08\x00\x00'
p10370
tp10371
Rp10372
sVcheflands
p10373
g23
(g27
S'\xc5\x01\x00\x00'
p10374
tp10375
Rp10376
sVactual
p10377
g23
(g27
S'r\x00\x00\x00'
p10378
tp10379
Rp10380
sVputs
p10381
g23
(g27
S'T\x07\x00\x00'
p10382
tp10383
Rp10384
sVgetting
p10385
g23
(g27
S'D\x04\x00\x00'
p10386
tp10387
Rp10388
sVcolumn
p10389
g23
(g27
S'\x10\x02\x00\x00'
p10390
tp10391
Rp10392
sVuniverse
p10393
g23
(g27
S'\xbb\t\x00\x00'
p10394
tp10395
Rp10396
sVlegendary
p10397
g23
(g27
S'p\x05\x00\x00'
p10398
tp10399
Rp10400
sV2cm
p10401
g23
(g27
S')\x00\x00\x00'
p10402
tp10403
Rp10404
sVa2
p10405
g23
(g27
S'O\x00\x00\x00'
p10406
tp10407
Rp10408
sVdiscard
p10409
g23
(g27
S'\x0b\x03\x00\x00'
p10410
tp10411
Rp10412
sVintroduced
p10413
g23
(g27
S'\x01\x05\x00\x00'
p10414
tp10415
Rp10416
sVequally
p10417
g23
(g27
S's\x03\x00\x00'
p10418
tp10419
Rp10420
sVown
p10421
g23
(g27
S'\xa5\x06\x00\x00'
p10422
tp10423
Rp10424
sVletters
p10425
g23
(g27
S'y\x05\x00\x00'
p10426
tp10427
Rp10428
sVpreviously
p10429
g23
(g27
S' \x07\x00\x00'
p10430
tp10431
Rp10432
sV744
p10433
g23
(g27
S'B\x00\x00\x00'
p10434
tp10435
Rp10436
sVa6
p10437
g23
(g27
S'T\x00\x00\x00'
p10438
tp10439
Rp10440
sVmushrooms
p10441
g23
(g27
S'4\x06\x00\x00'
p10442
tp10443
Rp10444
sVdoesnt
p10445
g23
(g27
S'&\x03\x00\x00'
p10446
tp10447
Rp10448
sVbrush
p10449
g23
(g27
S'i\x01\x00\x00'
p10450
tp10451
Rp10452
sVprotector
p10453
g23
(g27
S'G\x07\x00\x00'
p10454
tp10455
Rp10456
sVroads
p10457
g23
(g27
S'\xe4\x07\x00\x00'
p10458
tp10459
Rp10460
sVcouldnt
p10461
g23
(g27
S'y\x02\x00\x00'
p10462
tp10463
Rp10464
sVnegotiable
p10465
g23
(g27
S'K\x06\x00\x00'
p10466
tp10467
Rp10468
sVadditional
p10469
g23
(g27
S'x\x00\x00\x00'
p10470
tp10471
Rp10472
sVprotectors
p10473
g23
(g27
S'H\x07\x00\x00'
p10474
tp10475
Rp10476
sVspread
p10477
g23
(g27
S'\xae\x08\x00\x00'
p10478
tp10479
Rp10480
sVbiggest
p10481
g23
(g27
S'9\x01\x00\x00'
p10482
tp10483
Rp10484
sVnaturally
p10485
g23
(g27
S'B\x06\x00\x00'
p10486
tp10487
Rp10488
sVfunction
p10489
g23
(g27
S'(\x04\x00\x00'
p10490
tp10491
Rp10492
sVcricket
p10493
g23
(g27
S'\x89\x02\x00\x00'
p10494
tp10495
Rp10496
sVbuy
p10497
g23
(g27
S'x\x01\x00\x00'
p10498
tp10499
Rp10500
sVfunds
p10501
g23
(g27
S'*\x04\x00\x00'
p10502
tp10503
Rp10504
sVbrand
p10505
g23
(g27
S'\\\x01\x00\x00'
p10506
tp10507
Rp10508
sVdavids
p10509
g23
(g27
S'\xaa\x02\x00\x00'
p10510
tp10511
Rp10512
sVoverlapping
p10513
g23
(g27
S'\xa2\x06\x00\x00'
p10514
tp10515
Rp10516
sVvolume
p10517
g23
(g27
S'\xfa\t\x00\x00'
p10518
tp10519
Rp10520
sVpj
p10521
g23
(g27
S'\xe6\x06\x00\x00'
p10522
tp10523
Rp10524
sVconstruction
p10525
g23
(g27
S'P\x02\x00\x00'
p10526
tp10527
Rp10528
sVgain
p10529
g23
(g27
S'3\x04\x00\x00'
p10530
tp10531
Rp10532
sVeat
p10533
g23
(g27
S'H\x03\x00\x00'
p10534
tp10535
Rp10536
sVhe
p10537
g23
(g27
S'\x87\x04\x00\x00'
p10538
tp10539
Rp10540
sVcount
p10541
g23
(g27
S'z\x02\x00\x00'
p10542
tp10543
Rp10544
sVmade
p10545
g23
(g27
S'\xbe\x05\x00\x00'
p10546
tp10547
Rp10548
sVcompute
p10549
g23
(g27
S',\x02\x00\x00'
p10550
tp10551
Rp10552
sVplaces
p10553
g23
(g27
S'\xe9\x06\x00\x00'
p10554
tp10555
Rp10556
sVwhether
p10557
g23
(g27
S'\x1d\n\x00\x00'
p10558
tp10559
Rp10560
sVmeeting
p10561
g23
(g27
S'\xeb\x05\x00\x00'
p10562
tp10563
Rp10564
sVcells
p10565
g23
(g27
S'\xae\x01\x00\x00'
p10566
tp10567
Rp10568
sVflip
p10569
g23
(g27
S'\xf6\x03\x00\x00'
p10570
tp10571
Rp10572
sVplaced
p10573
g23
(g27
S'\xe8\x06\x00\x00'
p10574
tp10575
Rp10576
sVbelow
p10577
g23
(g27
S'1\x01\x00\x00'
p10578
tp10579
Rp10580
sVconvince
p10581
g23
(g27
S'c\x02\x00\x00'
p10582
tp10583
Rp10584
sVcake
p10585
g23
(g27
S'\x89\x01\x00\x00'
p10586
tp10587
Rp10588
sVdistribution
p10589
g23
(g27
S'\x1d\x03\x00\x00'
p10590
tp10591
Rp10592
sVpiece
p10593
g23
(g27
S'\xe2\x06\x00\x00'
p10594
tp10595
Rp10596
sVminutes
p10597
g23
(g27
S'\t\x06\x00\x00'
p10598
tp10599
Rp10600
sVcustomize
p10601
g23
(g27
S'\x97\x02\x00\x00'
p10602
tp10603
Rp10604
sVkisses
p10605
g23
(g27
S'D\x05\x00\x00'
p10606
tp10607
Rp10608
sVdenote
p10609
g23
(g27
S'\xc9\x02\x00\x00'
p10610
tp10611
Rp10612
sVkissed
p10613
g23
(g27
S'C\x05\x00\x00'
p10614
tp10615
Rp10616
sVtrailing
p10617
g23
(g27
S'y\t\x00\x00'
p10618
tp10619
Rp10620
sVhappen
p10621
g23
(g27
S'~\x04\x00\x00'
p10622
tp10623
Rp10624
sVmutual
p10625
g23
(g27
S'6\x06\x00\x00'
p10626
tp10627
Rp10628
sVcompared
p10629
g23
(g27
S' \x02\x00\x00'
p10630
tp10631
Rp10632
sV48
p10633
g23
(g27
S':\x00\x00\x00'
p10634
tp10635
Rp10636
sVcontest
p10637
g23
(g27
S'X\x02\x00\x00'
p10638
tp10639
Rp10640
sV47
p10641
g23
(g27
S'9\x00\x00\x00'
p10642
tp10643
Rp10644
sVeastern
p10645
g23
(g27
S'F\x03\x00\x00'
p10646
tp10647
Rp10648
sVforests
p10649
g23
(g27
S'\x05\x04\x00\x00'
p10650
tp10651
Rp10652
sVgossip
p10653
g23
(g27
S'Z\x04\x00\x00'
p10654
tp10655
Rp10656
sVdetails
p10657
g23
(g27
S'\xdd\x02\x00\x00'
p10658
tp10659
Rp10660
sVnormal
p10661
g23
(g27
S'`\x06\x00\x00'
p10662
tp10663
Rp10664
sVbehold
p10665
g23
(g27
S'+\x01\x00\x00'
p10666
tp10667
Rp10668
sVconclusion
p10669
g23
(g27
S'2\x02\x00\x00'
p10670
tp10671
Rp10672
sVgifted
p10673
g23
(g27
S'G\x04\x00\x00'
p10674
tp10675
Rp10676
sVkinds
p10677
g23
(g27
S'=\x05\x00\x00'
p10678
tp10679
Rp10680
sVclass
p10681
g23
(g27
S'\xed\x01\x00\x00'
p10682
tp10683
Rp10684
sVbundle
p10685
g23
(g27
S'q\x01\x00\x00'
p10686
tp10687
Rp10688
sVstay
p10689
g23
(g27
S'\xc2\x08\x00\x00'
p10690
tp10691
Rp10692
sVtown
p10693
g23
(g27
S'q\t\x00\x00'
p10694
tp10695
Rp10696
sVadditionally
p10697
g23
(g27
S'y\x00\x00\x00'
p10698
tp10699
Rp10700
sVfriends
p10701
g23
(g27
S'\x1f\x04\x00\x00'
p10702
tp10703
Rp10704
sVphilately
p10705
g23
(g27
S'\xdc\x06\x00\x00'
p10706
tp10707
Rp10708
sVfactors
p10709
g23
(g27
S'\xbb\x03\x00\x00'
p10710
tp10711
Rp10712
sV4s
p10713
g23
(g27
S';\x00\x00\x00'
p10714
tp10715
Rp10716
sVrule
p10717
g23
(g27
S'\xfc\x07\x00\x00'
p10718
tp10719
Rp10720
sVunderstand
p10721
g23
(g27
S'\xac\t\x00\x00'
p10722
tp10723
Rp10724
sVranka
p10725
g23
(g27
S'x\x07\x00\x00'
p10726
tp10727
Rp10728
ssS'binary'
p10729
I00
sS'ngram_range'
p10730
(I1
I1
tp10731
sS'preprocessor'
p10732
NsS'min_df'
p10733
I1
sS'max_features'
p10734
NsS'input'
p10735
Vcontent
p10736
sS'dtype'
p10737
cnumpy
int64
p10738
sS'stop_words_'
p10739
c__builtin__
set
p10740
((lp10741
tp10742
Rp10743
sS'strip_accents'
p10744
Nsb.