(ispojProblem
SpojProblem
p0
(dp1
S'languages'
p2
VAll except: NODEJS PERL 6 VB.net
p3
sS'output'
p4
(lp5
VOutput The expressions in RPN form, one per line. expression 
p6
asS'description'
p7
V Transform the algebraic expression with brackets into RPN form (Reverse Polish Notation). Two-argument operators: +, -, *, /, ^ (priority from the lowest to the highest), brackets ( ). Operands: only letters: a,b,...,z. Assume that there is only one RPN form (no expressions like a*b*c). Input t [the number of expressions <= 100]\u000aexpression [length <= 400]\u000a[other expressions] t 100 expression 400 Text grouped in [ ] does not appear in the input file. Output The expressions in RPN form, one per line. expression Example Input:\u000a3\u000a(a+(b*c))\u000a((a+b)*(z+x))\u000a((a+t)*((b+(a+c))^(c+d)))\u000a\u000aOutput:\u000aabc*+\u000aab+zx+*\u000aat+bac++cd+^*
p8
sS'tags'
p9
V #stack
p10
sS'url'
p11
Vhttp://www.spoj.com/problems/ONP
p12
sS'addedBy'
p13
Vmima
p14
sS'memorylimit'
p15
V1536MB
p16
sS'cluster'
p17
VCube (Intel G860)
p18
sS'timelimit'
p19
V5s
p20
sS'statement'
p21
(lp22
V Transform the algebraic expression with brackets into RPN form (Reverse Polish Notation). Two-argument operators: +, -, *, /, ^ (priority from the lowest to the highest), brackets ( ). Operands: only letters: a,b,...,z. Assume that there is only one RPN form (no expressions like a*b*c). 
p23
asS'sourcelimit'
p24
V-
p25
sS'date'
p26
V2004-05-01
p27
sS'input'
p28
(lp29
VInput t [the number of expressions <= 100]
p30
aVexpression [length <= 400]
p31
aV[other expressions] t 100 expression 400 Text grouped in [ ] does not appear in the input file. 
p32
asS'constraints'
p33
g29
sS'id'
p34
c__builtin__
id
p35
sS'name'
p36
VONP
p37
sb.