(ispojProblem
SpojProblem
p0
(dp1
S'languages'
p2
VAll except: NODEJS PERL 6
p3
sS'output'
p4
(lp5
VOutput For each K, output the smallest palindrome larger than K. K K 
p6
asS'description'
p7
V A positive integer is called a palindrome if its representation in the decimal system is the same when read from left to right and from right to left. For a given positive integer K of not more than 1000000 digits, write the value of the smallest palindrome larger than K to output. Numbers are always displayed without leading zeros. palindrome K K Input The first line contains integer t, the number of test cases. Integers K are given in the next t lines. t K t Output For each K, output the smallest palindrome larger than K. K K Example Input:\u000a2\u000a808\u000a2133\u000a\u000aOutput:\u000a818\u000a2222 Input: Output: Warning: large Input/Output data, be careful with certain languages Warning: large Input/Output data, be careful with certain languages
p8
sS'tags'
p9
V #ad-hoc-1
p10
sS'url'
p11
Vhttp://www.spoj.com/problems/PALIN
p12
sS'addedBy'
p13
Vadrian
p14
sS'memorylimit'
p15
V1536MB
p16
sS'cluster'
p17
VCube (Intel G860)
p18
sS'timelimit'
p19
V2s-9s
p20
sS'statement'
p21
(lp22
V A positive integer is called a palindrome if its representation in the decimal system is the same when read from left to right and from right to left. For a given positive integer K of not more than 1000000 digits, write the value of the smallest palindrome larger than K to output. Numbers are always displayed without leading zeros. palindrome K K 
p23
asS'submissionSize'
p24
F0.0
sS'sourcelimit'
p25
V50000B
p26
sS'date'
p27
V2004-05-01
p28
sS'input'
p29
(lp30
VInput The first line contains integer t, the number of test cases. Integers K are given in the next t lines. t K t 
p31
asS'constraints'
p32
g30
sS'id'
p33
c__builtin__
id
p34
sS'name'
p35
VPALIN
p36
sb.